
stanford:     file format elf32-sparc

Disassembly of section .text:

40000000 <_trap_table>:
40000000:	0d 10 00 2e 	sethi  %hi(0x4000b800), %g6
40000004:	81 c1 a2 1c 	jmp  %g6 + 0x21c	! 4000ba1c <_start_svt_weak>
40000008:	01 00 00 00 	nop 

4000000c <_start>:
4000000c:	9d e3 bf c0 	save  %sp, -64, %sp
40000010:	05 10 00 36 	sethi  %hi(0x4000d800), %g2
40000014:	84 10 a2 20 	or  %g2, 0x220, %g2	! 4000da20 <__bss_start>
40000018:	07 10 00 93 	sethi  %hi(0x40024c00), %g3
4000001c:	86 10 e3 48 	or  %g3, 0x348, %g3	! 40024f48 <__end>
40000020:	82 10 00 00 	mov  %g0, %g1
40000024:	86 20 c0 02 	sub  %g3, %g2, %g3

40000028 <zerobss>:
40000028:	86 a0 e0 08 	subcc  %g3, 8, %g3
4000002c:	36 bf ff ff 	bge,a   40000028 <zerobss>
40000030:	c0 38 80 03 	std  %g0, [ %g2 + %g3 ]
40000034:	11 10 00 93 	sethi  %hi(0x40024c00), %o0
40000038:	90 12 23 48 	or  %o0, 0x348, %o0	! 40024f48 <__end>
4000003c:	c0 22 00 00 	clr  [ %o0 ]
40000040:	40 00 2d e5 	call  4000b7d4 <bdinit2>
40000044:	01 00 00 00 	nop 
40000048:	40 00 2d e5 	call  4000b7dc <prelibchook>
4000004c:	01 00 00 00 	nop 
40000050:	40 00 2e ad 	call  4000bb04 <_call_initcalls>
40000054:	01 00 00 00 	nop 
40000058:	11 10 00 33 	sethi  %hi(0x4000cc00), %o0
4000005c:	90 12 23 3c 	or  %o0, 0x33c, %o0	! 4000cf3c <_fini>
40000060:	40 00 0f a1 	call  40003ee4 <_atexit>
40000064:	01 00 00 00 	nop 
40000068:	40 00 33 ae 	call  4000cf20 <_init>
4000006c:	01 00 00 00 	nop 
40000070:	40 00 07 a9 	call  40001f14 <main>
40000074:	01 00 00 00 	nop 
40000078:	40 00 2e 02 	call  4000b880 <_exit>
4000007c:	01 00 00 00 	nop 
40000080:	81 c7 e0 08 	ret 
40000084:	81 e8 00 00 	restore 

40000088 <__do_global_dtors_aux>:
40000088:	9d e3 bf 98 	save  %sp, -104, %sp
4000008c:	23 10 00 36 	sethi  %hi(0x4000d800), %l1
40000090:	c2 0c 62 20 	ldub  [ %l1 + 0x220 ], %g1	! 4000da20 <__bss_start>
40000094:	80 a0 60 00 	cmp  %g1, 0
40000098:	12 80 00 15 	bne  400000ec <__do_global_dtors_aux+0x64>
4000009c:	21 10 00 33 	sethi  %hi(0x4000cc00), %l0
400000a0:	10 80 00 05 	b  400000b4 <__do_global_dtors_aux+0x2c>
400000a4:	c2 04 23 5c 	ld  [ %l0 + 0x35c ], %g1	! 4000cf5c <p.0>
400000a8:	9f c3 40 00 	call  %o5
400000ac:	c2 24 23 5c 	st  %g1, [ %l0 + 0x35c ]
400000b0:	c2 04 23 5c 	ld  [ %l0 + 0x35c ], %g1
400000b4:	da 00 40 00 	ld  [ %g1 ], %o5
400000b8:	80 a3 60 00 	cmp  %o5, 0
400000bc:	12 bf ff fb 	bne  400000a8 <__do_global_dtors_aux+0x20>
400000c0:	82 00 60 04 	add  %g1, 4, %g1
400000c4:	03 00 00 00 	sethi  %hi(0), %g1
400000c8:	82 10 60 00 	mov  %g1, %g1	! 0 <_trap_table-0x40000000>
400000cc:	80 a0 60 00 	cmp  %g1, 0
400000d0:	02 80 00 06 	be  400000e8 <__do_global_dtors_aux+0x60>
400000d4:	82 10 20 01 	mov  1, %g1
400000d8:	11 10 00 31 	sethi  %hi(0x4000c400), %o0
400000dc:	6f ff ff c9 	call  0 <_trap_table-0x40000000>
400000e0:	90 12 22 f0 	or  %o0, 0x2f0, %o0	! 4000c6f0 <__EH_FRAME_BEGIN__>
400000e4:	82 10 20 01 	mov  1, %g1
400000e8:	c2 2c 62 20 	stb  %g1, [ %l1 + 0x220 ]
400000ec:	81 c7 e0 08 	ret 
400000f0:	81 e8 00 00 	restore 

400000f4 <call___do_global_dtors_aux>:
400000f4:	9d e3 bf 98 	save  %sp, -104, %sp
400000f8:	81 c7 e0 08 	ret 
400000fc:	81 e8 00 00 	restore 

40000100 <frame_dummy>:
40000100:	9d e3 bf 98 	save  %sp, -104, %sp
40000104:	03 00 00 00 	sethi  %hi(0), %g1
40000108:	82 10 60 00 	mov  %g1, %g1	! 0 <_trap_table-0x40000000>
4000010c:	11 10 00 31 	sethi  %hi(0x4000c400), %o0
40000110:	13 10 00 36 	sethi  %hi(0x4000d800), %o1
40000114:	80 a0 60 00 	cmp  %g1, 0
40000118:	90 12 22 f0 	or  %o0, 0x2f0, %o0
4000011c:	02 80 00 04 	be  4000012c <frame_dummy+0x2c>
40000120:	92 12 62 24 	or  %o1, 0x224, %o1
40000124:	6f ff ff b7 	call  0 <_trap_table-0x40000000>
40000128:	01 00 00 00 	nop 
4000012c:	1b 10 00 93 	sethi  %hi(0x40024c00), %o5
40000130:	c2 03 63 48 	ld  [ %o5 + 0x348 ], %g1	! 40024f48 <__end>
40000134:	80 a0 60 00 	cmp  %g1, 0
40000138:	02 80 00 09 	be  4000015c <frame_dummy+0x5c>
4000013c:	b0 13 63 48 	or  %o5, 0x348, %i0
40000140:	03 00 00 00 	sethi  %hi(0), %g1
40000144:	82 10 60 00 	mov  %g1, %g1	! 0 <_trap_table-0x40000000>
40000148:	80 a0 60 00 	cmp  %g1, 0
4000014c:	02 80 00 04 	be  4000015c <frame_dummy+0x5c>
40000150:	01 00 00 00 	nop 
40000154:	6f ff ff ab 	call  0 <_trap_table-0x40000000>
40000158:	81 e8 00 00 	restore 
4000015c:	01 00 00 00 	nop 
40000160:	81 c7 e0 08 	ret 
40000164:	81 e8 00 00 	restore 

40000168 <call_frame_dummy>:
40000168:	9d e3 bf 98 	save  %sp, -104, %sp
4000016c:	81 c7 e0 08 	ret 
40000170:	81 e8 00 00 	restore 

40000174 <Getclock>:
40000174:	9d e3 bf 88 	save  %sp, -120, %sp
40000178:	40 00 2d 9b 	call  4000b7e4 <times>
4000017c:	90 07 bf e8 	add  %fp, -24, %o0
40000180:	f0 07 bf e8 	ld  [ %fp + -24 ], %i0
40000184:	03 2a aa aa 	sethi  %hi(0xaaaaa800), %g1
40000188:	b0 5e 20 32 	smul  %i0, 0x32, %i0
4000018c:	82 10 62 ab 	or  %g1, 0x2ab, %g1
40000190:	80 56 00 01 	umul  %i0, %g1, %g0
40000194:	b1 40 00 00 	rd  %y, %i0
40000198:	b1 36 20 01 	srl  %i0, 1, %i0
4000019c:	81 c7 e0 08 	ret 
400001a0:	81 e8 00 00 	restore 

400001a4 <Initrand>:
400001a4:	03 00 00 49 	sethi  %hi(0x12400), %g1
400001a8:	82 10 60 03 	or  %g1, 3, %g1	! 12403 <_trap_table-0x3ffedbfd>
400001ac:	1b 10 00 76 	sethi  %hi(0x4001d800), %o5
400001b0:	81 c3 e0 08 	retl 
400001b4:	c2 23 61 c4 	st  %g1, [ %o5 + 0x1c4 ]	! 4001d9c4 <seed>

400001b8 <Rand>:
400001b8:	19 10 00 76 	sethi  %hi(0x4001d800), %o4
400001bc:	d0 03 21 c4 	ld  [ %o4 + 0x1c4 ], %o0	! 4001d9c4 <seed>
400001c0:	03 00 00 0d 	sethi  %hi(0x3400), %g1
400001c4:	90 5a 25 1d 	smul  %o0, 0x51d, %o0
400001c8:	82 10 62 19 	or  %g1, 0x219, %g1
400001cc:	1b 00 00 3f 	sethi  %hi(0xfc00), %o5
400001d0:	90 02 00 01 	add  %o0, %g1, %o0
400001d4:	9a 13 63 ff 	or  %o5, 0x3ff, %o5
400001d8:	90 0a 00 0d 	and  %o0, %o5, %o0
400001dc:	81 c3 e0 08 	retl 
400001e0:	d0 23 21 c4 	st  %o0, [ %o4 + 0x1c4 ]

400001e4 <Swap>:
400001e4:	da 02 00 00 	ld  [ %o0 ], %o5
400001e8:	c2 02 40 00 	ld  [ %o1 ], %g1
400001ec:	c2 22 00 00 	st  %g1, [ %o0 ]
400001f0:	81 c3 e0 08 	retl 
400001f4:	da 22 40 00 	st  %o5, [ %o1 ]

400001f8 <Initialize>:
400001f8:	03 10 00 60 	sethi  %hi(0x40018000), %g1
400001fc:	96 10 62 b4 	or  %g1, 0x2b4, %o3	! 400182b4 <permarray>
40000200:	98 10 20 01 	mov  1, %o4
40000204:	9b 2b 20 02 	sll  %o4, 2, %o5
40000208:	82 03 3f ff 	add  %o4, -1, %g1
4000020c:	98 03 20 01 	inc  %o4
40000210:	80 a3 20 07 	cmp  %o4, 7
40000214:	04 bf ff fc 	ble  40000204 <Initialize+0xc>
40000218:	c2 22 c0 0d 	st  %g1, [ %o3 + %o5 ]
4000021c:	81 c3 e0 08 	retl 
40000220:	01 00 00 00 	nop 

40000224 <Permute>:
40000224:	9d e3 bf 98 	save  %sp, -104, %sp
40000228:	1b 10 00 58 	sethi  %hi(0x40016000), %o5
4000022c:	c2 03 60 54 	ld  [ %o5 + 0x54 ], %g1	! 40016054 <pctr>
40000230:	82 00 60 01 	inc  %g1
40000234:	80 a6 20 01 	cmp  %i0, 1
40000238:	02 80 00 19 	be  4000029c <Permute+0x78>
4000023c:	c2 23 60 54 	st  %g1, [ %o5 + 0x54 ]
40000240:	a4 06 3f ff 	add  %i0, -1, %l2
40000244:	7f ff ff f8 	call  40000224 <Permute>
40000248:	90 10 00 12 	mov  %l2, %o0
4000024c:	a2 94 a0 00 	orcc  %l2, 0, %l1
40000250:	04 80 00 13 	ble  4000029c <Permute+0x78>
40000254:	03 10 00 60 	sethi  %hi(0x40018000), %g1
40000258:	82 10 62 b4 	or  %g1, 0x2b4, %g1	! 400182b4 <permarray>
4000025c:	99 2e 20 02 	sll  %i0, 2, %o4
40000260:	9b 2c 60 02 	sll  %l1, 2, %o5
40000264:	a0 03 40 01 	add  %o5, %g1, %l0
40000268:	b0 03 00 01 	add  %o4, %g1, %i0
4000026c:	92 10 00 10 	mov  %l0, %o1
40000270:	7f ff ff dd 	call  400001e4 <Swap>
40000274:	90 10 00 18 	mov  %i0, %o0
40000278:	7f ff ff eb 	call  40000224 <Permute>
4000027c:	90 10 00 12 	mov  %l2, %o0
40000280:	92 10 00 10 	mov  %l0, %o1
40000284:	7f ff ff d8 	call  400001e4 <Swap>
40000288:	90 10 00 18 	mov  %i0, %o0
4000028c:	a2 04 7f ff 	add  %l1, -1, %l1
40000290:	80 a4 60 00 	cmp  %l1, 0
40000294:	14 bf ff f6 	bg  4000026c <Permute+0x48>
40000298:	a0 04 3f fc 	add  %l0, -4, %l0
4000029c:	81 c7 e0 08 	ret 
400002a0:	81 e8 00 00 	restore 

400002a4 <Perm>:
400002a4:	9d e3 bf 98 	save  %sp, -104, %sp
400002a8:	21 10 00 58 	sethi  %hi(0x40016000), %l0
400002ac:	c0 24 20 54 	clr  [ %l0 + 0x54 ]	! 40016054 <pctr>
400002b0:	b0 10 20 04 	mov  4, %i0
400002b4:	7f ff ff d1 	call  400001f8 <Initialize>
400002b8:	01 00 00 00 	nop 
400002bc:	7f ff ff da 	call  40000224 <Permute>
400002c0:	90 10 20 07 	mov  7, %o0	! 7 <_trap_table-0x3ffffff9>
400002c4:	b0 86 3f ff 	addcc  %i0, -1, %i0
400002c8:	1c bf ff fb 	bpos  400002b4 <Perm+0x10>
400002cc:	03 00 00 2a 	sethi  %hi(0xa800), %g1
400002d0:	da 04 20 54 	ld  [ %l0 + 0x54 ], %o5
400002d4:	82 10 61 24 	or  %g1, 0x124, %g1
400002d8:	80 a3 40 01 	cmp  %o5, %g1
400002dc:	02 80 00 04 	be  400002ec <Perm+0x48>
400002e0:	11 10 00 31 	sethi  %hi(0x4000c400), %o0
400002e4:	40 00 11 3e 	call  400047dc <puts>
400002e8:	90 12 23 20 	or  %o0, 0x320, %o0	! 4000c720 <___DTOR_END__>
400002ec:	81 c7 e0 08 	ret 
400002f0:	81 e8 00 00 	restore 

400002f4 <Error>:
400002f4:	92 10 00 08 	mov  %o0, %o1
400002f8:	11 10 00 31 	sethi  %hi(0x4000c400), %o0
400002fc:	90 12 23 30 	or  %o0, 0x330, %o0	! 4000c730 <___DTOR_END__+0x10>
40000300:	82 13 c0 00 	mov  %o7, %g1
40000304:	40 00 10 e3 	call  40004690 <printf>
40000308:	9e 10 40 00 	mov  %g1, %o7
4000030c:	01 00 00 00 	nop 

40000310 <Makenull>:
40000310:	03 10 00 60 	sethi  %hi(0x40018000), %g1
40000314:	91 2a 20 02 	sll  %o0, 2, %o0
40000318:	82 10 63 78 	or  %g1, 0x378, %g1
4000031c:	81 c3 e0 08 	retl 
40000320:	c0 20 40 08 	clr  [ %g1 + %o0 ]

40000324 <Getelement>:
40000324:	9d e3 bf 98 	save  %sp, -104, %sp
40000328:	17 10 00 93 	sethi  %hi(0x40024c00), %o3
4000032c:	11 10 00 31 	sethi  %hi(0x4000c400), %o0
40000330:	c2 02 e3 28 	ld  [ %o3 + 0x328 ], %g1
40000334:	80 a0 60 00 	cmp  %g1, 0
40000338:	04 80 00 0a 	ble  40000360 <Getelement+0x3c>
4000033c:	90 12 23 48 	or  %o0, 0x348, %o0
40000340:	b0 10 00 01 	mov  %g1, %i0
40000344:	1b 10 00 60 	sethi  %hi(0x40018000), %o5
40000348:	83 28 60 03 	sll  %g1, 3, %g1
4000034c:	9a 13 62 e0 	or  %o5, 0x2e0, %o5
40000350:	82 00 40 0d 	add  %g1, %o5, %g1
40000354:	d8 00 60 04 	ld  [ %g1 + 4 ], %o4
40000358:	10 80 00 04 	b  40000368 <Getelement+0x44>
4000035c:	d8 22 e3 28 	st  %o4, [ %o3 + 0x328 ]
40000360:	7f ff ff e5 	call  400002f4 <Error>
40000364:	01 00 00 00 	nop 
40000368:	01 00 00 00 	nop 
4000036c:	81 c7 e0 08 	ret 
40000370:	81 e8 00 00 	restore 

40000374 <Push>:
40000374:	9d e3 bf 98 	save  %sp, -104, %sp
40000378:	21 10 00 60 	sethi  %hi(0x40018000), %l0
4000037c:	b3 2e 60 02 	sll  %i1, 2, %i1
40000380:	82 14 23 78 	or  %l0, 0x378, %g1
40000384:	da 00 40 19 	ld  [ %g1 + %i1 ], %o5
40000388:	80 a3 60 00 	cmp  %o5, 0
4000038c:	04 80 00 09 	ble  400003b0 <Push+0x3c>
40000390:	99 2b 60 03 	sll  %o5, 3, %o4
40000394:	03 10 00 60 	sethi  %hi(0x40018000), %g1
40000398:	82 10 62 e0 	or  %g1, 0x2e0, %g1	! 400182e0 <cellspace>
4000039c:	da 00 40 0c 	ld  [ %g1 + %o4 ], %o5
400003a0:	11 10 00 31 	sethi  %hi(0x4000c400), %o0
400003a4:	80 a3 40 18 	cmp  %o5, %i0
400003a8:	04 80 00 0e 	ble  400003e0 <Push+0x6c>
400003ac:	90 12 23 58 	or  %o0, 0x358, %o0
400003b0:	7f ff ff dd 	call  40000324 <Getelement>
400003b4:	01 00 00 00 	nop 
400003b8:	9a 14 23 78 	or  %l0, 0x378, %o5
400003bc:	03 10 00 60 	sethi  %hi(0x40018000), %g1
400003c0:	d4 03 40 19 	ld  [ %o5 + %i1 ], %o2
400003c4:	82 10 62 e0 	or  %g1, 0x2e0, %g1
400003c8:	99 2a 20 03 	sll  %o0, 3, %o4
400003cc:	d0 23 40 19 	st  %o0, [ %o5 + %i1 ]
400003d0:	96 03 00 01 	add  %o4, %g1, %o3
400003d4:	f0 20 40 0c 	st  %i0, [ %g1 + %o4 ]
400003d8:	10 80 00 04 	b  400003e8 <Push+0x74>
400003dc:	d4 22 e0 04 	st  %o2, [ %o3 + 4 ]
400003e0:	7f ff ff c5 	call  400002f4 <Error>
400003e4:	01 00 00 00 	nop 
400003e8:	81 c7 e0 08 	ret 
400003ec:	81 e8 00 00 	restore 

400003f0 <Init>:
400003f0:	9d e3 bf 98 	save  %sp, -104, %sp
400003f4:	7f ff ff c7 	call  40000310 <Makenull>
400003f8:	90 10 00 18 	mov  %i0, %o0
400003fc:	10 80 00 06 	b  40000414 <Init+0x24>
40000400:	80 a6 60 00 	cmp  %i1, 0
40000404:	7f ff ff dc 	call  40000374 <Push>
40000408:	92 10 00 18 	mov  %i0, %o1
4000040c:	b2 06 7f ff 	add  %i1, -1, %i1
40000410:	80 a6 60 00 	cmp  %i1, 0
40000414:	14 bf ff fc 	bg  40000404 <Init+0x14>
40000418:	90 10 00 19 	mov  %i1, %o0
4000041c:	81 c7 e0 08 	ret 
40000420:	81 e8 00 00 	restore 

40000424 <Pop>:
40000424:	9d e3 bf 98 	save  %sp, -104, %sp
40000428:	03 10 00 60 	sethi  %hi(0x40018000), %g1
4000042c:	a0 10 62 e0 	or  %g1, 0x2e0, %l0	! 400182e0 <cellspace>
40000430:	03 10 00 60 	sethi  %hi(0x40018000), %g1
40000434:	b1 2e 20 02 	sll  %i0, 2, %i0
40000438:	92 10 63 78 	or  %g1, 0x378, %o1
4000043c:	d6 02 40 18 	ld  [ %o1 + %i0 ], %o3
40000440:	99 2a e0 03 	sll  %o3, 3, %o4
40000444:	11 10 00 31 	sethi  %hi(0x4000c400), %o0
40000448:	1f 10 00 93 	sethi  %hi(0x40024c00), %o7
4000044c:	94 03 00 10 	add  %o4, %l0, %o2
40000450:	80 a2 e0 00 	cmp  %o3, 0
40000454:	04 80 00 09 	ble  40000478 <Pop+0x54>
40000458:	90 12 23 68 	or  %o0, 0x368, %o0
4000045c:	c2 02 a0 04 	ld  [ %o2 + 4 ], %g1
40000460:	d8 04 00 0c 	ld  [ %l0 + %o4 ], %o4
40000464:	da 03 e3 28 	ld  [ %o7 + 0x328 ], %o5
40000468:	c2 22 40 18 	st  %g1, [ %o1 + %i0 ]
4000046c:	da 22 a0 04 	st  %o5, [ %o2 + 4 ]
40000470:	10 80 00 04 	b  40000480 <Pop+0x5c>
40000474:	d6 23 e3 28 	st  %o3, [ %o7 + 0x328 ]
40000478:	7f ff ff 9f 	call  400002f4 <Error>
4000047c:	01 00 00 00 	nop 
40000480:	81 c7 e0 08 	ret 
40000484:	91 e8 00 0c 	restore  %g0, %o4, %o0

40000488 <Move>:
40000488:	9d e3 bf 98 	save  %sp, -104, %sp
4000048c:	7f ff ff e6 	call  40000424 <Pop>
40000490:	90 10 00 18 	mov  %i0, %o0
40000494:	7f ff ff b8 	call  40000374 <Push>
40000498:	92 10 00 19 	mov  %i1, %o1
4000049c:	1b 10 00 58 	sethi  %hi(0x40016000), %o5
400004a0:	c2 03 60 20 	ld  [ %o5 + 0x20 ], %g1	! 40016020 <movesdone>
400004a4:	82 00 60 01 	inc  %g1
400004a8:	c2 23 60 20 	st  %g1, [ %o5 + 0x20 ]
400004ac:	81 c7 e0 08 	ret 
400004b0:	81 e8 00 00 	restore 

400004b4 <tower>:
400004b4:	9d e3 bf 98 	save  %sp, -104, %sp
400004b8:	82 20 00 18 	neg  %i0, %g1
400004bc:	82 20 40 19 	sub  %g1, %i1, %g1
400004c0:	a2 06 bf ff 	add  %i2, -1, %l1
400004c4:	a0 00 60 06 	add  %g1, 6, %l0
400004c8:	94 10 00 11 	mov  %l1, %o2
400004cc:	90 10 00 18 	mov  %i0, %o0
400004d0:	80 a6 a0 01 	cmp  %i2, 1
400004d4:	02 80 00 0c 	be  40000504 <tower+0x50>
400004d8:	92 10 00 10 	mov  %l0, %o1
400004dc:	7f ff ff f6 	call  400004b4 <tower>
400004e0:	01 00 00 00 	nop 
400004e4:	92 10 00 19 	mov  %i1, %o1
400004e8:	7f ff ff e8 	call  40000488 <Move>
400004ec:	90 10 00 18 	mov  %i0, %o0
400004f0:	90 10 00 10 	mov  %l0, %o0
400004f4:	92 10 00 19 	mov  %i1, %o1
400004f8:	7f ff ff ef 	call  400004b4 <tower>
400004fc:	94 10 00 11 	mov  %l1, %o2
40000500:	30 80 00 03 	b,a   4000050c <tower+0x58>
40000504:	7f ff ff e1 	call  40000488 <Move>
40000508:	92 10 00 19 	mov  %i1, %o1
4000050c:	81 c7 e0 08 	ret 
40000510:	81 e8 00 00 	restore 

40000514 <Towers>:
40000514:	9d e3 bf 98 	save  %sp, -104, %sp
40000518:	03 10 00 60 	sethi  %hi(0x40018000), %g1
4000051c:	82 10 62 e0 	or  %g1, 0x2e0, %g1	! 400182e0 <cellspace>
40000520:	98 00 60 0c 	add  %g1, 0xc, %o4
40000524:	9a 10 20 01 	mov  1, %o5
40000528:	82 03 7f ff 	add  %o5, -1, %g1
4000052c:	c2 23 00 00 	st  %g1, [ %o4 ]
40000530:	9a 03 60 01 	inc  %o5
40000534:	80 a3 60 12 	cmp  %o5, 0x12
40000538:	04 bf ff fc 	ble  40000528 <Towers+0x14>
4000053c:	98 03 20 08 	add  %o4, 8, %o4
40000540:	9a 10 20 12 	mov  0x12, %o5
40000544:	03 10 00 93 	sethi  %hi(0x40024c00), %g1
40000548:	da 20 63 28 	st  %o5, [ %g1 + 0x328 ]	! 40024f28 <freelist>
4000054c:	92 10 20 0e 	mov  0xe, %o1
40000550:	7f ff ff a8 	call  400003f0 <Init>
40000554:	90 10 20 01 	mov  1, %o0
40000558:	7f ff ff 6e 	call  40000310 <Makenull>
4000055c:	90 10 20 02 	mov  2, %o0
40000560:	7f ff ff 6c 	call  40000310 <Makenull>
40000564:	90 10 20 03 	mov  3, %o0
40000568:	21 10 00 58 	sethi  %hi(0x40016000), %l0
4000056c:	c0 24 20 20 	clr  [ %l0 + 0x20 ]	! 40016020 <movesdone>
40000570:	90 10 20 01 	mov  1, %o0
40000574:	92 10 20 02 	mov  2, %o1
40000578:	7f ff ff cf 	call  400004b4 <tower>
4000057c:	94 10 20 0e 	mov  0xe, %o2
40000580:	03 00 00 0f 	sethi  %hi(0x3c00), %g1
40000584:	da 04 20 20 	ld  [ %l0 + 0x20 ], %o5
40000588:	82 10 63 ff 	or  %g1, 0x3ff, %g1
4000058c:	80 a3 40 01 	cmp  %o5, %g1
40000590:	02 80 00 04 	be  400005a0 <Towers+0x8c>
40000594:	11 10 00 31 	sethi  %hi(0x4000c400), %o0
40000598:	40 00 10 91 	call  400047dc <puts>
4000059c:	90 12 23 78 	or  %o0, 0x378, %o0	! 4000c778 <___DTOR_END__+0x58>
400005a0:	81 c7 e0 08 	ret 
400005a4:	81 e8 00 00 	restore 

400005a8 <Try>:
400005a8:	9d e3 bf 98 	save  %sp, -104, %sp
400005ac:	83 2e 20 02 	sll  %i0, 2, %g1
400005b0:	a2 10 00 01 	mov  %g1, %l1
400005b4:	a6 10 20 00 	clr  %l3
400005b8:	a8 10 20 01 	mov  1, %l4
400005bc:	a4 00 40 1c 	add  %g1, %i4, %l2
400005c0:	a6 04 e0 01 	inc  %l3
400005c4:	c0 26 40 00 	clr  [ %i1 ]
400005c8:	a1 2c e0 02 	sll  %l3, 2, %l0
400005cc:	c2 06 c0 10 	ld  [ %i3 + %l0 ], %g1
400005d0:	80 a0 60 00 	cmp  %g1, 0
400005d4:	a2 04 60 04 	add  %l1, 4, %l1
400005d8:	a4 04 bf fc 	add  %l2, -4, %l2
400005dc:	02 80 00 19 	be  40000640 <Try+0x98>
400005e0:	82 10 20 00 	clr  %g1
400005e4:	c2 04 40 1a 	ld  [ %l1 + %i2 ], %g1
400005e8:	80 a0 60 00 	cmp  %g1, 0
400005ec:	02 80 00 15 	be  40000640 <Try+0x98>
400005f0:	82 10 20 00 	clr  %g1
400005f4:	c2 04 a0 1c 	ld  [ %l2 + 0x1c ], %g1
400005f8:	80 a0 60 00 	cmp  %g1, 0
400005fc:	9b 2e 20 02 	sll  %i0, 2, %o5
40000600:	02 80 00 10 	be  40000640 <Try+0x98>
40000604:	82 10 20 00 	clr  %g1
40000608:	e6 27 40 0d 	st  %l3, [ %i5 + %o5 ]
4000060c:	c0 26 c0 10 	clr  [ %i3 + %l0 ]
40000610:	c0 24 40 1a 	clr  [ %l1 + %i2 ]
40000614:	90 06 20 01 	add  %i0, 1, %o0
40000618:	92 10 00 19 	mov  %i1, %o1
4000061c:	94 10 00 1a 	mov  %i2, %o2
40000620:	96 10 00 1b 	mov  %i3, %o3
40000624:	98 10 00 1c 	mov  %i4, %o4
40000628:	9a 10 00 1d 	mov  %i5, %o5
4000062c:	80 a6 20 07 	cmp  %i0, 7
40000630:	04 80 00 0d 	ble  40000664 <Try+0xbc>
40000634:	c0 24 a0 1c 	clr  [ %l2 + 0x1c ]
40000638:	e8 26 40 00 	st  %l4, [ %i1 ]
4000063c:	82 10 20 01 	mov  1, %g1
40000640:	80 a0 00 01 	cmp  %g0, %g1
40000644:	82 60 3f ff 	subx  %g0, -1, %g1
40000648:	9a 1c e0 08 	xor  %l3, 8, %o5
4000064c:	80 a0 00 0d 	cmp  %g0, %o5
40000650:	98 40 20 00 	addx  %g0, 0, %o4
40000654:	80 88 40 0c 	btst  %g1, %o4
40000658:	32 bf ff db 	bne,a   400005c4 <Try+0x1c>
4000065c:	a6 04 e0 01 	inc  %l3
40000660:	30 80 00 0c 	b,a   40000690 <Try+0xe8>
40000664:	7f ff ff d1 	call  400005a8 <Try>
40000668:	01 00 00 00 	nop 
4000066c:	c2 06 40 00 	ld  [ %i1 ], %g1
40000670:	80 a0 60 00 	cmp  %g1, 0
40000674:	12 bf ff f4 	bne  40000644 <Try+0x9c>
40000678:	80 a0 00 01 	cmp  %g0, %g1
4000067c:	e8 26 c0 10 	st  %l4, [ %i3 + %l0 ]
40000680:	e8 24 40 1a 	st  %l4, [ %l1 + %i2 ]
40000684:	e8 24 a0 1c 	st  %l4, [ %l2 + 0x1c ]
40000688:	10 bf ff ee 	b  40000640 <Try+0x98>
4000068c:	c2 06 40 00 	ld  [ %i1 ], %g1
40000690:	81 c7 e0 08 	ret 
40000694:	81 e8 00 00 	restore 

40000698 <Doit>:
40000698:	9d e3 be b8 	save  %sp, -328, %sp
4000069c:	9a 10 3f f9 	mov  -7, %o5
400006a0:	96 10 20 01 	mov  1, %o3
400006a4:	98 07 bf 48 	add  %fp, -184, %o4
400006a8:	82 03 7f ff 	add  %o5, -1, %g1
400006ac:	80 a0 60 07 	cmp  %g1, 7
400006b0:	28 80 00 02 	bleu,a   400006b8 <Doit+0x20>
400006b4:	d6 23 20 6c 	st  %o3, [ %o4 + 0x6c ]
400006b8:	80 a3 60 01 	cmp  %o5, 1
400006bc:	34 80 00 02 	bg,a   400006c4 <Doit+0x2c>
400006c0:	d6 23 20 24 	st  %o3, [ %o4 + 0x24 ]
400006c4:	80 a3 60 07 	cmp  %o5, 7
400006c8:	14 80 00 03 	bg  400006d4 <Doit+0x3c>
400006cc:	9a 03 60 01 	inc  %o5
400006d0:	d6 23 00 00 	st  %o3, [ %o4 ]
400006d4:	80 a3 60 10 	cmp  %o5, 0x10
400006d8:	04 bf ff f4 	ble  400006a8 <Doit+0x10>
400006dc:	98 03 20 04 	add  %o4, 4, %o4
400006e0:	90 10 20 01 	mov  1, %o0
400006e4:	92 07 bf 1c 	add  %fp, -228, %o1
400006e8:	94 07 bf 88 	add  %fp, -120, %o2
400006ec:	96 07 bf d0 	add  %fp, -48, %o3
400006f0:	98 07 bf 48 	add  %fp, -184, %o4
400006f4:	7f ff ff ad 	call  400005a8 <Try>
400006f8:	9a 07 bf 20 	add  %fp, -224, %o5
400006fc:	c2 07 bf 1c 	ld  [ %fp + -228 ], %g1
40000700:	80 a0 60 00 	cmp  %g1, 0
40000704:	12 80 00 04 	bne  40000714 <Doit+0x7c>
40000708:	11 10 00 31 	sethi  %hi(0x4000c400), %o0
4000070c:	40 00 10 34 	call  400047dc <puts>
40000710:	90 12 23 90 	or  %o0, 0x390, %o0	! 4000c790 <___DTOR_END__+0x70>
40000714:	81 c7 e0 08 	ret 
40000718:	81 e8 00 00 	restore 

4000071c <Queens>:
4000071c:	9d e3 bf 98 	save  %sp, -104, %sp
40000720:	b0 10 20 31 	mov  0x31, %i0
40000724:	7f ff ff dd 	call  40000698 <Doit>
40000728:	01 00 00 00 	nop 
4000072c:	b0 86 3f ff 	addcc  %i0, -1, %i0
40000730:	1c bf ff fd 	bpos  40000724 <Queens+0x8>
40000734:	01 00 00 00 	nop 
40000738:	81 c7 e0 08 	ret 
4000073c:	81 e8 00 00 	restore 

40000740 <Initmatrix>:
40000740:	9d e3 bf 98 	save  %sp, -104, %sp
40000744:	03 22 22 22 	sethi  %hi(0x88888800), %g1
40000748:	a4 10 60 89 	or  %g1, 0x89, %l2	! 88888889 <LEON_REG+0x8888889>
4000074c:	a6 10 20 01 	mov  1, %l3
40000750:	a8 10 20 24 	mov  0x24, %l4
40000754:	83 2c e0 07 	sll  %l3, 7, %g1
40000758:	82 00 40 14 	add  %g1, %l4, %g1
4000075c:	82 00 40 18 	add  %g1, %i0, %g1
40000760:	a0 00 60 04 	add  %g1, 4, %l0
40000764:	a2 10 20 27 	mov  0x27, %l1
40000768:	7f ff fe 94 	call  400001b8 <Rand>
4000076c:	01 00 00 00 	nop 
40000770:	80 5a 00 12 	smul  %o0, %l2, %g0
40000774:	83 40 00 00 	rd  %y, %g1
40000778:	82 00 40 08 	add  %g1, %o0, %g1
4000077c:	99 3a 20 1f 	sra  %o0, 0x1f, %o4
40000780:	83 38 60 06 	sra  %g1, 6, %g1
40000784:	82 20 40 0c 	sub  %g1, %o4, %g1
40000788:	9b 28 60 04 	sll  %g1, 4, %o5
4000078c:	9a 23 40 01 	sub  %o5, %g1, %o5
40000790:	9b 2b 60 03 	sll  %o5, 3, %o5
40000794:	90 22 00 0d 	sub  %o0, %o5, %o0
40000798:	90 02 3f c4 	add  %o0, -60, %o0
4000079c:	d0 24 00 00 	st  %o0, [ %l0 ]
400007a0:	a2 84 7f ff 	addcc  %l1, -1, %l1
400007a4:	1c bf ff f1 	bpos  40000768 <Initmatrix+0x28>
400007a8:	a0 04 20 04 	add  %l0, 4, %l0
400007ac:	a6 04 e0 01 	inc  %l3
400007b0:	80 a4 e0 28 	cmp  %l3, 0x28
400007b4:	04 bf ff e8 	ble  40000754 <Initmatrix+0x14>
400007b8:	a8 05 20 24 	add  %l4, 0x24, %l4
400007bc:	81 c7 e0 08 	ret 
400007c0:	81 e8 00 00 	restore 

400007c4 <Innerproduct>:
400007c4:	83 2a e0 03 	sll  %o3, 3, %g1
400007c8:	82 00 40 0b 	add  %g1, %o3, %g1
400007cc:	83 28 60 02 	sll  %g1, 2, %g1
400007d0:	97 2a e0 07 	sll  %o3, 7, %o3
400007d4:	96 02 c0 01 	add  %o3, %g1, %o3
400007d8:	99 2b 20 02 	sll  %o4, 2, %o4
400007dc:	96 02 c0 09 	add  %o3, %o1, %o3
400007e0:	98 03 00 0a 	add  %o4, %o2, %o4
400007e4:	c0 22 00 00 	clr  [ %o0 ]
400007e8:	94 03 20 a4 	add  %o4, 0xa4, %o2
400007ec:	96 02 e0 04 	add  %o3, 4, %o3
400007f0:	92 10 20 27 	mov  0x27, %o1
400007f4:	c2 02 c0 00 	ld  [ %o3 ], %g1
400007f8:	d8 02 80 00 	ld  [ %o2 ], %o4
400007fc:	da 02 00 00 	ld  [ %o0 ], %o5
40000800:	82 58 40 0c 	smul  %g1, %o4, %g1
40000804:	9a 03 40 01 	add  %o5, %g1, %o5
40000808:	da 22 00 00 	st  %o5, [ %o0 ]
4000080c:	96 02 e0 04 	add  %o3, 4, %o3
40000810:	92 82 7f ff 	addcc  %o1, -1, %o1
40000814:	1c bf ff f8 	bpos  400007f4 <Innerproduct+0x30>
40000818:	94 02 a0 a4 	add  %o2, 0xa4, %o2
4000081c:	81 c3 e0 08 	retl 
40000820:	01 00 00 00 	nop 

40000824 <Intmm>:
40000824:	9d e3 bf 98 	save  %sp, -104, %sp
40000828:	7f ff fe 5f 	call  400001a4 <Initrand>
4000082c:	29 10 00 76 	sethi  %hi(0x4001d800), %l4
40000830:	7f ff ff c4 	call  40000740 <Initmatrix>
40000834:	90 15 21 c8 	or  %l4, 0x1c8, %o0	! 4001d9c8 <ima>
40000838:	27 10 00 7d 	sethi  %hi(0x4001f400), %l3
4000083c:	7f ff ff c1 	call  40000740 <Initmatrix>
40000840:	90 14 e0 0c 	or  %l3, 0xc, %o0	! 4001f40c <imb>
40000844:	03 10 00 85 	sethi  %hi(0x40021400), %g1
40000848:	a4 10 62 8c 	or  %g1, 0x28c, %l2	! 4002168c <imr>
4000084c:	a2 10 20 01 	mov  1, %l1
40000850:	aa 10 20 24 	mov  0x24, %l5
40000854:	83 2c 60 07 	sll  %l1, 7, %g1
40000858:	82 00 40 15 	add  %g1, %l5, %g1
4000085c:	b0 00 60 04 	add  %g1, 4, %i0
40000860:	a0 10 20 01 	mov  1, %l0
40000864:	90 06 00 12 	add  %i0, %l2, %o0
40000868:	98 10 00 10 	mov  %l0, %o4
4000086c:	92 15 21 c8 	or  %l4, 0x1c8, %o1
40000870:	94 14 e0 0c 	or  %l3, 0xc, %o2
40000874:	7f ff ff d4 	call  400007c4 <Innerproduct>
40000878:	96 10 00 11 	mov  %l1, %o3
4000087c:	a0 04 20 01 	inc  %l0
40000880:	80 a4 20 28 	cmp  %l0, 0x28
40000884:	04 bf ff f8 	ble  40000864 <Intmm+0x40>
40000888:	b0 06 20 04 	add  %i0, 4, %i0
4000088c:	a2 04 60 01 	inc  %l1
40000890:	80 a4 60 28 	cmp  %l1, 0x28
40000894:	04 bf ff f0 	ble  40000854 <Intmm+0x30>
40000898:	aa 05 60 24 	add  %l5, 0x24, %l5
4000089c:	81 c7 e0 08 	ret 
400008a0:	81 e8 00 00 	restore 

400008a4 <rInitmatrix>:
400008a4:	9d e3 bf 98 	save  %sp, -104, %sp
400008a8:	03 22 22 22 	sethi  %hi(0x88888800), %g1
400008ac:	1b 15 55 55 	sethi  %hi(0x55555400), %o5
400008b0:	a6 10 60 89 	or  %g1, 0x89, %l3
400008b4:	a4 13 61 56 	or  %o5, 0x156, %l2
400008b8:	a8 10 20 01 	mov  1, %l4
400008bc:	aa 10 20 24 	mov  0x24, %l5
400008c0:	83 2d 20 07 	sll  %l4, 7, %g1
400008c4:	82 00 40 15 	add  %g1, %l5, %g1
400008c8:	82 00 40 18 	add  %g1, %i0, %g1
400008cc:	a0 00 60 04 	add  %g1, 4, %l0
400008d0:	a2 10 20 27 	mov  0x27, %l1
400008d4:	7f ff fe 39 	call  400001b8 <Rand>
400008d8:	01 00 00 00 	nop 
400008dc:	80 5a 00 13 	smul  %o0, %l3, %g0
400008e0:	83 40 00 00 	rd  %y, %g1
400008e4:	82 00 40 08 	add  %g1, %o0, %g1
400008e8:	99 3a 20 1f 	sra  %o0, 0x1f, %o4
400008ec:	83 38 60 06 	sra  %g1, 6, %g1
400008f0:	82 20 40 0c 	sub  %g1, %o4, %g1
400008f4:	9b 28 60 04 	sll  %g1, 4, %o5
400008f8:	9a 23 40 01 	sub  %o5, %g1, %o5
400008fc:	9b 2b 60 03 	sll  %o5, 3, %o5
40000900:	90 22 00 0d 	sub  %o0, %o5, %o0
40000904:	90 02 3f c4 	add  %o0, -60, %o0
40000908:	83 3a 20 1f 	sra  %o0, 0x1f, %g1
4000090c:	80 5a 00 12 	smul  %o0, %l2, %g0
40000910:	91 40 00 00 	rd  %y, %o0
40000914:	40 00 09 2e 	call  40002dcc <__floatsisf>
40000918:	90 22 00 01 	sub  %o0, %g1, %o0
4000091c:	d0 24 00 00 	st  %o0, [ %l0 ]
40000920:	a2 84 7f ff 	addcc  %l1, -1, %l1
40000924:	1c bf ff ec 	bpos  400008d4 <rInitmatrix+0x30>
40000928:	a0 04 20 04 	add  %l0, 4, %l0
4000092c:	a8 05 20 01 	inc  %l4
40000930:	80 a5 20 28 	cmp  %l4, 0x28
40000934:	04 bf ff e3 	ble  400008c0 <rInitmatrix+0x1c>
40000938:	aa 05 60 24 	add  %l5, 0x24, %l5
4000093c:	81 c7 e0 08 	ret 
40000940:	81 e8 00 00 	restore 

40000944 <rInnerproduct>:
40000944:	9d e3 bf 98 	save  %sp, -104, %sp
40000948:	83 2e e0 03 	sll  %i3, 3, %g1
4000094c:	82 00 40 1b 	add  %g1, %i3, %g1
40000950:	83 28 60 02 	sll  %g1, 2, %g1
40000954:	b7 2e e0 07 	sll  %i3, 7, %i3
40000958:	b6 06 c0 01 	add  %i3, %g1, %i3
4000095c:	b6 06 c0 19 	add  %i3, %i1, %i3
40000960:	b9 2f 20 02 	sll  %i4, 2, %i4
40000964:	03 10 00 32 	sethi  %hi(0x4000c800), %g1
40000968:	b8 07 00 1a 	add  %i4, %i2, %i4
4000096c:	f2 00 62 94 	ld  [ %g1 + 0x294 ], %i1
40000970:	f2 26 00 00 	st  %i1, [ %i0 ]
40000974:	b8 07 20 a4 	add  %i4, 0xa4, %i4
40000978:	b6 06 e0 04 	add  %i3, 4, %i3
4000097c:	b4 10 20 27 	mov  0x27, %i2
40000980:	d2 07 00 00 	ld  [ %i4 ], %o1
40000984:	40 00 08 43 	call  40002a90 <__mulsf3>
40000988:	d0 06 c0 00 	ld  [ %i3 ], %o0
4000098c:	92 10 00 08 	mov  %o0, %o1
40000990:	40 00 08 17 	call  400029ec <__addsf3>
40000994:	90 10 00 19 	mov  %i1, %o0
40000998:	b2 10 00 08 	mov  %o0, %i1
4000099c:	d0 26 00 00 	st  %o0, [ %i0 ]
400009a0:	b6 06 e0 04 	add  %i3, 4, %i3
400009a4:	b4 86 bf ff 	addcc  %i2, -1, %i2
400009a8:	1c bf ff f6 	bpos  40000980 <rInnerproduct+0x3c>
400009ac:	b8 07 20 a4 	add  %i4, 0xa4, %i4
400009b0:	81 c7 e0 08 	ret 
400009b4:	81 e8 00 00 	restore 

400009b8 <Mm>:
400009b8:	9d e3 bf 98 	save  %sp, -104, %sp
400009bc:	7f ff fd fa 	call  400001a4 <Initrand>
400009c0:	29 10 00 51 	sethi  %hi(0x40014400), %l4
400009c4:	7f ff ff b8 	call  400008a4 <rInitmatrix>
400009c8:	90 15 21 d4 	or  %l4, 0x1d4, %o0	! 400145d4 <rma>
400009cc:	27 10 00 58 	sethi  %hi(0x40016000), %l3
400009d0:	7f ff ff b5 	call  400008a4 <rInitmatrix>
400009d4:	90 14 e0 58 	or  %l3, 0x58, %o0	! 40016058 <rmb>
400009d8:	03 10 00 8d 	sethi  %hi(0x40023400), %g1
400009dc:	a4 10 60 e0 	or  %g1, 0xe0, %l2	! 400234e0 <rmr>
400009e0:	a2 10 20 01 	mov  1, %l1
400009e4:	aa 10 20 24 	mov  0x24, %l5
400009e8:	83 2c 60 07 	sll  %l1, 7, %g1
400009ec:	82 00 40 15 	add  %g1, %l5, %g1
400009f0:	b0 00 60 04 	add  %g1, 4, %i0
400009f4:	a0 10 20 01 	mov  1, %l0
400009f8:	90 06 00 12 	add  %i0, %l2, %o0
400009fc:	98 10 00 10 	mov  %l0, %o4
40000a00:	92 15 21 d4 	or  %l4, 0x1d4, %o1
40000a04:	94 14 e0 58 	or  %l3, 0x58, %o2
40000a08:	7f ff ff cf 	call  40000944 <rInnerproduct>
40000a0c:	96 10 00 11 	mov  %l1, %o3
40000a10:	a0 04 20 01 	inc  %l0
40000a14:	80 a4 20 28 	cmp  %l0, 0x28
40000a18:	04 bf ff f8 	ble  400009f8 <Mm+0x40>
40000a1c:	b0 06 20 04 	add  %i0, 4, %i0
40000a20:	a2 04 60 01 	inc  %l1
40000a24:	80 a4 60 28 	cmp  %l1, 0x28
40000a28:	04 bf ff f0 	ble  400009e8 <Mm+0x30>
40000a2c:	aa 05 60 24 	add  %l5, 0x24, %l5
40000a30:	81 c7 e0 08 	ret 
40000a34:	81 e8 00 00 	restore 

40000a38 <Fit>:
40000a38:	9d e3 bf 98 	save  %sp, -104, %sp
40000a3c:	03 10 00 37 	sethi  %hi(0x4000dc00), %g1
40000a40:	bb 2e 20 02 	sll  %i0, 2, %i5
40000a44:	82 10 61 9c 	or  %g1, 0x19c, %g1
40000a48:	de 00 40 1d 	ld  [ %g1 + %i5 ], %o7
40000a4c:	80 a3 e0 00 	cmp  %o7, 0
40000a50:	06 80 00 17 	bl  40000aac <Fit+0x74>
40000a54:	b4 10 20 00 	clr  %i2
40000a58:	3b 10 00 37 	sethi  %hi(0x4000dc00), %i5
40000a5c:	ba 17 61 d4 	or  %i5, 0x1d4, %i5	! 4000ddd4 <p>
40000a60:	b7 2e 20 0b 	sll  %i0, 0xb, %i3
40000a64:	03 10 00 83 	sethi  %hi(0x40020c00), %g1
40000a68:	b9 2e 60 02 	sll  %i1, 2, %i4
40000a6c:	82 10 62 88 	or  %g1, 0x288, %g1
40000a70:	b0 06 c0 1d 	add  %i3, %i5, %i0
40000a74:	b2 07 00 01 	add  %i4, %g1, %i1
40000a78:	ba 10 00 0f 	mov  %o7, %i5
40000a7c:	c2 06 00 00 	ld  [ %i0 ], %g1
40000a80:	b4 06 a0 01 	inc  %i2
40000a84:	80 a0 60 00 	cmp  %g1, 0
40000a88:	02 80 00 06 	be  40000aa0 <Fit+0x68>
40000a8c:	b0 06 20 04 	add  %i0, 4, %i0
40000a90:	c2 06 40 00 	ld  [ %i1 ], %g1
40000a94:	80 a0 60 00 	cmp  %g1, 0
40000a98:	32 80 00 06 	bne,a   40000ab0 <Fit+0x78>
40000a9c:	b0 10 20 00 	clr  %i0
40000aa0:	80 a7 40 1a 	cmp  %i5, %i2
40000aa4:	16 bf ff f6 	bge  40000a7c <Fit+0x44>
40000aa8:	b2 06 60 04 	add  %i1, 4, %i1
40000aac:	b0 10 20 01 	mov  1, %i0
40000ab0:	81 c7 e0 08 	ret 
40000ab4:	81 e8 00 00 	restore 

40000ab8 <Place>:
40000ab8:	9d e3 bf 98 	save  %sp, -104, %sp
40000abc:	03 10 00 37 	sethi  %hi(0x4000dc00), %g1
40000ac0:	9f 2e 20 02 	sll  %i0, 2, %o7
40000ac4:	82 10 61 9c 	or  %g1, 0x19c, %g1
40000ac8:	f4 00 40 0f 	ld  [ %g1 + %o7 ], %i2
40000acc:	80 a6 a0 00 	cmp  %i2, 0
40000ad0:	06 80 00 13 	bl  40000b1c <Place+0x64>
40000ad4:	3b 10 00 37 	sethi  %hi(0x4000dc00), %i5
40000ad8:	b7 2e 20 0b 	sll  %i0, 0xb, %i3
40000adc:	ba 17 61 d4 	or  %i5, 0x1d4, %i5
40000ae0:	03 10 00 83 	sethi  %hi(0x40020c00), %g1
40000ae4:	b9 2e 60 02 	sll  %i1, 2, %i4
40000ae8:	82 10 62 88 	or  %g1, 0x288, %g1
40000aec:	b6 06 c0 1d 	add  %i3, %i5, %i3
40000af0:	b8 07 00 01 	add  %i4, %g1, %i4
40000af4:	b0 06 a0 01 	add  %i2, 1, %i0
40000af8:	ba 10 20 01 	mov  1, %i5
40000afc:	c2 06 c0 00 	ld  [ %i3 ], %g1
40000b00:	80 a0 60 00 	cmp  %g1, 0
40000b04:	02 80 00 03 	be  40000b10 <Place+0x58>
40000b08:	b6 06 e0 04 	add  %i3, 4, %i3
40000b0c:	fa 27 00 00 	st  %i5, [ %i4 ]
40000b10:	b0 86 3f ff 	addcc  %i0, -1, %i0
40000b14:	12 bf ff fa 	bne  40000afc <Place+0x44>
40000b18:	b8 07 20 04 	add  %i4, 4, %i4
40000b1c:	03 10 00 83 	sethi  %hi(0x40020c00), %g1
40000b20:	82 10 62 54 	or  %g1, 0x254, %g1	! 40020e54 <class>
40000b24:	f8 00 40 0f 	ld  [ %g1 + %o7 ], %i4
40000b28:	3b 10 00 60 	sethi  %hi(0x40018000), %i5
40000b2c:	ba 17 62 a4 	or  %i5, 0x2a4, %i5	! 400182a4 <piececount>
40000b30:	b9 2f 20 02 	sll  %i4, 2, %i4
40000b34:	c2 07 40 1c 	ld  [ %i5 + %i4 ], %g1
40000b38:	82 00 7f ff 	add  %g1, -1, %g1
40000b3c:	b0 10 00 19 	mov  %i1, %i0
40000b40:	80 a6 61 ff 	cmp  %i1, 0x1ff
40000b44:	14 80 00 0d 	bg  40000b78 <Place+0xc0>
40000b48:	c2 27 40 1c 	st  %g1, [ %i5 + %i4 ]
40000b4c:	03 10 00 83 	sethi  %hi(0x40020c00), %g1
40000b50:	b8 10 62 88 	or  %g1, 0x288, %i4	! 40020e88 <puzzl>
40000b54:	83 2e 20 02 	sll  %i0, 2, %g1
40000b58:	fa 07 00 01 	ld  [ %i4 + %g1 ], %i5
40000b5c:	80 a7 60 00 	cmp  %i5, 0
40000b60:	02 80 00 07 	be  40000b7c <Place+0xc4>
40000b64:	01 00 00 00 	nop 
40000b68:	b0 06 20 01 	inc  %i0
40000b6c:	80 a6 21 ff 	cmp  %i0, 0x1ff
40000b70:	04 bf ff fa 	ble  40000b58 <Place+0xa0>
40000b74:	83 2e 20 02 	sll  %i0, 2, %g1
40000b78:	b0 10 20 00 	clr  %i0
40000b7c:	81 c7 e0 08 	ret 
40000b80:	81 e8 00 00 	restore 

40000b84 <Remove>:
40000b84:	9d e3 bf 98 	save  %sp, -104, %sp
40000b88:	03 10 00 37 	sethi  %hi(0x4000dc00), %g1
40000b8c:	9f 2e 20 02 	sll  %i0, 2, %o7
40000b90:	82 10 61 9c 	or  %g1, 0x19c, %g1
40000b94:	f4 00 40 0f 	ld  [ %g1 + %o7 ], %i2
40000b98:	80 a6 a0 00 	cmp  %i2, 0
40000b9c:	06 80 00 12 	bl  40000be4 <Remove+0x60>
40000ba0:	3b 10 00 37 	sethi  %hi(0x4000dc00), %i5
40000ba4:	ba 17 61 d4 	or  %i5, 0x1d4, %i5	! 4000ddd4 <p>
40000ba8:	b7 2e 20 0b 	sll  %i0, 0xb, %i3
40000bac:	03 10 00 83 	sethi  %hi(0x40020c00), %g1
40000bb0:	b9 2e 60 02 	sll  %i1, 2, %i4
40000bb4:	82 10 62 88 	or  %g1, 0x288, %g1
40000bb8:	b0 06 c0 1d 	add  %i3, %i5, %i0
40000bbc:	b2 07 00 01 	add  %i4, %g1, %i1
40000bc0:	ba 06 a0 01 	add  %i2, 1, %i5
40000bc4:	c2 06 00 00 	ld  [ %i0 ], %g1
40000bc8:	80 a0 60 00 	cmp  %g1, 0
40000bcc:	02 80 00 03 	be  40000bd8 <Remove+0x54>
40000bd0:	b0 06 20 04 	add  %i0, 4, %i0
40000bd4:	c0 26 40 00 	clr  [ %i1 ]
40000bd8:	ba 87 7f ff 	addcc  %i5, -1, %i5
40000bdc:	12 bf ff fa 	bne  40000bc4 <Remove+0x40>
40000be0:	b2 06 60 04 	add  %i1, 4, %i1
40000be4:	03 10 00 83 	sethi  %hi(0x40020c00), %g1
40000be8:	82 10 62 54 	or  %g1, 0x254, %g1	! 40020e54 <class>
40000bec:	f8 00 40 0f 	ld  [ %g1 + %o7 ], %i4
40000bf0:	3b 10 00 60 	sethi  %hi(0x40018000), %i5
40000bf4:	ba 17 62 a4 	or  %i5, 0x2a4, %i5	! 400182a4 <piececount>
40000bf8:	b9 2f 20 02 	sll  %i4, 2, %i4
40000bfc:	c2 07 40 1c 	ld  [ %i5 + %i4 ], %g1
40000c00:	82 00 60 01 	inc  %g1
40000c04:	c2 27 40 1c 	st  %g1, [ %i5 + %i4 ]
40000c08:	81 c7 e0 08 	ret 
40000c0c:	81 e8 00 00 	restore 

40000c10 <Trial>:
40000c10:	9d e3 bf 98 	save  %sp, -104, %sp
40000c14:	1b 10 00 83 	sethi  %hi(0x40020c00), %o5
40000c18:	c2 03 62 50 	ld  [ %o5 + 0x250 ], %g1	! 40020e50 <kount>
40000c1c:	82 00 60 01 	inc  %g1
40000c20:	c2 23 62 50 	st  %g1, [ %o5 + 0x250 ]
40000c24:	03 10 00 60 	sethi  %hi(0x40018000), %g1
40000c28:	1b 10 00 83 	sethi  %hi(0x40020c00), %o5
40000c2c:	a6 10 62 a4 	or  %g1, 0x2a4, %l3
40000c30:	a4 13 62 54 	or  %o5, 0x254, %l2
40000c34:	10 80 00 06 	b  40000c4c <Trial+0x3c>
40000c38:	a0 10 20 00 	clr  %l0
40000c3c:	a0 04 20 01 	inc  %l0
40000c40:	80 a4 20 0c 	cmp  %l0, 0xc
40000c44:	34 80 00 23 	bg,a   40000cd0 <Trial+0xc0>
40000c48:	b0 10 20 00 	clr  %i0
40000c4c:	83 2c 20 02 	sll  %l0, 2, %g1
40000c50:	da 04 80 01 	ld  [ %l2 + %g1 ], %o5
40000c54:	9b 2b 60 02 	sll  %o5, 2, %o5
40000c58:	c2 04 c0 0d 	ld  [ %l3 + %o5 ], %g1
40000c5c:	90 10 00 10 	mov  %l0, %o0
40000c60:	80 a0 60 00 	cmp  %g1, 0
40000c64:	02 bf ff f6 	be  40000c3c <Trial+0x2c>
40000c68:	92 10 00 18 	mov  %i0, %o1
40000c6c:	7f ff ff 73 	call  40000a38 <Fit>
40000c70:	01 00 00 00 	nop 
40000c74:	80 a2 20 00 	cmp  %o0, 0
40000c78:	92 10 00 18 	mov  %i0, %o1
40000c7c:	02 bf ff f0 	be  40000c3c <Trial+0x2c>
40000c80:	90 10 00 10 	mov  %l0, %o0
40000c84:	7f ff ff 8d 	call  40000ab8 <Place>
40000c88:	01 00 00 00 	nop 
40000c8c:	7f ff ff e1 	call  40000c10 <Trial>
40000c90:	a2 10 00 08 	mov  %o0, %l1
40000c94:	80 a2 20 00 	cmp  %o0, 0
40000c98:	90 10 00 10 	mov  %l0, %o0
40000c9c:	12 80 00 0c 	bne  40000ccc <Trial+0xbc>
40000ca0:	92 10 00 18 	mov  %i0, %o1
40000ca4:	80 a4 60 00 	cmp  %l1, 0
40000ca8:	22 80 00 0a 	be,a   40000cd0 <Trial+0xc0>
40000cac:	b0 10 20 01 	mov  1, %i0
40000cb0:	7f ff ff b5 	call  40000b84 <Remove>
40000cb4:	a0 04 20 01 	inc  %l0
40000cb8:	80 a4 20 0c 	cmp  %l0, 0xc
40000cbc:	04 bf ff e5 	ble  40000c50 <Trial+0x40>
40000cc0:	83 2c 20 02 	sll  %l0, 2, %g1
40000cc4:	10 80 00 03 	b  40000cd0 <Trial+0xc0>
40000cc8:	b0 10 20 00 	clr  %i0
40000ccc:	b0 10 20 01 	mov  1, %i0
40000cd0:	81 c7 e0 08 	ret 
40000cd4:	81 e8 00 00 	restore 

40000cd8 <Puzzle>:
40000cd8:	9d e3 bf 98 	save  %sp, -104, %sp
40000cdc:	03 10 00 83 	sethi  %hi(0x40020c00), %g1
40000ce0:	96 10 62 88 	or  %g1, 0x288, %o3	! 40020e88 <puzzl>
40000ce4:	9a 10 20 00 	clr  %o5
40000ce8:	98 10 20 01 	mov  1, %o4
40000cec:	83 2b 60 02 	sll  %o5, 2, %g1
40000cf0:	9a 03 60 01 	inc  %o5
40000cf4:	80 a3 61 ff 	cmp  %o5, 0x1ff
40000cf8:	04 bf ff fd 	ble  40000cec <Puzzle+0x14>
40000cfc:	d8 22 c0 01 	st  %o4, [ %o3 + %g1 ]
40000d00:	03 10 00 83 	sethi  %hi(0x40020c00), %g1
40000d04:	98 10 62 88 	or  %g1, 0x288, %o4	! 40020e88 <puzzl>
40000d08:	9e 10 20 01 	mov  1, %o7
40000d0c:	83 2b e0 02 	sll  %o7, 2, %g1
40000d10:	82 00 40 0c 	add  %g1, %o4, %g1
40000d14:	82 00 60 20 	add  %g1, 0x20, %g1
40000d18:	90 10 20 01 	mov  1, %o0
40000d1c:	9a 00 61 00 	add  %g1, 0x100, %o5
40000d20:	94 10 20 04 	mov  4, %o2
40000d24:	c0 23 40 00 	clr  [ %o5 ]
40000d28:	94 82 bf ff 	addcc  %o2, -1, %o2
40000d2c:	1c bf ff fe 	bpos  40000d24 <Puzzle+0x4c>
40000d30:	9a 03 61 00 	add  %o5, 0x100, %o5
40000d34:	90 02 20 01 	inc  %o0
40000d38:	80 a2 20 05 	cmp  %o0, 5
40000d3c:	04 bf ff f8 	ble  40000d1c <Puzzle+0x44>
40000d40:	82 00 60 20 	add  %g1, 0x20, %g1
40000d44:	9e 03 e0 01 	inc  %o7
40000d48:	80 a3 e0 05 	cmp  %o7, 5
40000d4c:	24 bf ff f1 	ble,a   40000d10 <Puzzle+0x38>
40000d50:	83 2b e0 02 	sll  %o7, 2, %g1
40000d54:	03 10 00 37 	sethi  %hi(0x4000dc00), %g1
40000d58:	98 10 61 d4 	or  %g1, 0x1d4, %o4	! 4000ddd4 <p>
40000d5c:	9e 10 20 00 	clr  %o7
40000d60:	83 2b e0 0b 	sll  %o7, 0xb, %g1
40000d64:	82 00 40 0c 	add  %g1, %o4, %g1
40000d68:	9a 10 21 ff 	mov  0x1ff, %o5
40000d6c:	c0 20 40 00 	clr  [ %g1 ]
40000d70:	9a 83 7f ff 	addcc  %o5, -1, %o5
40000d74:	1c bf ff fe 	bpos  40000d6c <Puzzle+0x94>
40000d78:	82 00 60 04 	add  %g1, 4, %g1
40000d7c:	9e 03 e0 01 	inc  %o7
40000d80:	80 a3 e0 0c 	cmp  %o7, 0xc
40000d84:	04 bf ff f8 	ble  40000d64 <Puzzle+0x8c>
40000d88:	83 2b e0 0b 	sll  %o7, 0xb, %g1
40000d8c:	03 10 00 37 	sethi  %hi(0x4000dc00), %g1
40000d90:	98 10 61 d4 	or  %g1, 0x1d4, %o4	! 4000ddd4 <p>
40000d94:	9e 10 20 00 	clr  %o7
40000d98:	96 10 20 01 	mov  1, %o3
40000d9c:	90 10 20 00 	clr  %o0
40000da0:	9a 10 00 0f 	mov  %o7, %o5
40000da4:	83 2b 60 02 	sll  %o5, 2, %g1
40000da8:	90 02 20 01 	inc  %o0
40000dac:	d6 20 40 0c 	st  %o3, [ %g1 + %o4 ]
40000db0:	80 a2 20 01 	cmp  %o0, 1
40000db4:	04 bf ff fc 	ble  40000da4 <Puzzle+0xcc>
40000db8:	9a 03 60 08 	add  %o5, 8, %o5
40000dbc:	9e 03 e0 01 	inc  %o7
40000dc0:	80 a3 e0 03 	cmp  %o7, 3
40000dc4:	04 bf ff f7 	ble  40000da0 <Puzzle+0xc8>
40000dc8:	90 10 20 00 	clr  %o0
40000dcc:	82 10 20 0b 	mov  0xb, %g1
40000dd0:	17 10 00 37 	sethi  %hi(0x4000dc00), %o3
40000dd4:	c2 22 e1 9c 	st  %g1, [ %o3 + 0x19c ]	! 4000dd9c <piecemax>
40000dd8:	13 10 00 83 	sethi  %hi(0x40020c00), %o1
40000ddc:	03 10 00 37 	sethi  %hi(0x4000dc00), %g1
40000de0:	c0 22 62 54 	clr  [ %o1 + 0x254 ]
40000de4:	98 10 61 d4 	or  %g1, 0x1d4, %o4
40000de8:	9e 10 20 00 	clr  %o7
40000dec:	b0 10 20 01 	mov  1, %i0
40000df0:	83 2b e0 02 	sll  %o7, 2, %g1
40000df4:	82 00 40 0c 	add  %g1, %o4, %g1
40000df8:	90 10 20 00 	clr  %o0
40000dfc:	9a 00 68 00 	add  %g1, 0x800, %o5
40000e00:	94 10 20 03 	mov  3, %o2
40000e04:	f0 23 40 00 	st  %i0, [ %o5 ]
40000e08:	94 82 bf ff 	addcc  %o2, -1, %o2
40000e0c:	1c bf ff fe 	bpos  40000e04 <Puzzle+0x12c>
40000e10:	9a 03 61 00 	add  %o5, 0x100, %o5
40000e14:	90 02 20 01 	inc  %o0
40000e18:	80 a2 20 00 	cmp  %o0, 0
40000e1c:	04 bf ff f8 	ble  40000dfc <Puzzle+0x124>
40000e20:	82 00 60 20 	add  %g1, 0x20, %g1
40000e24:	9e 03 e0 01 	inc  %o7
40000e28:	80 a3 e0 01 	cmp  %o7, 1
40000e2c:	04 bf ff f2 	ble  40000df4 <Puzzle+0x11c>
40000e30:	83 2b e0 02 	sll  %o7, 2, %g1
40000e34:	82 10 20 c1 	mov  0xc1, %g1
40000e38:	9a 12 e1 9c 	or  %o3, 0x19c, %o5
40000e3c:	98 12 62 54 	or  %o1, 0x254, %o4
40000e40:	c2 23 60 04 	st  %g1, [ %o5 + 4 ]
40000e44:	c0 23 20 04 	clr  [ %o4 + 4 ]
40000e48:	03 10 00 37 	sethi  %hi(0x4000dc00), %g1
40000e4c:	98 10 61 d4 	or  %g1, 0x1d4, %o4	! 4000ddd4 <p>
40000e50:	9e 10 20 00 	clr  %o7
40000e54:	b0 10 20 01 	mov  1, %i0
40000e58:	83 2b e0 02 	sll  %o7, 2, %g1
40000e5c:	82 00 40 0c 	add  %g1, %o4, %g1
40000e60:	90 10 20 00 	clr  %o0
40000e64:	9a 20 70 00 	sub  %g1, -4096, %o5
40000e68:	94 10 20 01 	mov  1, %o2
40000e6c:	f0 23 40 00 	st  %i0, [ %o5 ]
40000e70:	94 82 bf ff 	addcc  %o2, -1, %o2
40000e74:	1c bf ff fe 	bpos  40000e6c <Puzzle+0x194>
40000e78:	9a 03 61 00 	add  %o5, 0x100, %o5
40000e7c:	90 02 20 01 	inc  %o0
40000e80:	80 a2 20 03 	cmp  %o0, 3
40000e84:	04 bf ff f8 	ble  40000e64 <Puzzle+0x18c>
40000e88:	82 00 60 20 	add  %g1, 0x20, %g1
40000e8c:	9e 03 e0 01 	inc  %o7
40000e90:	80 a3 e0 00 	cmp  %o7, 0
40000e94:	04 bf ff f1 	ble  40000e58 <Puzzle+0x180>
40000e98:	82 10 20 58 	mov  0x58, %g1
40000e9c:	9a 12 e1 9c 	or  %o3, 0x19c, %o5
40000ea0:	98 12 62 54 	or  %o1, 0x254, %o4
40000ea4:	c2 23 60 08 	st  %g1, [ %o5 + 8 ]
40000ea8:	c0 23 20 08 	clr  [ %o4 + 8 ]
40000eac:	03 10 00 37 	sethi  %hi(0x4000dc00), %g1
40000eb0:	9a 10 61 d4 	or  %g1, 0x1d4, %o5	! 4000ddd4 <p>
40000eb4:	9e 10 20 00 	clr  %o7
40000eb8:	98 10 20 01 	mov  1, %o4
40000ebc:	15 00 00 06 	sethi  %hi(0x1800), %o2
40000ec0:	83 2b e0 02 	sll  %o7, 2, %g1
40000ec4:	82 00 40 0d 	add  %g1, %o5, %g1
40000ec8:	90 10 20 00 	clr  %o0
40000ecc:	d8 20 40 0a 	st  %o4, [ %g1 + %o2 ]
40000ed0:	90 02 20 01 	inc  %o0
40000ed4:	80 a2 20 03 	cmp  %o0, 3
40000ed8:	04 bf ff fd 	ble  40000ecc <Puzzle+0x1f4>
40000edc:	82 00 60 20 	add  %g1, 0x20, %g1
40000ee0:	9e 03 e0 01 	inc  %o7
40000ee4:	80 a3 e0 01 	cmp  %o7, 1
40000ee8:	04 bf ff f7 	ble  40000ec4 <Puzzle+0x1ec>
40000eec:	83 2b e0 02 	sll  %o7, 2, %g1
40000ef0:	82 10 20 19 	mov  0x19, %g1
40000ef4:	9a 12 e1 9c 	or  %o3, 0x19c, %o5
40000ef8:	98 12 62 54 	or  %o1, 0x254, %o4
40000efc:	c2 23 60 0c 	st  %g1, [ %o5 + 0xc ]
40000f00:	c0 23 20 0c 	clr  [ %o4 + 0xc ]
40000f04:	03 10 00 37 	sethi  %hi(0x4000dc00), %g1
40000f08:	98 10 61 d4 	or  %g1, 0x1d4, %o4	! 4000ddd4 <p>
40000f0c:	9e 10 20 00 	clr  %o7
40000f10:	b0 10 20 01 	mov  1, %i0
40000f14:	21 00 00 08 	sethi  %hi(0x2000), %l0
40000f18:	83 2b e0 02 	sll  %o7, 2, %g1
40000f1c:	82 00 40 0c 	add  %g1, %o4, %g1
40000f20:	90 10 20 00 	clr  %o0
40000f24:	9a 00 40 10 	add  %g1, %l0, %o5
40000f28:	94 10 20 01 	mov  1, %o2
40000f2c:	f0 23 40 00 	st  %i0, [ %o5 ]
40000f30:	94 82 bf ff 	addcc  %o2, -1, %o2
40000f34:	1c bf ff fe 	bpos  40000f2c <Puzzle+0x254>
40000f38:	9a 03 61 00 	add  %o5, 0x100, %o5
40000f3c:	90 02 20 01 	inc  %o0
40000f40:	80 a2 20 00 	cmp  %o0, 0
40000f44:	04 bf ff f8 	ble  40000f24 <Puzzle+0x24c>
40000f48:	82 00 60 20 	add  %g1, 0x20, %g1
40000f4c:	9e 03 e0 01 	inc  %o7
40000f50:	80 a3 e0 03 	cmp  %o7, 3
40000f54:	04 bf ff f2 	ble  40000f1c <Puzzle+0x244>
40000f58:	83 2b e0 02 	sll  %o7, 2, %g1
40000f5c:	82 10 20 43 	mov  0x43, %g1
40000f60:	9a 12 e1 9c 	or  %o3, 0x19c, %o5
40000f64:	98 12 62 54 	or  %o1, 0x254, %o4
40000f68:	c2 23 60 10 	st  %g1, [ %o5 + 0x10 ]
40000f6c:	c0 23 20 10 	clr  [ %o4 + 0x10 ]
40000f70:	03 10 00 37 	sethi  %hi(0x4000dc00), %g1
40000f74:	98 10 61 d4 	or  %g1, 0x1d4, %o4	! 4000ddd4 <p>
40000f78:	9e 10 20 00 	clr  %o7
40000f7c:	b0 10 20 01 	mov  1, %i0
40000f80:	21 00 00 0a 	sethi  %hi(0x2800), %l0
40000f84:	83 2b e0 02 	sll  %o7, 2, %g1
40000f88:	82 00 40 0c 	add  %g1, %o4, %g1
40000f8c:	90 10 20 00 	clr  %o0
40000f90:	9a 00 40 10 	add  %g1, %l0, %o5
40000f94:	94 10 20 03 	mov  3, %o2
40000f98:	f0 23 40 00 	st  %i0, [ %o5 ]
40000f9c:	94 82 bf ff 	addcc  %o2, -1, %o2
40000fa0:	1c bf ff fe 	bpos  40000f98 <Puzzle+0x2c0>
40000fa4:	9a 03 61 00 	add  %o5, 0x100, %o5
40000fa8:	90 02 20 01 	inc  %o0
40000fac:	80 a2 20 01 	cmp  %o0, 1
40000fb0:	04 bf ff f8 	ble  40000f90 <Puzzle+0x2b8>
40000fb4:	82 00 60 20 	add  %g1, 0x20, %g1
40000fb8:	9e 03 e0 01 	inc  %o7
40000fbc:	80 a3 e0 00 	cmp  %o7, 0
40000fc0:	04 bf ff f1 	ble  40000f84 <Puzzle+0x2ac>
40000fc4:	82 10 20 c8 	mov  0xc8, %g1
40000fc8:	9a 12 e1 9c 	or  %o3, 0x19c, %o5
40000fcc:	98 12 62 54 	or  %o1, 0x254, %o4
40000fd0:	c2 23 60 14 	st  %g1, [ %o5 + 0x14 ]
40000fd4:	c0 23 20 14 	clr  [ %o4 + 0x14 ]
40000fd8:	03 10 00 37 	sethi  %hi(0x4000dc00), %g1
40000fdc:	94 10 61 d4 	or  %g1, 0x1d4, %o2	! 4000ddd4 <p>
40000fe0:	9e 10 20 00 	clr  %o7
40000fe4:	9a 10 20 01 	mov  1, %o5
40000fe8:	19 00 00 0c 	sethi  %hi(0x3000), %o4
40000fec:	83 2b e0 02 	sll  %o7, 2, %g1
40000ff0:	82 00 40 0a 	add  %g1, %o2, %g1
40000ff4:	9e 03 e0 01 	inc  %o7
40000ff8:	da 20 40 0c 	st  %o5, [ %g1 + %o4 ]
40000ffc:	80 a3 e0 02 	cmp  %o7, 2
40001000:	04 bf ff fb 	ble  40000fec <Puzzle+0x314>
40001004:	90 10 20 01 	mov  1, %o0
40001008:	9a 12 62 54 	or  %o1, 0x254, %o5
4000100c:	98 12 e1 9c 	or  %o3, 0x19c, %o4
40001010:	d0 23 60 18 	st  %o0, [ %o5 + 0x18 ]
40001014:	82 10 20 02 	mov  2, %g1
40001018:	c2 23 20 18 	st  %g1, [ %o4 + 0x18 ]
4000101c:	1b 10 00 37 	sethi  %hi(0x4000dc00), %o5
40001020:	9a 13 61 d4 	or  %o5, 0x1d4, %o5	! 4000ddd4 <p>
40001024:	9e 10 20 00 	clr  %o7
40001028:	98 10 20 01 	mov  1, %o4
4000102c:	21 00 00 0e 	sethi  %hi(0x3800), %l0
40001030:	83 2b e0 02 	sll  %o7, 2, %g1
40001034:	82 00 40 0d 	add  %g1, %o5, %g1
40001038:	90 10 20 00 	clr  %o0
4000103c:	d8 20 40 10 	st  %o4, [ %g1 + %l0 ]
40001040:	90 02 20 01 	inc  %o0
40001044:	82 00 60 20 	add  %g1, 0x20, %g1
40001048:	80 a2 20 02 	cmp  %o0, 2
4000104c:	04 bf ff fc 	ble  4000103c <Puzzle+0x364>
40001050:	94 10 20 01 	mov  1, %o2
40001054:	9e 03 e0 01 	inc  %o7
40001058:	80 a3 e0 00 	cmp  %o7, 0
4000105c:	04 bf ff f5 	ble  40001030 <Puzzle+0x358>
40001060:	82 10 20 10 	mov  0x10, %g1
40001064:	9a 12 62 54 	or  %o1, 0x254, %o5
40001068:	d4 23 60 1c 	st  %o2, [ %o5 + 0x1c ]
4000106c:	98 12 e1 9c 	or  %o3, 0x19c, %o4
40001070:	1b 10 00 37 	sethi  %hi(0x4000dc00), %o5
40001074:	c2 23 20 1c 	st  %g1, [ %o4 + 0x1c ]
40001078:	9a 13 61 d4 	or  %o5, 0x1d4, %o5
4000107c:	9e 10 20 00 	clr  %o7
40001080:	b0 10 20 01 	mov  1, %i0
40001084:	21 00 00 10 	sethi  %hi(0x4000), %l0
40001088:	83 2b e0 02 	sll  %o7, 2, %g1
4000108c:	82 00 40 0d 	add  %g1, %o5, %g1
40001090:	90 10 20 00 	clr  %o0
40001094:	98 00 40 10 	add  %g1, %l0, %o4
40001098:	94 10 20 02 	mov  2, %o2
4000109c:	f0 23 00 00 	st  %i0, [ %o4 ]
400010a0:	94 82 bf ff 	addcc  %o2, -1, %o2
400010a4:	1c bf ff fe 	bpos  4000109c <Puzzle+0x3c4>
400010a8:	98 03 21 00 	add  %o4, 0x100, %o4
400010ac:	90 02 20 01 	inc  %o0
400010b0:	80 a2 20 00 	cmp  %o0, 0
400010b4:	04 bf ff f8 	ble  40001094 <Puzzle+0x3bc>
400010b8:	82 00 60 20 	add  %g1, 0x20, %g1
400010bc:	9e 03 e0 01 	inc  %o7
400010c0:	80 a3 e0 00 	cmp  %o7, 0
400010c4:	04 bf ff f1 	ble  40001088 <Puzzle+0x3b0>
400010c8:	82 10 20 80 	mov  0x80, %g1
400010cc:	9a 12 62 54 	or  %o1, 0x254, %o5
400010d0:	98 12 e1 9c 	or  %o3, 0x19c, %o4
400010d4:	f0 23 60 20 	st  %i0, [ %o5 + 0x20 ]
400010d8:	c2 23 20 20 	st  %g1, [ %o4 + 0x20 ]
400010dc:	1b 10 00 37 	sethi  %hi(0x4000dc00), %o5
400010e0:	9a 13 61 d4 	or  %o5, 0x1d4, %o5	! 4000ddd4 <p>
400010e4:	9e 10 20 00 	clr  %o7
400010e8:	98 10 20 01 	mov  1, %o4
400010ec:	15 00 00 12 	sethi  %hi(0x4800), %o2
400010f0:	83 2b e0 02 	sll  %o7, 2, %g1
400010f4:	82 00 40 0d 	add  %g1, %o5, %g1
400010f8:	90 10 20 00 	clr  %o0
400010fc:	d8 20 40 0a 	st  %o4, [ %g1 + %o2 ]
40001100:	90 02 20 01 	inc  %o0
40001104:	80 a2 20 01 	cmp  %o0, 1
40001108:	04 bf ff fd 	ble  400010fc <Puzzle+0x424>
4000110c:	82 00 60 20 	add  %g1, 0x20, %g1
40001110:	9e 03 e0 01 	inc  %o7
40001114:	80 a3 e0 01 	cmp  %o7, 1
40001118:	04 bf ff f6 	ble  400010f0 <Puzzle+0x418>
4000111c:	90 10 20 02 	mov  2, %o0
40001120:	9a 12 62 54 	or  %o1, 0x254, %o5
40001124:	d0 23 60 24 	st  %o0, [ %o5 + 0x24 ]
40001128:	98 12 e1 9c 	or  %o3, 0x19c, %o4
4000112c:	82 10 20 09 	mov  9, %g1
40001130:	1b 10 00 37 	sethi  %hi(0x4000dc00), %o5
40001134:	c2 23 20 24 	st  %g1, [ %o4 + 0x24 ]
40001138:	9a 13 61 d4 	or  %o5, 0x1d4, %o5
4000113c:	9e 10 20 00 	clr  %o7
40001140:	b0 10 20 01 	mov  1, %i0
40001144:	21 00 00 14 	sethi  %hi(0x5000), %l0
40001148:	83 2b e0 02 	sll  %o7, 2, %g1
4000114c:	82 00 40 0d 	add  %g1, %o5, %g1
40001150:	90 10 20 00 	clr  %o0
40001154:	98 00 40 10 	add  %g1, %l0, %o4
40001158:	94 10 20 01 	mov  1, %o2
4000115c:	f0 23 00 00 	st  %i0, [ %o4 ]
40001160:	94 82 bf ff 	addcc  %o2, -1, %o2
40001164:	1c bf ff fe 	bpos  4000115c <Puzzle+0x484>
40001168:	98 03 21 00 	add  %o4, 0x100, %o4
4000116c:	90 02 20 01 	inc  %o0
40001170:	82 00 60 20 	add  %g1, 0x20, %g1
40001174:	80 a2 20 00 	cmp  %o0, 0
40001178:	04 bf ff f7 	ble  40001154 <Puzzle+0x47c>
4000117c:	94 10 20 02 	mov  2, %o2
40001180:	9e 03 e0 01 	inc  %o7
40001184:	80 a3 e0 01 	cmp  %o7, 1
40001188:	04 bf ff f1 	ble  4000114c <Puzzle+0x474>
4000118c:	83 2b e0 02 	sll  %o7, 2, %g1
40001190:	9a 12 62 54 	or  %o1, 0x254, %o5
40001194:	d4 23 60 28 	st  %o2, [ %o5 + 0x28 ]
40001198:	98 12 e1 9c 	or  %o3, 0x19c, %o4
4000119c:	82 10 20 41 	mov  0x41, %g1
400011a0:	1b 10 00 37 	sethi  %hi(0x4000dc00), %o5
400011a4:	c2 23 20 28 	st  %g1, [ %o4 + 0x28 ]
400011a8:	9a 13 61 d4 	or  %o5, 0x1d4, %o5
400011ac:	9e 10 20 00 	clr  %o7
400011b0:	b0 10 20 01 	mov  1, %i0
400011b4:	21 00 00 16 	sethi  %hi(0x5800), %l0
400011b8:	83 2b e0 02 	sll  %o7, 2, %g1
400011bc:	82 00 40 0d 	add  %g1, %o5, %g1
400011c0:	90 10 20 00 	clr  %o0
400011c4:	98 00 40 10 	add  %g1, %l0, %o4
400011c8:	94 10 20 01 	mov  1, %o2
400011cc:	f0 23 00 00 	st  %i0, [ %o4 ]
400011d0:	94 82 bf ff 	addcc  %o2, -1, %o2
400011d4:	1c bf ff fe 	bpos  400011cc <Puzzle+0x4f4>
400011d8:	98 03 21 00 	add  %o4, 0x100, %o4
400011dc:	90 02 20 01 	inc  %o0
400011e0:	82 00 60 20 	add  %g1, 0x20, %g1
400011e4:	80 a2 20 01 	cmp  %o0, 1
400011e8:	04 bf ff f7 	ble  400011c4 <Puzzle+0x4ec>
400011ec:	94 10 20 02 	mov  2, %o2
400011f0:	9e 03 e0 01 	inc  %o7
400011f4:	80 a3 e0 00 	cmp  %o7, 0
400011f8:	04 bf ff f0 	ble  400011b8 <Puzzle+0x4e0>
400011fc:	82 10 20 48 	mov  0x48, %g1
40001200:	9a 12 62 54 	or  %o1, 0x254, %o5
40001204:	d4 23 60 2c 	st  %o2, [ %o5 + 0x2c ]
40001208:	98 12 e1 9c 	or  %o3, 0x19c, %o4
4000120c:	1b 10 00 37 	sethi  %hi(0x4000dc00), %o5
40001210:	c2 23 20 2c 	st  %g1, [ %o4 + 0x2c ]
40001214:	9a 13 61 d4 	or  %o5, 0x1d4, %o5
40001218:	9e 10 20 00 	clr  %o7
4000121c:	b0 10 20 01 	mov  1, %i0
40001220:	21 00 00 18 	sethi  %hi(0x6000), %l0
40001224:	83 2b e0 02 	sll  %o7, 2, %g1
40001228:	82 00 40 0d 	add  %g1, %o5, %g1
4000122c:	90 10 20 00 	clr  %o0
40001230:	98 00 40 10 	add  %g1, %l0, %o4
40001234:	94 10 20 01 	mov  1, %o2
40001238:	f0 23 00 00 	st  %i0, [ %o4 ]
4000123c:	94 82 bf ff 	addcc  %o2, -1, %o2
40001240:	1c bf ff fe 	bpos  40001238 <Puzzle+0x560>
40001244:	98 03 21 00 	add  %o4, 0x100, %o4
40001248:	90 02 20 01 	inc  %o0
4000124c:	80 a2 20 01 	cmp  %o0, 1
40001250:	04 bf ff f8 	ble  40001230 <Puzzle+0x558>
40001254:	82 00 60 20 	add  %g1, 0x20, %g1
40001258:	9e 03 e0 01 	inc  %o7
4000125c:	80 a3 e0 01 	cmp  %o7, 1
40001260:	04 bf ff f2 	ble  40001228 <Puzzle+0x550>
40001264:	83 2b e0 02 	sll  %o7, 2, %g1
40001268:	15 10 00 60 	sethi  %hi(0x40018000), %o2
4000126c:	98 12 a2 a4 	or  %o2, 0x2a4, %o4	! 400182a4 <piececount>
40001270:	90 10 20 03 	mov  3, %o0
40001274:	92 12 62 54 	or  %o1, 0x254, %o1
40001278:	d0 22 60 30 	st  %o0, [ %o1 + 0x30 ]
4000127c:	96 12 e1 9c 	or  %o3, 0x19c, %o3
40001280:	82 10 20 49 	mov  0x49, %g1
40001284:	9a 10 20 0d 	mov  0xd, %o5
40001288:	d0 23 20 04 	st  %o0, [ %o4 + 4 ]
4000128c:	21 10 00 83 	sethi  %hi(0x40020c00), %l0
40001290:	c2 22 e0 30 	st  %g1, [ %o3 + 0x30 ]
40001294:	da 22 a2 a4 	st  %o5, [ %o2 + 0x2a4 ]
40001298:	f0 23 20 0c 	st  %i0, [ %o4 + 0xc ]
4000129c:	f0 23 20 08 	st  %i0, [ %o4 + 8 ]
400012a0:	c0 24 22 50 	clr  [ %l0 + 0x250 ]
400012a4:	90 10 20 00 	clr  %o0
400012a8:	7f ff fd e4 	call  40000a38 <Fit>
400012ac:	92 10 20 49 	mov  0x49, %o1
400012b0:	80 a2 20 00 	cmp  %o0, 0
400012b4:	22 80 00 10 	be,a   400012f4 <Puzzle+0x61c>
400012b8:	11 10 00 31 	sethi  %hi(0x4000c400), %o0
400012bc:	90 10 20 00 	clr  %o0
400012c0:	7f ff fd fe 	call  40000ab8 <Place>
400012c4:	92 10 20 49 	mov  0x49, %o1
400012c8:	03 10 00 58 	sethi  %hi(0x40016000), %g1
400012cc:	d0 20 60 1c 	st  %o0, [ %g1 + 0x1c ]	! 4001601c <n>
400012d0:	7f ff fe 50 	call  40000c10 <Trial>
400012d4:	d0 00 60 1c 	ld  [ %g1 + 0x1c ], %o0
400012d8:	80 a2 20 00 	cmp  %o0, 0
400012dc:	02 80 00 0d 	be  40001310 <Puzzle+0x638>
400012e0:	c2 04 22 50 	ld  [ %l0 + 0x250 ], %g1
400012e4:	80 a0 67 d5 	cmp  %g1, 0x7d5
400012e8:	32 80 00 07 	bne,a   40001304 <Puzzle+0x62c>
400012ec:	11 10 00 31 	sethi  %hi(0x4000c400), %o0
400012f0:	30 80 00 0b 	b,a   4000131c <Puzzle+0x644>
400012f4:	40 00 0d 3a 	call  400047dc <puts>
400012f8:	90 12 23 a8 	or  %o0, 0x3a8, %o0
400012fc:	10 bf ff f5 	b  400012d0 <Puzzle+0x5f8>
40001300:	03 10 00 58 	sethi  %hi(0x40016000), %g1
40001304:	40 00 0d 36 	call  400047dc <puts>
40001308:	90 12 23 c0 	or  %o0, 0x3c0, %o0
4000130c:	30 80 00 04 	b,a   4000131c <Puzzle+0x644>
40001310:	11 10 00 31 	sethi  %hi(0x4000c400), %o0
40001314:	40 00 0d 32 	call  400047dc <puts>
40001318:	90 12 23 d8 	or  %o0, 0x3d8, %o0	! 4000c7d8 <___DTOR_END__+0xb8>
4000131c:	81 c7 e0 08 	ret 
40001320:	81 e8 00 00 	restore 

40001324 <Initarr>:
40001324:	9d e3 bf 98 	save  %sp, -104, %sp
40001328:	7f ff fb 9f 	call  400001a4 <Initrand>
4000132c:	21 10 00 76 	sethi  %hi(0x4001d800), %l0
40001330:	03 10 00 62 	sethi  %hi(0x40018800), %g1
40001334:	ac 10 63 9c 	or  %g1, 0x39c, %l6	! 40018b9c <sortlist>
40001338:	1b 05 3e 2d 	sethi  %hi(0x14f8b400), %o5
4000133c:	03 00 00 61 	sethi  %hi(0x18400), %g1
40001340:	aa 13 61 89 	or  %o5, 0x189, %l5
40001344:	a8 10 62 a0 	or  %g1, 0x2a0, %l4
40001348:	23 10 00 62 	sethi  %hi(0x40018800), %l1
4000134c:	1b 3f ff cf 	sethi  %hi(0xffff3c00), %o5
40001350:	03 00 00 04 	sethi  %hi(0x1000), %g1
40001354:	c0 24 21 c0 	clr  [ %l0 + 0x1c0 ]
40001358:	c0 24 63 98 	clr  [ %l1 + 0x398 ]
4000135c:	a6 13 60 b0 	or  %o5, 0xb0, %l3
40001360:	a4 10 63 88 	or  %g1, 0x388, %l2
40001364:	10 80 00 07 	b  40001380 <Initarr+0x5c>
40001368:	b0 10 20 01 	mov  1, %i0
4000136c:	d0 24 21 c0 	st  %o0, [ %l0 + 0x1c0 ]
40001370:	b0 06 20 01 	inc  %i0
40001374:	80 a6 00 12 	cmp  %i0, %l2
40001378:	14 80 00 18 	bg  400013d8 <Initarr+0xb4>
4000137c:	01 00 00 00 	nop 
40001380:	7f ff fb 8e 	call  400001b8 <Rand>
40001384:	01 00 00 00 	nop 
40001388:	80 5a 00 15 	smul  %o0, %l5, %g0
4000138c:	83 40 00 00 	rd  %y, %g1
40001390:	9b 3a 20 1f 	sra  %o0, 0x1f, %o5
40001394:	83 38 60 0d 	sra  %g1, 0xd, %g1
40001398:	82 20 40 0d 	sub  %g1, %o5, %g1
4000139c:	82 58 40 14 	smul  %g1, %l4, %g1
400013a0:	90 22 00 01 	sub  %o0, %g1, %o0
400013a4:	90 02 00 13 	add  %o0, %l3, %o0
400013a8:	83 2e 20 02 	sll  %i0, 2, %g1
400013ac:	da 04 21 c0 	ld  [ %l0 + 0x1c0 ], %o5
400013b0:	80 a2 00 0d 	cmp  %o0, %o5
400013b4:	14 bf ff ee 	bg  4000136c <Initarr+0x48>
400013b8:	d0 25 80 01 	st  %o0, [ %l6 + %g1 ]
400013bc:	c2 04 63 98 	ld  [ %l1 + 0x398 ], %g1
400013c0:	80 a2 00 01 	cmp  %o0, %g1
400013c4:	16 bf ff ec 	bge  40001374 <Initarr+0x50>
400013c8:	b0 06 20 01 	inc  %i0
400013cc:	80 a6 00 12 	cmp  %i0, %l2
400013d0:	04 bf ff ec 	ble  40001380 <Initarr+0x5c>
400013d4:	d0 24 63 98 	st  %o0, [ %l1 + 0x398 ]
400013d8:	81 c7 e0 08 	ret 
400013dc:	81 e8 00 00 	restore 

400013e0 <Quicksort>:
400013e0:	9d e3 bf 98 	save  %sp, -104, %sp
400013e4:	82 06 40 1a 	add  %i1, %i2, %g1
400013e8:	9b 30 60 1f 	srl  %g1, 0x1f, %o5
400013ec:	82 00 40 0d 	add  %g1, %o5, %g1
400013f0:	83 38 60 01 	sra  %g1, 1, %g1
400013f4:	83 28 60 02 	sll  %g1, 2, %g1
400013f8:	92 10 00 19 	mov  %i1, %o1
400013fc:	a0 10 00 19 	mov  %i1, %l0
40001400:	d0 06 00 01 	ld  [ %i0 + %g1 ], %o0
40001404:	94 10 00 1a 	mov  %i2, %o2
40001408:	97 2c 20 02 	sll  %l0, 2, %o3
4000140c:	c2 06 00 0b 	ld  [ %i0 + %o3 ], %g1
40001410:	80 a0 40 08 	cmp  %g1, %o0
40001414:	26 bf ff fd 	bl,a   40001408 <Quicksort+0x28>
40001418:	a0 04 20 01 	inc  %l0
4000141c:	99 2a a0 02 	sll  %o2, 2, %o4
40001420:	c2 06 00 0c 	ld  [ %i0 + %o4 ], %g1
40001424:	80 a0 40 08 	cmp  %g1, %o0
40001428:	04 80 00 09 	ble  4000144c <Quicksort+0x6c>
4000142c:	80 a4 00 0a 	cmp  %l0, %o2
40001430:	94 02 bf ff 	add  %o2, -1, %o2
40001434:	99 2a a0 02 	sll  %o2, 2, %o4
40001438:	c2 06 00 0c 	ld  [ %i0 + %o4 ], %g1
4000143c:	80 a0 40 08 	cmp  %g1, %o0
40001440:	34 bf ff fd 	bg,a   40001434 <Quicksort+0x54>
40001444:	94 02 bf ff 	add  %o2, -1, %o2
40001448:	80 a4 00 0a 	cmp  %l0, %o2
4000144c:	14 80 00 0b 	bg  40001478 <Quicksort+0x98>
40001450:	80 a2 40 0a 	cmp  %o1, %o2
40001454:	da 06 00 0b 	ld  [ %i0 + %o3 ], %o5
40001458:	c2 06 00 0c 	ld  [ %i0 + %o4 ], %g1
4000145c:	c2 26 00 0b 	st  %g1, [ %i0 + %o3 ]
40001460:	a0 04 20 01 	inc  %l0
40001464:	94 02 bf ff 	add  %o2, -1, %o2
40001468:	80 a4 00 0a 	cmp  %l0, %o2
4000146c:	04 bf ff e7 	ble  40001408 <Quicksort+0x28>
40001470:	da 26 00 0c 	st  %o5, [ %i0 + %o4 ]
40001474:	80 a2 40 0a 	cmp  %o1, %o2
40001478:	06 80 00 06 	bl  40001490 <Quicksort+0xb0>
4000147c:	80 a4 00 1a 	cmp  %l0, %i2
40001480:	16 80 00 0c 	bge  400014b0 <Quicksort+0xd0>
40001484:	90 10 00 18 	mov  %i0, %o0
40001488:	10 80 00 08 	b  400014a8 <Quicksort+0xc8>
4000148c:	92 10 00 10 	mov  %l0, %o1
40001490:	7f ff ff d4 	call  400013e0 <Quicksort>
40001494:	90 10 00 18 	mov  %i0, %o0
40001498:	80 a4 00 1a 	cmp  %l0, %i2
4000149c:	16 80 00 05 	bge  400014b0 <Quicksort+0xd0>
400014a0:	90 10 00 18 	mov  %i0, %o0
400014a4:	92 10 00 10 	mov  %l0, %o1
400014a8:	7f ff ff ce 	call  400013e0 <Quicksort>
400014ac:	94 10 00 1a 	mov  %i2, %o2
400014b0:	81 c7 e0 08 	ret 
400014b4:	81 e8 00 00 	restore 

400014b8 <Quick>:
400014b8:	9d e3 bf 98 	save  %sp, -104, %sp
400014bc:	7f ff ff 9a 	call  40001324 <Initarr>
400014c0:	21 10 00 62 	sethi  %hi(0x40018800), %l0
400014c4:	15 00 00 04 	sethi  %hi(0x1000), %o2
400014c8:	90 14 23 9c 	or  %l0, 0x39c, %o0
400014cc:	94 12 a3 88 	or  %o2, 0x388, %o2
400014d0:	7f ff ff c4 	call  400013e0 <Quicksort>
400014d4:	92 10 20 01 	mov  1, %o1
400014d8:	a0 14 23 9c 	or  %l0, 0x39c, %l0
400014dc:	03 10 00 62 	sethi  %hi(0x40018800), %g1
400014e0:	d8 00 63 98 	ld  [ %g1 + 0x398 ], %o4	! 40018b98 <littlest>
400014e4:	da 04 20 04 	ld  [ %l0 + 4 ], %o5
400014e8:	11 10 00 31 	sethi  %hi(0x4000c400), %o0
400014ec:	80 a3 40 0c 	cmp  %o5, %o4
400014f0:	02 80 00 05 	be  40001504 <Quick+0x4c>
400014f4:	90 12 23 f0 	or  %o0, 0x3f0, %o0
400014f8:	40 00 0c b9 	call  400047dc <puts>
400014fc:	01 00 00 00 	nop 
40001500:	30 80 00 09 	b,a   40001524 <Quick+0x6c>
40001504:	03 00 00 13 	sethi  %hi(0x4c00), %g1
40001508:	82 10 62 20 	or  %g1, 0x220, %g1	! 4e20 <_trap_table-0x3fffb1e0>
4000150c:	d8 04 00 01 	ld  [ %l0 + %g1 ], %o4
40001510:	1b 10 00 76 	sethi  %hi(0x4001d800), %o5
40001514:	c2 03 61 c0 	ld  [ %o5 + 0x1c0 ], %g1	! 4001d9c0 <biggest>
40001518:	80 a3 00 01 	cmp  %o4, %g1
4000151c:	12 bf ff f7 	bne  400014f8 <Quick+0x40>
40001520:	01 00 00 00 	nop 
40001524:	81 c7 e0 08 	ret 
40001528:	81 e8 00 00 	restore 

4000152c <tInitarr>:
4000152c:	9d e3 bf 98 	save  %sp, -104, %sp
40001530:	7f ff fb 1d 	call  400001a4 <Initrand>
40001534:	21 10 00 76 	sethi  %hi(0x4001d800), %l0
40001538:	03 10 00 62 	sethi  %hi(0x40018800), %g1
4000153c:	ac 10 63 9c 	or  %g1, 0x39c, %l6	! 40018b9c <sortlist>
40001540:	1b 05 3e 2d 	sethi  %hi(0x14f8b400), %o5
40001544:	03 00 00 61 	sethi  %hi(0x18400), %g1
40001548:	aa 13 61 89 	or  %o5, 0x189, %l5
4000154c:	a8 10 62 a0 	or  %g1, 0x2a0, %l4
40001550:	23 10 00 62 	sethi  %hi(0x40018800), %l1
40001554:	1b 3f ff cf 	sethi  %hi(0xffff3c00), %o5
40001558:	03 00 00 04 	sethi  %hi(0x1000), %g1
4000155c:	c0 24 21 c0 	clr  [ %l0 + 0x1c0 ]
40001560:	c0 24 63 98 	clr  [ %l1 + 0x398 ]
40001564:	a6 13 60 b0 	or  %o5, 0xb0, %l3
40001568:	a4 10 63 88 	or  %g1, 0x388, %l2
4000156c:	10 80 00 07 	b  40001588 <tInitarr+0x5c>
40001570:	b0 10 20 01 	mov  1, %i0
40001574:	d0 24 21 c0 	st  %o0, [ %l0 + 0x1c0 ]
40001578:	b0 06 20 01 	inc  %i0
4000157c:	80 a6 00 12 	cmp  %i0, %l2
40001580:	14 80 00 18 	bg  400015e0 <tInitarr+0xb4>
40001584:	01 00 00 00 	nop 
40001588:	7f ff fb 0c 	call  400001b8 <Rand>
4000158c:	01 00 00 00 	nop 
40001590:	80 5a 00 15 	smul  %o0, %l5, %g0
40001594:	83 40 00 00 	rd  %y, %g1
40001598:	9b 3a 20 1f 	sra  %o0, 0x1f, %o5
4000159c:	83 38 60 0d 	sra  %g1, 0xd, %g1
400015a0:	82 20 40 0d 	sub  %g1, %o5, %g1
400015a4:	82 58 40 14 	smul  %g1, %l4, %g1
400015a8:	90 22 00 01 	sub  %o0, %g1, %o0
400015ac:	90 02 00 13 	add  %o0, %l3, %o0
400015b0:	83 2e 20 02 	sll  %i0, 2, %g1
400015b4:	da 04 21 c0 	ld  [ %l0 + 0x1c0 ], %o5
400015b8:	80 a2 00 0d 	cmp  %o0, %o5
400015bc:	14 bf ff ee 	bg  40001574 <tInitarr+0x48>
400015c0:	d0 25 80 01 	st  %o0, [ %l6 + %g1 ]
400015c4:	c2 04 63 98 	ld  [ %l1 + 0x398 ], %g1
400015c8:	80 a2 00 01 	cmp  %o0, %g1
400015cc:	16 bf ff ec 	bge  4000157c <tInitarr+0x50>
400015d0:	b0 06 20 01 	inc  %i0
400015d4:	80 a6 00 12 	cmp  %i0, %l2
400015d8:	04 bf ff ec 	ble  40001588 <tInitarr+0x5c>
400015dc:	d0 24 63 98 	st  %o0, [ %l1 + 0x398 ]
400015e0:	81 c7 e0 08 	ret 
400015e4:	81 e8 00 00 	restore 

400015e8 <CreateNode>:
400015e8:	9d e3 bf 98 	save  %sp, -104, %sp
400015ec:	40 00 0a 46 	call  40003f04 <malloc>
400015f0:	90 10 20 0c 	mov  0xc, %o0
400015f4:	d0 26 00 00 	st  %o0, [ %i0 ]
400015f8:	f2 22 20 08 	st  %i1, [ %o0 + 8 ]
400015fc:	c0 22 00 00 	clr  [ %o0 ]
40001600:	c0 22 20 04 	clr  [ %o0 + 4 ]
40001604:	81 c7 e0 08 	ret 
40001608:	81 e8 00 00 	restore 

4000160c <Insert>:
4000160c:	9d e3 bf 98 	save  %sp, -104, %sp
40001610:	c2 06 60 08 	ld  [ %i1 + 8 ], %g1
40001614:	80 a0 40 18 	cmp  %g1, %i0
40001618:	16 80 00 0a 	bge  40001640 <Insert+0x34>
4000161c:	90 10 00 19 	mov  %i1, %o0
40001620:	f2 06 40 00 	ld  [ %i1 ], %i1
40001624:	80 a6 60 00 	cmp  %i1, 0
40001628:	02 80 00 0c 	be  40001658 <Insert+0x4c>
4000162c:	92 10 00 18 	mov  %i0, %o1
40001630:	90 10 00 18 	mov  %i0, %o0
40001634:	7f ff ff f6 	call  4000160c <Insert>
40001638:	92 10 00 19 	mov  %i1, %o1
4000163c:	30 80 00 09 	b,a   40001660 <Insert+0x54>
40001640:	04 80 00 08 	ble  40001660 <Insert+0x54>
40001644:	90 06 60 04 	add  %i1, 4, %o0
40001648:	f2 06 60 04 	ld  [ %i1 + 4 ], %i1
4000164c:	80 a6 60 00 	cmp  %i1, 0
40001650:	12 bf ff f8 	bne  40001630 <Insert+0x24>
40001654:	92 10 00 18 	mov  %i0, %o1
40001658:	7f ff ff e4 	call  400015e8 <CreateNode>
4000165c:	01 00 00 00 	nop 
40001660:	81 c7 e0 08 	ret 
40001664:	81 e8 00 00 	restore 

40001668 <Checktree>:
40001668:	9d e3 bf 98 	save  %sp, -104, %sp
4000166c:	d0 06 00 00 	ld  [ %i0 ], %o0
40001670:	80 a2 20 00 	cmp  %o0, 0
40001674:	02 80 00 07 	be  40001690 <Checktree+0x28>
40001678:	a0 10 20 01 	mov  1, %l0
4000167c:	da 02 20 08 	ld  [ %o0 + 8 ], %o5
40001680:	c2 06 20 08 	ld  [ %i0 + 8 ], %g1
40001684:	80 a3 40 01 	cmp  %o5, %g1
40001688:	14 80 00 0d 	bg  400016bc <Checktree+0x54>
4000168c:	a0 10 20 00 	clr  %l0
40001690:	d0 06 20 04 	ld  [ %i0 + 4 ], %o0
40001694:	80 a2 20 00 	cmp  %o0, 0
40001698:	02 80 00 1a 	be  40001700 <Checktree+0x98>
4000169c:	01 00 00 00 	nop 
400016a0:	da 06 20 08 	ld  [ %i0 + 8 ], %o5
400016a4:	c2 02 20 08 	ld  [ %o0 + 8 ], %g1
400016a8:	80 a0 40 0d 	cmp  %g1, %o5
400016ac:	06 80 00 0c 	bl  400016dc <Checktree+0x74>
400016b0:	01 00 00 00 	nop 
400016b4:	10 80 00 13 	b  40001700 <Checktree+0x98>
400016b8:	a0 10 20 00 	clr  %l0	! 0 <_trap_table-0x40000000>
400016bc:	7f ff ff eb 	call  40001668 <Checktree>
400016c0:	01 00 00 00 	nop 
400016c4:	80 a2 20 00 	cmp  %o0, 0
400016c8:	02 80 00 03 	be  400016d4 <Checktree+0x6c>
400016cc:	82 10 20 00 	clr  %g1
400016d0:	82 10 20 01 	mov  1, %g1
400016d4:	10 bf ff ef 	b  40001690 <Checktree+0x28>
400016d8:	a0 10 00 01 	mov  %g1, %l0
400016dc:	7f ff ff e3 	call  40001668 <Checktree>
400016e0:	01 00 00 00 	nop 
400016e4:	80 a2 20 00 	cmp  %o0, 0
400016e8:	02 80 00 05 	be  400016fc <Checktree+0x94>
400016ec:	82 10 20 00 	clr  %g1
400016f0:	80 a4 20 00 	cmp  %l0, 0
400016f4:	32 80 00 02 	bne,a   400016fc <Checktree+0x94>
400016f8:	82 10 20 01 	mov  1, %g1
400016fc:	a0 10 00 01 	mov  %g1, %l0
40001700:	81 c7 e0 08 	ret 
40001704:	91 e8 00 10 	restore  %g0, %l0, %o0

40001708 <Trees>:
40001708:	9d e3 bf 98 	save  %sp, -104, %sp
4000170c:	7f ff ff 88 	call  4000152c <tInitarr>
40001710:	21 10 00 93 	sethi  %hi(0x40024c00), %l0
40001714:	40 00 09 fc 	call  40003f04 <malloc>
40001718:	90 10 20 0c 	mov  0xc, %o0
4000171c:	1b 10 00 62 	sethi  %hi(0x40018800), %o5
40001720:	9a 13 63 9c 	or  %o5, 0x39c, %o5	! 40018b9c <sortlist>
40001724:	c2 03 60 04 	ld  [ %o5 + 4 ], %g1
40001728:	c2 22 20 08 	st  %g1, [ %o0 + 8 ]
4000172c:	d0 24 23 24 	st  %o0, [ %l0 + 0x324 ]
40001730:	03 00 00 04 	sethi  %hi(0x1000), %g1
40001734:	c0 22 00 00 	clr  [ %o0 ]
40001738:	c0 22 20 04 	clr  [ %o0 + 4 ]
4000173c:	a4 10 00 0d 	mov  %o5, %l2
40001740:	a2 10 63 88 	or  %g1, 0x388, %l1
40001744:	b0 10 20 02 	mov  2, %i0
40001748:	83 2e 20 02 	sll  %i0, 2, %g1
4000174c:	d0 04 80 01 	ld  [ %l2 + %g1 ], %o0
40001750:	7f ff ff af 	call  4000160c <Insert>
40001754:	d2 04 23 24 	ld  [ %l0 + 0x324 ], %o1
40001758:	b0 06 20 01 	inc  %i0
4000175c:	80 a6 00 11 	cmp  %i0, %l1
40001760:	04 bf ff fb 	ble  4000174c <Trees+0x44>
40001764:	83 2e 20 02 	sll  %i0, 2, %g1
40001768:	7f ff ff c0 	call  40001668 <Checktree>
4000176c:	d0 04 23 24 	ld  [ %l0 + 0x324 ], %o0
40001770:	80 a2 20 00 	cmp  %o0, 0
40001774:	12 80 00 04 	bne  40001784 <Trees+0x7c>
40001778:	11 10 00 32 	sethi  %hi(0x4000c800), %o0
4000177c:	40 00 0c 18 	call  400047dc <puts>
40001780:	90 12 20 08 	or  %o0, 8, %o0	! 4000c808 <___DTOR_END__+0xe8>
40001784:	81 c7 e0 08 	ret 
40001788:	81 e8 00 00 	restore 

4000178c <bInitarr>:
4000178c:	9d e3 bf 98 	save  %sp, -104, %sp
40001790:	7f ff fa 85 	call  400001a4 <Initrand>
40001794:	21 10 00 76 	sethi  %hi(0x4001d800), %l0
40001798:	03 10 00 62 	sethi  %hi(0x40018800), %g1
4000179c:	1b 05 3e 2d 	sethi  %hi(0x14f8b400), %o5
400017a0:	aa 10 63 9c 	or  %g1, 0x39c, %l5
400017a4:	a8 13 61 89 	or  %o5, 0x189, %l4
400017a8:	23 10 00 62 	sethi  %hi(0x40018800), %l1
400017ac:	03 00 00 61 	sethi  %hi(0x18400), %g1
400017b0:	1b 3f ff cf 	sethi  %hi(0xffff3c00), %o5
400017b4:	c0 24 21 c0 	clr  [ %l0 + 0x1c0 ]
400017b8:	c0 24 63 98 	clr  [ %l1 + 0x398 ]
400017bc:	a6 10 62 a0 	or  %g1, 0x2a0, %l3
400017c0:	a4 13 60 b0 	or  %o5, 0xb0, %l2
400017c4:	10 80 00 07 	b  400017e0 <bInitarr+0x54>
400017c8:	b0 10 20 01 	mov  1, %i0
400017cc:	d0 24 21 c0 	st  %o0, [ %l0 + 0x1c0 ]
400017d0:	b0 06 20 01 	inc  %i0
400017d4:	80 a6 21 f4 	cmp  %i0, 0x1f4
400017d8:	14 80 00 18 	bg  40001838 <bInitarr+0xac>
400017dc:	01 00 00 00 	nop 
400017e0:	7f ff fa 76 	call  400001b8 <Rand>
400017e4:	01 00 00 00 	nop 
400017e8:	80 5a 00 14 	smul  %o0, %l4, %g0
400017ec:	83 40 00 00 	rd  %y, %g1
400017f0:	9b 3a 20 1f 	sra  %o0, 0x1f, %o5
400017f4:	83 38 60 0d 	sra  %g1, 0xd, %g1
400017f8:	82 20 40 0d 	sub  %g1, %o5, %g1
400017fc:	82 58 40 13 	smul  %g1, %l3, %g1
40001800:	90 22 00 01 	sub  %o0, %g1, %o0
40001804:	90 02 00 12 	add  %o0, %l2, %o0
40001808:	83 2e 20 02 	sll  %i0, 2, %g1
4000180c:	da 04 21 c0 	ld  [ %l0 + 0x1c0 ], %o5
40001810:	80 a2 00 0d 	cmp  %o0, %o5
40001814:	14 bf ff ee 	bg  400017cc <bInitarr+0x40>
40001818:	d0 25 40 01 	st  %o0, [ %l5 + %g1 ]
4000181c:	c2 04 63 98 	ld  [ %l1 + 0x398 ], %g1
40001820:	80 a2 00 01 	cmp  %o0, %g1
40001824:	16 bf ff ec 	bge  400017d4 <bInitarr+0x48>
40001828:	b0 06 20 01 	inc  %i0
4000182c:	80 a6 21 f4 	cmp  %i0, 0x1f4
40001830:	04 bf ff ec 	ble  400017e0 <bInitarr+0x54>
40001834:	d0 24 63 98 	st  %o0, [ %l1 + 0x398 ]
40001838:	81 c7 e0 08 	ret 
4000183c:	81 e8 00 00 	restore 

40001840 <Bubble>:
40001840:	9d e3 bf 98 	save  %sp, -104, %sp
40001844:	7f ff ff d2 	call  4000178c <bInitarr>
40001848:	21 10 00 62 	sethi  %hi(0x40018800), %l0
4000184c:	1f 10 00 60 	sethi  %hi(0x40018000), %o7
40001850:	82 10 21 f4 	mov  0x1f4, %g1
40001854:	c2 23 e3 88 	st  %g1, [ %o7 + 0x388 ]
40001858:	82 10 00 0f 	mov  %o7, %g1
4000185c:	b0 14 23 9c 	or  %l0, 0x39c, %i0
40001860:	c2 00 63 88 	ld  [ %g1 + 0x388 ], %g1
40001864:	94 10 20 01 	mov  1, %o2
40001868:	80 a2 80 01 	cmp  %o2, %g1
4000186c:	36 80 00 11 	bge,a   400018b0 <Bubble+0x70>
40001870:	c2 03 e3 88 	ld  [ %o7 + 0x388 ], %g1
40001874:	90 10 00 01 	mov  %g1, %o0
40001878:	92 10 00 18 	mov  %i0, %o1
4000187c:	83 2a a0 02 	sll  %o2, 2, %g1
40001880:	96 00 40 09 	add  %g1, %o1, %o3
40001884:	d8 02 40 01 	ld  [ %o1 + %g1 ], %o4
40001888:	da 02 e0 04 	ld  [ %o3 + 4 ], %o5
4000188c:	80 a3 00 0d 	cmp  %o4, %o5
40001890:	04 80 00 04 	ble  400018a0 <Bubble+0x60>
40001894:	94 02 a0 01 	inc  %o2
40001898:	da 22 40 01 	st  %o5, [ %o1 + %g1 ]
4000189c:	d8 22 e0 04 	st  %o4, [ %o3 + 4 ]
400018a0:	80 a2 80 08 	cmp  %o2, %o0
400018a4:	26 bf ff f7 	bl,a   40001880 <Bubble+0x40>
400018a8:	83 2a a0 02 	sll  %o2, 2, %g1
400018ac:	c2 03 e3 88 	ld  [ %o7 + 0x388 ], %g1
400018b0:	82 00 7f ff 	add  %g1, -1, %g1
400018b4:	c2 23 e3 88 	st  %g1, [ %o7 + 0x388 ]
400018b8:	1f 10 00 60 	sethi  %hi(0x40018000), %o7
400018bc:	80 a0 60 01 	cmp  %g1, 1
400018c0:	14 bf ff e8 	bg  40001860 <Bubble+0x20>
400018c4:	82 10 00 0f 	mov  %o7, %g1
400018c8:	96 14 23 9c 	or  %l0, 0x39c, %o3
400018cc:	03 10 00 62 	sethi  %hi(0x40018800), %g1
400018d0:	d8 00 63 98 	ld  [ %g1 + 0x398 ], %o4	! 40018b98 <littlest>
400018d4:	da 02 e0 04 	ld  [ %o3 + 4 ], %o5
400018d8:	80 a3 40 0c 	cmp  %o5, %o4
400018dc:	12 80 00 08 	bne  400018fc <Bubble+0xbc>
400018e0:	11 10 00 32 	sethi  %hi(0x4000c800), %o0
400018e4:	1b 10 00 76 	sethi  %hi(0x4001d800), %o5
400018e8:	c2 02 e7 d0 	ld  [ %o3 + 0x7d0 ], %g1
400018ec:	d8 03 61 c0 	ld  [ %o5 + 0x1c0 ], %o4
400018f0:	80 a0 40 0c 	cmp  %g1, %o4
400018f4:	02 80 00 04 	be  40001904 <Bubble+0xc4>
400018f8:	01 00 00 00 	nop 
400018fc:	40 00 0b b8 	call  400047dc <puts>
40001900:	90 12 20 18 	or  %o0, 0x18, %o0
40001904:	81 c7 e0 08 	ret 
40001908:	81 e8 00 00 	restore 

4000190c <Cos>:
4000190c:	9d e3 bf 98 	save  %sp, -104, %sp
40001910:	90 10 00 18 	mov  %i0, %o0
40001914:	40 00 07 d2 	call  4000385c <__truncdfsf2>
40001918:	92 10 00 19 	mov  %i1, %o1
4000191c:	03 10 00 32 	sethi  %hi(0x4000c800), %g1
40001920:	a4 10 00 08 	mov  %o0, %l2
40001924:	f0 00 62 98 	ld  [ %g1 + 0x298 ], %i0
40001928:	a2 10 20 01 	mov  1, %l1
4000192c:	a0 10 00 08 	mov  %o0, %l0
40001930:	b2 10 20 02 	mov  2, %i1
40001934:	90 10 00 10 	mov  %l0, %o0
40001938:	40 00 04 56 	call  40002a90 <__mulsf3>
4000193c:	92 10 00 12 	mov  %l2, %o1
40001940:	a0 10 00 08 	mov  %o0, %l0
40001944:	80 8e 60 01 	btst  1, %i1
40001948:	12 80 00 18 	bne  400019a8 <Cos+0x9c>
4000194c:	a2 5c 40 19 	smul  %l1, %i1, %l1
40001950:	80 8e 60 03 	btst  3, %i1
40001954:	12 80 00 0c 	bne  40001984 <Cos+0x78>
40001958:	90 10 00 11 	mov  %l1, %o0
4000195c:	40 00 05 1c 	call  40002dcc <__floatsisf>
40001960:	01 00 00 00 	nop 
40001964:	92 10 00 08 	mov  %o0, %o1
40001968:	40 00 04 c1 	call  40002c6c <__divsf3>
4000196c:	90 10 00 10 	mov  %l0, %o0
40001970:	92 10 00 08 	mov  %o0, %o1
40001974:	40 00 04 1e 	call  400029ec <__addsf3>
40001978:	90 10 00 18 	mov  %i0, %o0
4000197c:	10 80 00 0b 	b  400019a8 <Cos+0x9c>
40001980:	b0 10 00 08 	mov  %o0, %i0
40001984:	40 00 05 12 	call  40002dcc <__floatsisf>
40001988:	90 10 00 11 	mov  %l1, %o0
4000198c:	92 10 00 08 	mov  %o0, %o1
40001990:	40 00 04 b7 	call  40002c6c <__divsf3>
40001994:	90 10 00 10 	mov  %l0, %o0
40001998:	92 10 00 08 	mov  %o0, %o1
4000199c:	40 00 04 27 	call  40002a38 <__subsf3>
400019a0:	90 10 00 18 	mov  %i0, %o0
400019a4:	b0 10 00 08 	mov  %o0, %i0
400019a8:	b2 06 60 01 	inc  %i1
400019ac:	80 a6 60 0a 	cmp  %i1, 0xa
400019b0:	04 bf ff e2 	ble  40001938 <Cos+0x2c>
400019b4:	90 10 00 10 	mov  %l0, %o0
400019b8:	81 c7 e0 08 	ret 
400019bc:	81 e8 00 00 	restore 

400019c0 <Min0>:
400019c0:	80 a2 00 09 	cmp  %o0, %o1
400019c4:	36 80 00 02 	bge,a   400019cc <Min0+0xc>
400019c8:	90 10 00 09 	mov  %o1, %o0
400019cc:	81 c3 e0 08 	retl 
400019d0:	01 00 00 00 	nop 

400019d4 <Printcomplex>:
400019d4:	9d e3 bf 98 	save  %sp, -104, %sp
400019d8:	40 00 0b 62 	call  40004760 <putchar>
400019dc:	90 10 20 0a 	mov  0xa, %o0
400019e0:	31 10 00 32 	sethi  %hi(0x4000c800), %i0
400019e4:	a1 2e e0 03 	sll  %i3, 3, %l0
400019e8:	40 00 05 25 	call  40002e7c <__extendsfdf2>
400019ec:	d0 06 80 10 	ld  [ %i2 + %l0 ], %o0
400019f0:	a4 10 00 08 	mov  %o0, %l2
400019f4:	a0 06 80 10 	add  %i2, %l0, %l0
400019f8:	a6 10 00 09 	mov  %o1, %l3
400019fc:	40 00 05 20 	call  40002e7c <__extendsfdf2>
40001a00:	d0 04 20 04 	ld  [ %l0 + 4 ], %o0
40001a04:	a0 10 00 08 	mov  %o0, %l0
40001a08:	a2 10 00 09 	mov  %o1, %l1
40001a0c:	94 10 00 13 	mov  %l3, %o2
40001a10:	96 10 00 10 	mov  %l0, %o3
40001a14:	98 10 00 11 	mov  %l1, %o4
40001a18:	92 10 00 12 	mov  %l2, %o1
40001a1c:	b6 06 c0 1d 	add  %i3, %i5, %i3
40001a20:	40 00 0b 1c 	call  40004690 <printf>
40001a24:	90 16 20 30 	or  %i0, 0x30, %o0
40001a28:	a1 2e e0 03 	sll  %i3, 3, %l0
40001a2c:	40 00 05 14 	call  40002e7c <__extendsfdf2>
40001a30:	d0 06 80 10 	ld  [ %i2 + %l0 ], %o0
40001a34:	a4 10 00 08 	mov  %o0, %l2
40001a38:	a0 06 80 10 	add  %i2, %l0, %l0
40001a3c:	d0 04 20 04 	ld  [ %l0 + 4 ], %o0
40001a40:	40 00 05 0f 	call  40002e7c <__extendsfdf2>
40001a44:	a6 10 00 09 	mov  %o1, %l3
40001a48:	a0 10 00 08 	mov  %o0, %l0
40001a4c:	a2 10 00 09 	mov  %o1, %l1
40001a50:	92 10 00 12 	mov  %l2, %o1
40001a54:	94 10 00 13 	mov  %l3, %o2
40001a58:	96 10 00 10 	mov  %l0, %o3
40001a5c:	98 10 00 11 	mov  %l1, %o4
40001a60:	40 00 0b 0c 	call  40004690 <printf>
40001a64:	90 16 20 30 	or  %i0, 0x30, %o0
40001a68:	40 00 0b 3e 	call  40004760 <putchar>
40001a6c:	90 10 20 0a 	mov  0xa, %o0
40001a70:	b6 06 c0 1d 	add  %i3, %i5, %i3
40001a74:	80 a6 c0 1c 	cmp  %i3, %i4
40001a78:	04 bf ff dc 	ble  400019e8 <Printcomplex+0x14>
40001a7c:	a1 2e e0 03 	sll  %i3, 3, %l0
40001a80:	81 c7 e0 08 	ret 
40001a84:	81 e8 00 00 	restore 

40001a88 <Uniform11>:
40001a88:	81 c3 e0 08 	retl 
40001a8c:	01 00 00 00 	nop 

40001a90 <Exptab>:
40001a90:	9d e3 bf 30 	save  %sp, -208, %sp
40001a94:	03 10 00 32 	sethi  %hi(0x4000c800), %g1
40001a98:	1b 10 00 32 	sethi  %hi(0x4000c800), %o5
40001a9c:	e0 00 62 9c 	ld  [ %g1 + 0x29c ], %l0
40001aa0:	e4 03 62 98 	ld  [ %o5 + 0x298 ], %l2
40001aa4:	b8 07 bf f8 	add  %fp, -8, %i4
40001aa8:	a2 07 bf 94 	add  %fp, -108, %l1
40001aac:	ae 10 20 18 	mov  0x18, %l7
40001ab0:	11 10 12 43 	sethi  %hi(0x40490c00), %o0
40001ab4:	92 10 00 10 	mov  %l0, %o1
40001ab8:	40 00 04 6d 	call  40002c6c <__divsf3>
40001abc:	90 12 23 db 	or  %o0, 0x3db, %o0
40001ac0:	40 00 04 ef 	call  40002e7c <__extendsfdf2>
40001ac4:	01 00 00 00 	nop 
40001ac8:	7f ff ff 91 	call  4000190c <Cos>
40001acc:	01 00 00 00 	nop 
40001ad0:	40 00 03 c7 	call  400029ec <__addsf3>
40001ad4:	92 10 00 08 	mov  %o0, %o1
40001ad8:	92 10 00 08 	mov  %o0, %o1
40001adc:	40 00 04 64 	call  40002c6c <__divsf3>
40001ae0:	11 0f e0 00 	sethi  %hi(0x3f800000), %o0
40001ae4:	d0 24 40 00 	st  %o0, [ %l1 ]
40001ae8:	90 10 00 10 	mov  %l0, %o0
40001aec:	40 00 03 c0 	call  400029ec <__addsf3>
40001af0:	92 10 00 10 	mov  %l0, %o1
40001af4:	a0 10 00 08 	mov  %o0, %l0
40001af8:	ae 85 ff ff 	addcc  %l7, -1, %l7
40001afc:	1c bf ff ed 	bpos  40001ab0 <Exptab+0x20>
40001b00:	a2 04 60 04 	add  %l1, 4, %l1
40001b04:	83 36 20 1f 	srl  %i0, 0x1f, %g1
40001b08:	82 06 00 01 	add  %i0, %g1, %g1
40001b0c:	b1 38 60 01 	sra  %g1, 1, %i0
40001b10:	9b 30 60 1f 	srl  %g1, 0x1f, %o5
40001b14:	9a 06 00 0d 	add  %i0, %o5, %o5
40001b18:	03 10 00 32 	sethi  %hi(0x4000c800), %g1
40001b1c:	a9 3b 60 01 	sra  %o5, 1, %l4
40001b20:	d6 00 62 94 	ld  [ %g1 + 0x294 ], %o3
40001b24:	9b 2d 20 03 	sll  %l4, 3, %o5
40001b28:	9a 03 40 19 	add  %o5, %i1, %o5
40001b2c:	e4 26 60 08 	st  %l2, [ %i1 + 8 ]
40001b30:	d6 26 60 0c 	st  %o3, [ %i1 + 0xc ]
40001b34:	e4 23 60 0c 	st  %l2, [ %o5 + 0xc ]
40001b38:	d6 23 60 08 	st  %o3, [ %o5 + 8 ]
40001b3c:	99 2e 20 03 	sll  %i0, 3, %o4
40001b40:	03 10 00 32 	sethi  %hi(0x4000c800), %g1
40001b44:	98 03 00 19 	add  %o4, %i1, %o4
40001b48:	da 00 62 a0 	ld  [ %g1 + 0x2a0 ], %o5
40001b4c:	d6 23 20 0c 	st  %o3, [ %o4 + 0xc ]
40001b50:	da 23 20 08 	st  %o5, [ %o4 + 8 ]
40001b54:	ba 10 20 01 	mov  1, %i5
40001b58:	83 35 20 1f 	srl  %l4, 0x1f, %g1
40001b5c:	82 05 00 01 	add  %l4, %g1, %g1
40001b60:	af 38 60 01 	sra  %g1, 1, %l7
40001b64:	9b 2f 60 02 	sll  %i5, 2, %o5
40001b68:	9a 03 40 1c 	add  %o5, %i4, %o5
40001b6c:	83 2d e0 04 	sll  %l7, 4, %g1
40001b70:	a6 10 00 19 	mov  %i1, %l3
40001b74:	ec 03 7f 98 	ld  [ %o5 + -104 ], %l6
40001b78:	a4 00 40 19 	add  %g1, %i1, %l2
40001b7c:	a2 10 00 17 	mov  %l7, %l1
40001b80:	ab 2d 20 03 	sll  %l4, 3, %l5
40001b84:	d2 04 e0 08 	ld  [ %l3 + 8 ], %o1
40001b88:	40 00 03 99 	call  400029ec <__addsf3>
40001b8c:	d0 04 a0 08 	ld  [ %l2 + 8 ], %o0
40001b90:	92 10 00 08 	mov  %o0, %o1
40001b94:	a1 2c 60 03 	sll  %l1, 3, %l0
40001b98:	40 00 03 be 	call  40002a90 <__mulsf3>
40001b9c:	90 10 00 16 	mov  %l6, %o0
40001ba0:	a0 04 00 19 	add  %l0, %i1, %l0
40001ba4:	d0 24 20 08 	st  %o0, [ %l0 + 8 ]
40001ba8:	d2 04 e0 0c 	ld  [ %l3 + 0xc ], %o1
40001bac:	40 00 03 90 	call  400029ec <__addsf3>
40001bb0:	d0 04 a0 0c 	ld  [ %l2 + 0xc ], %o0
40001bb4:	92 10 00 08 	mov  %o0, %o1
40001bb8:	40 00 03 b6 	call  40002a90 <__mulsf3>
40001bbc:	90 10 00 16 	mov  %l6, %o0
40001bc0:	a2 04 40 14 	add  %l1, %l4, %l1
40001bc4:	d0 24 20 0c 	st  %o0, [ %l0 + 0xc ]
40001bc8:	a4 04 80 15 	add  %l2, %l5, %l2
40001bcc:	80 a4 40 18 	cmp  %l1, %i0
40001bd0:	04 bf ff ed 	ble  40001b84 <Exptab+0xf4>
40001bd4:	a6 04 c0 15 	add  %l3, %l5, %l3
40001bd8:	90 07 60 01 	add  %i5, 1, %o0
40001bdc:	7f ff ff 79 	call  400019c0 <Min0>
40001be0:	92 10 20 19 	mov  0x19, %o1
40001be4:	ba 10 00 08 	mov  %o0, %i5
40001be8:	80 a5 e0 01 	cmp  %l7, 1
40001bec:	14 bf ff db 	bg  40001b58 <Exptab+0xc8>
40001bf0:	a8 10 00 17 	mov  %l7, %l4
40001bf4:	81 c7 e0 08 	ret 
40001bf8:	81 e8 00 00 	restore 

40001bfc <Fft>:
40001bfc:	9d e3 bf 90 	save  %sp, -112, %sp
40001c00:	90 10 00 1c 	mov  %i4, %o0
40001c04:	40 00 07 16 	call  4000385c <__truncdfsf2>
40001c08:	92 10 00 1d 	mov  %i5, %o1
40001c0c:	83 36 20 1f 	srl  %i0, 0x1f, %g1
40001c10:	82 06 00 01 	add  %i0, %g1, %g1
40001c14:	f0 27 a0 44 	st  %i0, [ %fp + 0x44 ]
40001c18:	f6 27 a0 50 	st  %i3, [ %fp + 0x50 ]
40001c1c:	d0 27 bf f4 	st  %o0, [ %fp + -12 ]
40001c20:	b7 38 60 01 	sra  %g1, 1, %i3
40001c24:	b0 10 20 01 	mov  1, %i0
40001c28:	82 10 20 00 	clr  %g1
40001c2c:	ae 10 00 18 	mov  %i0, %l7
40001c30:	ac 10 20 01 	mov  1, %l6
40001c34:	96 05 80 01 	add  %l6, %g1, %o3
40001c38:	83 28 60 03 	sll  %g1, 3, %g1
40001c3c:	9a 05 80 17 	add  %l6, %l7, %o5
40001c40:	98 05 80 1b 	add  %l6, %i3, %o4
40001c44:	d4 07 a0 50 	ld  [ %fp + 0x50 ], %o2
40001c48:	aa 00 40 0a 	add  %g1, %o2, %l5
40001c4c:	a9 2b 60 03 	sll  %o5, 3, %l4
40001c50:	bb 2b 20 03 	sll  %o4, 3, %i5
40001c54:	b9 2a e0 03 	sll  %o3, 3, %i4
40001c58:	a3 2d a0 03 	sll  %l6, 3, %l1
40001c5c:	d2 06 40 1d 	ld  [ %i1 + %i5 ], %o1
40001c60:	40 00 03 63 	call  400029ec <__addsf3>
40001c64:	d0 06 40 11 	ld  [ %i1 + %l1 ], %o0
40001c68:	a0 06 40 1d 	add  %i1, %i5, %l0
40001c6c:	d0 27 00 1a 	st  %o0, [ %i4 + %i2 ]
40001c70:	a4 06 40 11 	add  %i1, %l1, %l2
40001c74:	d2 04 20 04 	ld  [ %l0 + 4 ], %o1
40001c78:	40 00 03 5d 	call  400029ec <__addsf3>
40001c7c:	d0 04 a0 04 	ld  [ %l2 + 4 ], %o0
40001c80:	82 06 80 1c 	add  %i2, %i4, %g1
40001c84:	d0 20 60 04 	st  %o0, [ %g1 + 4 ]
40001c88:	d2 06 40 1d 	ld  [ %i1 + %i5 ], %o1
40001c8c:	40 00 03 6b 	call  40002a38 <__subsf3>
40001c90:	d0 06 40 11 	ld  [ %i1 + %l1 ], %o0
40001c94:	92 10 00 08 	mov  %o0, %o1
40001c98:	40 00 03 7e 	call  40002a90 <__mulsf3>
40001c9c:	d0 05 60 08 	ld  [ %l5 + 8 ], %o0
40001ca0:	a6 10 00 08 	mov  %o0, %l3
40001ca4:	d2 04 20 04 	ld  [ %l0 + 4 ], %o1
40001ca8:	40 00 03 64 	call  40002a38 <__subsf3>
40001cac:	d0 04 a0 04 	ld  [ %l2 + 4 ], %o0
40001cb0:	a0 10 00 08 	mov  %o0, %l0
40001cb4:	e4 05 60 0c 	ld  [ %l5 + 0xc ], %l2
40001cb8:	92 10 00 08 	mov  %o0, %o1
40001cbc:	40 00 03 75 	call  40002a90 <__mulsf3>
40001cc0:	90 10 00 12 	mov  %l2, %o0
40001cc4:	92 10 00 08 	mov  %o0, %o1
40001cc8:	40 00 03 5c 	call  40002a38 <__subsf3>
40001ccc:	90 10 00 13 	mov  %l3, %o0
40001cd0:	d0 25 00 1a 	st  %o0, [ %l4 + %i2 ]
40001cd4:	92 10 00 10 	mov  %l0, %o1
40001cd8:	40 00 03 6e 	call  40002a90 <__mulsf3>
40001cdc:	d0 05 60 08 	ld  [ %l5 + 8 ], %o0
40001ce0:	a0 10 00 08 	mov  %o0, %l0
40001ce4:	d2 06 40 1d 	ld  [ %i1 + %i5 ], %o1
40001ce8:	40 00 03 54 	call  40002a38 <__subsf3>
40001cec:	d0 06 40 11 	ld  [ %i1 + %l1 ], %o0
40001cf0:	92 10 00 08 	mov  %o0, %o1
40001cf4:	40 00 03 67 	call  40002a90 <__mulsf3>
40001cf8:	90 10 00 12 	mov  %l2, %o0
40001cfc:	92 10 00 08 	mov  %o0, %o1
40001d00:	40 00 03 3b 	call  400029ec <__addsf3>
40001d04:	90 10 00 10 	mov  %l0, %o0
40001d08:	82 06 80 14 	add  %i2, %l4, %g1
40001d0c:	ac 05 a0 01 	inc  %l6
40001d10:	d0 20 60 04 	st  %o0, [ %g1 + 4 ]
40001d14:	b8 07 20 08 	add  %i4, 8, %i4
40001d18:	ba 07 60 08 	add  %i5, 8, %i5
40001d1c:	80 a5 80 17 	cmp  %l6, %l7
40001d20:	04 bf ff ce 	ble  40001c58 <Fft+0x5c>
40001d24:	a8 05 20 08 	add  %l4, 8, %l4
40001d28:	82 10 00 17 	mov  %l7, %g1
40001d2c:	ae 05 c0 18 	add  %l7, %i0, %l7
40001d30:	80 a5 c0 1b 	cmp  %l7, %i3
40001d34:	04 bf ff c1 	ble  40001c38 <Fft+0x3c>
40001d38:	96 05 80 01 	add  %l6, %g1, %o3
40001d3c:	96 10 20 01 	mov  1, %o3
40001d40:	83 2a e0 03 	sll  %o3, 3, %g1
40001d44:	da 06 80 01 	ld  [ %i2 + %g1 ], %o5
40001d48:	da 26 40 01 	st  %o5, [ %i1 + %g1 ]
40001d4c:	98 06 80 01 	add  %i2, %g1, %o4
40001d50:	da 03 20 04 	ld  [ %o4 + 4 ], %o5
40001d54:	82 06 40 01 	add  %i1, %g1, %g1
40001d58:	da 20 60 04 	st  %o5, [ %g1 + 4 ]
40001d5c:	96 02 e0 01 	inc  %o3
40001d60:	da 07 a0 44 	ld  [ %fp + 0x44 ], %o5
40001d64:	80 a2 c0 0d 	cmp  %o3, %o5
40001d68:	24 bf ff f7 	ble,a   40001d44 <Fft+0x148>
40001d6c:	83 2a e0 03 	sll  %o3, 3, %g1
40001d70:	b0 06 00 18 	add  %i0, %i0, %i0
40001d74:	80 a6 00 1b 	cmp  %i0, %i3
40001d78:	04 bf ff ad 	ble  40001c2c <Fft+0x30>
40001d7c:	82 10 20 00 	clr  %g1
40001d80:	ac 10 20 01 	mov  1, %l6
40001d84:	80 a5 80 0d 	cmp  %l6, %o5
40001d88:	14 80 00 12 	bg  40001dd0 <Fft+0x1d4>
40001d8c:	03 20 00 00 	sethi  %hi(0x80000000), %g1
40001d90:	d4 07 bf f4 	ld  [ %fp + -12 ], %o2
40001d94:	a2 18 40 0a 	xor  %g1, %o2, %l1
40001d98:	a1 2d a0 03 	sll  %l6, 3, %l0
40001d9c:	d0 06 40 10 	ld  [ %i1 + %l0 ], %o0
40001da0:	40 00 03 3c 	call  40002a90 <__mulsf3>
40001da4:	d2 07 bf f4 	ld  [ %fp + -12 ], %o1
40001da8:	d0 26 40 10 	st  %o0, [ %i1 + %l0 ]
40001dac:	a0 06 40 10 	add  %i1, %l0, %l0
40001db0:	d2 04 20 04 	ld  [ %l0 + 4 ], %o1
40001db4:	40 00 03 37 	call  40002a90 <__mulsf3>
40001db8:	90 10 00 11 	mov  %l1, %o0
40001dbc:	ac 05 a0 01 	inc  %l6
40001dc0:	da 07 a0 44 	ld  [ %fp + 0x44 ], %o5
40001dc4:	80 a5 80 0d 	cmp  %l6, %o5
40001dc8:	04 bf ff f4 	ble  40001d98 <Fft+0x19c>
40001dcc:	d0 24 20 04 	st  %o0, [ %l0 + 4 ]
40001dd0:	81 c7 e0 08 	ret 
40001dd4:	81 e8 00 00 	restore 

40001dd8 <Oscar>:
40001dd8:	9d e3 bf 98 	save  %sp, -104, %sp
40001ddc:	29 10 00 8c 	sethi  %hi(0x40023000), %l4
40001de0:	92 15 20 d0 	or  %l4, 0xd0, %o1	! 400230d0 <e>
40001de4:	7f ff ff 2b 	call  40001a90 <Exptab>
40001de8:	90 10 21 00 	mov  0x100, %o0
40001dec:	03 00 00 05 	sethi  %hi(0x1400), %g1
40001df0:	19 10 00 60 	sethi  %hi(0x40018000), %o4
40001df4:	1b 10 00 76 	sethi  %hi(0x4001d800), %o5
40001df8:	82 10 62 87 	or  %g1, 0x287, %g1
40001dfc:	c2 23 61 c4 	st  %g1, [ %o5 + 0x1c4 ]
40001e00:	40 00 04 1f 	call  40002e7c <__extendsfdf2>
40001e04:	d0 03 23 8c 	ld  [ %o4 + 0x38c ], %o0
40001e08:	03 10 00 32 	sethi  %hi(0x4000c800), %g1
40001e0c:	e4 18 62 a8 	ldd  [ %g1 + 0x2a8 ], %l2	! 4000caa8 <___DTOR_END__+0x388>
40001e10:	94 10 00 12 	mov  %l2, %o2
40001e14:	40 00 05 0c 	call  40003244 <__muldf3>
40001e18:	96 10 00 13 	mov  %l3, %o3
40001e1c:	03 10 00 32 	sethi  %hi(0x4000c800), %g1
40001e20:	e0 18 62 b0 	ldd  [ %g1 + 0x2b0 ], %l0	! 4000cab0 <___DTOR_END__+0x390>
40001e24:	94 10 00 10 	mov  %l0, %o2
40001e28:	40 00 04 f0 	call  400031e8 <__subdf3>
40001e2c:	96 10 00 11 	mov  %l1, %o3
40001e30:	40 00 06 8b 	call  4000385c <__truncdfsf2>
40001e34:	01 00 00 00 	nop 
40001e38:	03 10 00 58 	sethi  %hi(0x40016000), %g1
40001e3c:	b0 10 00 08 	mov  %o0, %i0
40001e40:	40 00 04 0f 	call  40002e7c <__extendsfdf2>
40001e44:	d0 00 60 24 	ld  [ %g1 + 0x24 ], %o0
40001e48:	94 10 00 12 	mov  %l2, %o2
40001e4c:	40 00 04 fe 	call  40003244 <__muldf3>
40001e50:	96 10 00 13 	mov  %l3, %o3
40001e54:	94 10 00 10 	mov  %l0, %o2
40001e58:	40 00 04 e4 	call  400031e8 <__subdf3>
40001e5c:	96 10 00 11 	mov  %l1, %o3
40001e60:	40 00 06 7f 	call  4000385c <__truncdfsf2>
40001e64:	23 10 00 60 	sethi  %hi(0x40018000), %l1
40001e68:	a0 10 20 01 	mov  1, %l0
40001e6c:	98 14 63 90 	or  %l1, 0x390, %o4
40001e70:	9b 2c 20 03 	sll  %l0, 3, %o5
40001e74:	82 03 40 0c 	add  %o5, %o4, %g1
40001e78:	a0 04 20 01 	inc  %l0
40001e7c:	d0 20 60 04 	st  %o0, [ %g1 + 4 ]
40001e80:	80 a4 21 00 	cmp  %l0, 0x100
40001e84:	04 bf ff fb 	ble  40001e70 <Oscar+0x98>
40001e88:	f0 23 00 0d 	st  %i0, [ %o4 + %o5 ]
40001e8c:	31 10 00 32 	sethi  %hi(0x4000c800), %i0
40001e90:	25 10 00 5e 	sethi  %hi(0x40017800), %l2
40001e94:	a0 10 20 13 	mov  0x13, %l0
40001e98:	90 10 21 00 	mov  0x100, %o0
40001e9c:	92 14 63 90 	or  %l1, 0x390, %o1
40001ea0:	94 14 a2 9c 	or  %l2, 0x29c, %o2
40001ea4:	96 15 20 d0 	or  %l4, 0xd0, %o3
40001ea8:	7f ff ff 55 	call  40001bfc <Fft>
40001eac:	d8 1e 22 b8 	ldd  [ %i0 + 0x2b8 ], %o4
40001eb0:	a0 84 3f ff 	addcc  %l0, -1, %l0
40001eb4:	1c bf ff fa 	bpos  40001e9c <Oscar+0xc4>
40001eb8:	90 10 21 00 	mov  0x100, %o0
40001ebc:	81 c7 e0 08 	ret 
40001ec0:	81 e8 00 00 	restore 

40001ec4 <memMapAddress>:
40001ec4:	03 2a aa 95 	sethi  %hi(0xaaaa5400), %g1
40001ec8:	82 10 61 55 	or  %g1, 0x155, %g1	! aaaa5555 <LEON_REG+0x2aaa5555>
40001ecc:	c2 22 00 00 	st  %g1, [ %o0 ]
40001ed0:	1b 15 55 6a 	sethi  %hi(0x5555a800), %o5
40001ed4:	9a 13 62 aa 	or  %o5, 0x2aa, %o5	! 5555aaaa <__end+0x15535b62>
40001ed8:	03 32 97 32 	sethi  %hi(0xca5cc800), %g1
40001edc:	da 22 00 00 	st  %o5, [ %o0 ]
40001ee0:	82 10 62 5c 	or  %g1, 0x25c, %g1
40001ee4:	c2 22 00 00 	st  %g1, [ %o0 ]
40001ee8:	d2 22 00 00 	st  %o1, [ %o0 ]
40001eec:	81 c3 e0 08 	retl 
40001ef0:	01 00 00 00 	nop 

40001ef4 <flushCache2>:
40001ef4:	81 d8 20 00 	flush  %g0
40001ef8:	01 00 00 00 	nop 
40001efc:	01 00 00 00 	nop 
40001f00:	01 00 00 00 	nop 
40001f04:	01 00 00 00 	nop 
40001f08:	01 00 00 00 	nop 
40001f0c:	81 c3 e0 08 	retl 
40001f10:	01 00 00 00 	nop 

40001f14 <main>:
40001f14:	9d e3 bf 90 	save  %sp, -112, %sp
40001f18:	82 10 20 2a 	mov  0x2a, %g1
40001f1c:	1b 10 00 32 	sethi  %hi(0x4000c800), %o5
40001f20:	c2 27 bf f4 	st  %g1, [ %fp + -12 ]
40001f24:	d8 03 62 94 	ld  [ %o5 + 0x294 ], %o4
40001f28:	31 10 00 85 	sethi  %hi(0x40021400), %i0
40001f2c:	37 10 00 37 	sethi  %hi(0x4000dc00), %i3
40001f30:	82 10 20 18 	mov  0x18, %g1
40001f34:	11 10 00 32 	sethi  %hi(0x4000c800), %o0
40001f38:	d8 26 e1 d0 	st  %o4, [ %i3 + 0x1d0 ]
40001f3c:	d8 26 22 88 	st  %o4, [ %i0 + 0x288 ]
40001f40:	c2 27 bf f0 	st  %g1, [ %fp + -16 ]
40001f44:	90 12 20 40 	or  %o0, 0x40, %o0
40001f48:	40 00 0a 25 	call  400047dc <puts>
40001f4c:	a0 07 bf f4 	add  %fp, -12, %l0
40001f50:	29 10 00 32 	sethi  %hi(0x4000c800), %l4
40001f54:	92 10 00 10 	mov  %l0, %o1
40001f58:	d4 07 bf f4 	ld  [ %fp + -12 ], %o2
40001f5c:	40 00 09 cd 	call  40004690 <printf>
40001f60:	90 15 20 70 	or  %l4, 0x70, %o0
40001f64:	a4 07 bf f0 	add  %fp, -16, %l2
40001f68:	27 10 00 32 	sethi  %hi(0x4000c800), %l3
40001f6c:	d4 07 bf f0 	ld  [ %fp + -16 ], %o2
40001f70:	92 10 00 12 	mov  %l2, %o1
40001f74:	40 00 09 c7 	call  40004690 <printf>
40001f78:	90 14 e0 88 	or  %l3, 0x88, %o0
40001f7c:	11 10 00 32 	sethi  %hi(0x4000c800), %o0
40001f80:	40 00 0a 17 	call  400047dc <puts>
40001f84:	90 12 20 a0 	or  %o0, 0xa0, %o0	! 4000c8a0 <___DTOR_END__+0x180>
40001f88:	92 10 00 12 	mov  %l2, %o1
40001f8c:	7f ff ff ce 	call  40001ec4 <memMapAddress>
40001f90:	90 10 00 10 	mov  %l0, %o0
40001f94:	11 10 00 32 	sethi  %hi(0x4000c800), %o0
40001f98:	40 00 0a 11 	call  400047dc <puts>
40001f9c:	90 12 20 c0 	or  %o0, 0xc0, %o0	! 4000c8c0 <___DTOR_END__+0x1a0>
40001fa0:	92 10 00 10 	mov  %l0, %o1
40001fa4:	d4 07 bf f4 	ld  [ %fp + -12 ], %o2
40001fa8:	40 00 09 ba 	call  40004690 <printf>
40001fac:	90 15 20 70 	or  %l4, 0x70, %o0
40001fb0:	92 10 00 12 	mov  %l2, %o1
40001fb4:	d4 07 bf f0 	ld  [ %fp + -16 ], %o2
40001fb8:	40 00 09 b6 	call  40004690 <printf>
40001fbc:	90 14 e0 88 	or  %l3, 0x88, %o0
40001fc0:	23 10 00 32 	sethi  %hi(0x4000c800), %l1
40001fc4:	40 00 0a 06 	call  400047dc <puts>
40001fc8:	90 14 60 f0 	or  %l1, 0xf0, %o0	! 4000c8f0 <___DTOR_END__+0x1d0>
40001fcc:	7f ff ff ca 	call  40001ef4 <flushCache2>
40001fd0:	01 00 00 00 	nop 
40001fd4:	11 10 00 32 	sethi  %hi(0x4000c800), %o0
40001fd8:	40 00 0a 01 	call  400047dc <puts>
40001fdc:	90 12 21 08 	or  %o0, 0x108, %o0	! 4000c908 <___DTOR_END__+0x1e8>
40001fe0:	92 10 00 10 	mov  %l0, %o1
40001fe4:	d4 07 bf f4 	ld  [ %fp + -12 ], %o2
40001fe8:	40 00 09 aa 	call  40004690 <printf>
40001fec:	90 15 20 70 	or  %l4, 0x70, %o0
40001ff0:	92 10 00 12 	mov  %l2, %o1
40001ff4:	d4 07 bf f0 	ld  [ %fp + -16 ], %o2
40001ff8:	40 00 09 a6 	call  40004690 <printf>
40001ffc:	90 14 e0 88 	or  %l3, 0x88, %o0
40002000:	11 10 00 32 	sethi  %hi(0x4000c800), %o0
40002004:	40 00 09 f6 	call  400047dc <puts>
40002008:	90 12 21 38 	or  %o0, 0x138, %o0	! 4000c938 <___DTOR_END__+0x218>
4000200c:	82 10 20 4d 	mov  0x4d, %g1
40002010:	c2 27 bf f4 	st  %g1, [ %fp + -12 ]
40002014:	40 00 09 f2 	call  400047dc <puts>
40002018:	90 14 60 f0 	or  %l1, 0xf0, %o0
4000201c:	7f ff ff b6 	call  40001ef4 <flushCache2>
40002020:	01 00 00 00 	nop 
40002024:	92 10 00 10 	mov  %l0, %o1
40002028:	d4 07 bf f4 	ld  [ %fp + -12 ], %o2
4000202c:	40 00 09 99 	call  40004690 <printf>
40002030:	90 15 20 70 	or  %l4, 0x70, %o0
40002034:	d4 07 bf f0 	ld  [ %fp + -16 ], %o2
40002038:	92 10 00 12 	mov  %l2, %o1
4000203c:	40 00 09 95 	call  40004690 <printf>
40002040:	90 14 e0 88 	or  %l3, 0x88, %o0
40002044:	11 10 00 32 	sethi  %hi(0x4000c800), %o0
40002048:	40 00 09 e5 	call  400047dc <puts>
4000204c:	90 12 21 78 	or  %o0, 0x178, %o0	! 4000c978 <___DTOR_END__+0x258>
40002050:	92 10 00 10 	mov  %l0, %o1
40002054:	7f ff ff 9c 	call  40001ec4 <memMapAddress>
40002058:	90 10 00 10 	mov  %l0, %o0
4000205c:	40 00 09 e0 	call  400047dc <puts>
40002060:	90 14 60 f0 	or  %l1, 0xf0, %o0
40002064:	7f ff ff a4 	call  40001ef4 <flushCache2>
40002068:	01 00 00 00 	nop 
4000206c:	92 10 00 10 	mov  %l0, %o1
40002070:	90 15 20 70 	or  %l4, 0x70, %o0
40002074:	d4 07 bf f4 	ld  [ %fp + -12 ], %o2
40002078:	40 00 09 86 	call  40004690 <printf>
4000207c:	01 00 00 00 	nop 
40002080:	d4 07 bf f0 	ld  [ %fp + -16 ], %o2
40002084:	92 10 00 12 	mov  %l2, %o1
40002088:	40 00 09 82 	call  40004690 <printf>
4000208c:	90 14 e0 88 	or  %l3, 0x88, %o0
40002090:	11 10 00 32 	sethi  %hi(0x4000c800), %o0
40002094:	40 00 09 d2 	call  400047dc <puts>
40002098:	90 12 21 90 	or  %o0, 0x190, %o0	! 4000c990 <___DTOR_END__+0x270>
4000209c:	11 10 00 32 	sethi  %hi(0x4000c800), %o0
400020a0:	40 00 09 7c 	call  40004690 <printf>
400020a4:	90 12 21 a0 	or  %o0, 0x1a0, %o0	! 4000c9a0 <___DTOR_END__+0x280>
400020a8:	7f ff f8 33 	call  40000174 <Getclock>
400020ac:	2d 10 00 58 	sethi  %hi(0x40016000), %l6
400020b0:	7f ff f8 7d 	call  400002a4 <Perm>
400020b4:	d0 25 a0 18 	st  %o0, [ %l6 + 0x18 ]	! 40016018 <timer>
400020b8:	7f ff f8 2f 	call  40000174 <Getclock>
400020bc:	2f 10 00 58 	sethi  %hi(0x40016000), %l7
400020c0:	c2 05 a0 18 	ld  [ %l6 + 0x18 ], %g1
400020c4:	ae 15 e0 28 	or  %l7, 0x28, %l7
400020c8:	a0 22 00 01 	sub  %o0, %g1, %l0
400020cc:	d0 06 22 88 	ld  [ %i0 + 0x288 ], %o0
400020d0:	40 00 03 6b 	call  40002e7c <__extendsfdf2>
400020d4:	e0 25 e0 04 	st  %l0, [ %l7 + 4 ]
400020d8:	a4 10 00 08 	mov  %o0, %l2
400020dc:	a6 10 00 09 	mov  %o1, %l3
400020e0:	40 00 05 93 	call  4000372c <__floatsidf>
400020e4:	90 10 00 10 	mov  %l0, %o0
400020e8:	03 10 00 32 	sethi  %hi(0x4000c800), %g1
400020ec:	40 00 04 56 	call  40003244 <__muldf3>
400020f0:	d4 18 62 c0 	ldd  [ %g1 + 0x2c0 ], %o2	! 4000cac0 <___DTOR_END__+0x3a0>
400020f4:	a0 10 00 08 	mov  %o0, %l0
400020f8:	a2 10 00 09 	mov  %o1, %l1
400020fc:	94 10 00 10 	mov  %l0, %o2
40002100:	96 10 00 11 	mov  %l1, %o3
40002104:	90 10 00 12 	mov  %l2, %o0
40002108:	40 00 04 24 	call  40003198 <__adddf3>
4000210c:	92 10 00 13 	mov  %l3, %o1
40002110:	40 00 05 d3 	call  4000385c <__truncdfsf2>
40002114:	01 00 00 00 	nop 
40002118:	d0 26 22 88 	st  %o0, [ %i0 + 0x288 ]
4000211c:	40 00 03 58 	call  40002e7c <__extendsfdf2>
40002120:	d0 06 e1 d0 	ld  [ %i3 + 0x1d0 ], %o0
40002124:	94 10 00 10 	mov  %l0, %o2
40002128:	40 00 04 1c 	call  40003198 <__adddf3>
4000212c:	96 10 00 11 	mov  %l1, %o3
40002130:	40 00 05 cb 	call  4000385c <__truncdfsf2>
40002134:	01 00 00 00 	nop 
40002138:	d0 26 e1 d0 	st  %o0, [ %i3 + 0x1d0 ]
4000213c:	11 10 00 32 	sethi  %hi(0x4000c800), %o0
40002140:	40 00 09 54 	call  40004690 <printf>
40002144:	90 12 21 b0 	or  %o0, 0x1b0, %o0	! 4000c9b0 <___DTOR_END__+0x290>
40002148:	7f ff f8 0b 	call  40000174 <Getclock>
4000214c:	01 00 00 00 	nop 
40002150:	7f ff f8 f1 	call  40000514 <Towers>
40002154:	d0 25 a0 18 	st  %o0, [ %l6 + 0x18 ]
40002158:	7f ff f8 07 	call  40000174 <Getclock>
4000215c:	01 00 00 00 	nop 
40002160:	c2 05 a0 18 	ld  [ %l6 + 0x18 ], %g1
40002164:	a0 22 00 01 	sub  %o0, %g1, %l0
40002168:	d0 06 22 88 	ld  [ %i0 + 0x288 ], %o0
4000216c:	40 00 03 44 	call  40002e7c <__extendsfdf2>
40002170:	e0 25 e0 08 	st  %l0, [ %l7 + 8 ]
40002174:	a4 10 00 08 	mov  %o0, %l2
40002178:	a6 10 00 09 	mov  %o1, %l3
4000217c:	40 00 05 6c 	call  4000372c <__floatsidf>
40002180:	90 10 00 10 	mov  %l0, %o0
40002184:	03 10 00 32 	sethi  %hi(0x4000c800), %g1
40002188:	40 00 04 2f 	call  40003244 <__muldf3>
4000218c:	d4 18 62 c8 	ldd  [ %g1 + 0x2c8 ], %o2	! 4000cac8 <___DTOR_END__+0x3a8>
40002190:	a0 10 00 08 	mov  %o0, %l0
40002194:	a2 10 00 09 	mov  %o1, %l1
40002198:	94 10 00 10 	mov  %l0, %o2
4000219c:	96 10 00 11 	mov  %l1, %o3
400021a0:	90 10 00 12 	mov  %l2, %o0
400021a4:	40 00 03 fd 	call  40003198 <__adddf3>
400021a8:	92 10 00 13 	mov  %l3, %o1
400021ac:	40 00 05 ac 	call  4000385c <__truncdfsf2>
400021b0:	01 00 00 00 	nop 
400021b4:	d0 26 22 88 	st  %o0, [ %i0 + 0x288 ]
400021b8:	40 00 03 31 	call  40002e7c <__extendsfdf2>
400021bc:	d0 06 e1 d0 	ld  [ %i3 + 0x1d0 ], %o0
400021c0:	94 10 00 10 	mov  %l0, %o2
400021c4:	40 00 03 f5 	call  40003198 <__adddf3>
400021c8:	96 10 00 11 	mov  %l1, %o3
400021cc:	40 00 05 a4 	call  4000385c <__truncdfsf2>
400021d0:	01 00 00 00 	nop 
400021d4:	d0 26 e1 d0 	st  %o0, [ %i3 + 0x1d0 ]
400021d8:	11 10 00 32 	sethi  %hi(0x4000c800), %o0
400021dc:	40 00 09 2d 	call  40004690 <printf>
400021e0:	90 12 21 c0 	or  %o0, 0x1c0, %o0	! 4000c9c0 <___DTOR_END__+0x2a0>
400021e4:	7f ff f7 e4 	call  40000174 <Getclock>
400021e8:	01 00 00 00 	nop 
400021ec:	7f ff f9 4c 	call  4000071c <Queens>
400021f0:	d0 25 a0 18 	st  %o0, [ %l6 + 0x18 ]
400021f4:	7f ff f7 e0 	call  40000174 <Getclock>
400021f8:	01 00 00 00 	nop 
400021fc:	c2 05 a0 18 	ld  [ %l6 + 0x18 ], %g1
40002200:	a0 22 00 01 	sub  %o0, %g1, %l0
40002204:	d0 06 22 88 	ld  [ %i0 + 0x288 ], %o0
40002208:	40 00 03 1d 	call  40002e7c <__extendsfdf2>
4000220c:	e0 25 e0 0c 	st  %l0, [ %l7 + 0xc ]
40002210:	a4 10 00 08 	mov  %o0, %l2
40002214:	a6 10 00 09 	mov  %o1, %l3
40002218:	40 00 05 45 	call  4000372c <__floatsidf>
4000221c:	90 10 00 10 	mov  %l0, %o0
40002220:	03 10 00 32 	sethi  %hi(0x4000c800), %g1
40002224:	40 00 04 08 	call  40003244 <__muldf3>
40002228:	d4 18 62 d0 	ldd  [ %g1 + 0x2d0 ], %o2	! 4000cad0 <___DTOR_END__+0x3b0>
4000222c:	a0 10 00 08 	mov  %o0, %l0
40002230:	a2 10 00 09 	mov  %o1, %l1
40002234:	94 10 00 10 	mov  %l0, %o2
40002238:	96 10 00 11 	mov  %l1, %o3
4000223c:	90 10 00 12 	mov  %l2, %o0
40002240:	40 00 03 d6 	call  40003198 <__adddf3>
40002244:	92 10 00 13 	mov  %l3, %o1
40002248:	40 00 05 85 	call  4000385c <__truncdfsf2>
4000224c:	01 00 00 00 	nop 
40002250:	d0 26 22 88 	st  %o0, [ %i0 + 0x288 ]
40002254:	40 00 03 0a 	call  40002e7c <__extendsfdf2>
40002258:	d0 06 e1 d0 	ld  [ %i3 + 0x1d0 ], %o0
4000225c:	94 10 00 10 	mov  %l0, %o2
40002260:	40 00 03 ce 	call  40003198 <__adddf3>
40002264:	96 10 00 11 	mov  %l1, %o3
40002268:	40 00 05 7d 	call  4000385c <__truncdfsf2>
4000226c:	01 00 00 00 	nop 
40002270:	d0 26 e1 d0 	st  %o0, [ %i3 + 0x1d0 ]
40002274:	11 10 00 32 	sethi  %hi(0x4000c800), %o0
40002278:	40 00 09 06 	call  40004690 <printf>
4000227c:	90 12 21 d0 	or  %o0, 0x1d0, %o0	! 4000c9d0 <___DTOR_END__+0x2b0>
40002280:	7f ff f7 bd 	call  40000174 <Getclock>
40002284:	01 00 00 00 	nop 
40002288:	7f ff f9 67 	call  40000824 <Intmm>
4000228c:	d0 25 a0 18 	st  %o0, [ %l6 + 0x18 ]
40002290:	7f ff f7 b9 	call  40000174 <Getclock>
40002294:	01 00 00 00 	nop 
40002298:	c2 05 a0 18 	ld  [ %l6 + 0x18 ], %g1
4000229c:	a0 22 00 01 	sub  %o0, %g1, %l0
400022a0:	d0 06 22 88 	ld  [ %i0 + 0x288 ], %o0
400022a4:	40 00 02 f6 	call  40002e7c <__extendsfdf2>
400022a8:	e0 25 e0 10 	st  %l0, [ %l7 + 0x10 ]
400022ac:	a4 10 00 08 	mov  %o0, %l2
400022b0:	a6 10 00 09 	mov  %o1, %l3
400022b4:	40 00 05 1e 	call  4000372c <__floatsidf>
400022b8:	90 10 00 10 	mov  %l0, %o0
400022bc:	03 10 00 32 	sethi  %hi(0x4000c800), %g1
400022c0:	40 00 03 e1 	call  40003244 <__muldf3>
400022c4:	d4 18 62 d8 	ldd  [ %g1 + 0x2d8 ], %o2	! 4000cad8 <___DTOR_END__+0x3b8>
400022c8:	a0 10 00 08 	mov  %o0, %l0
400022cc:	a2 10 00 09 	mov  %o1, %l1
400022d0:	94 10 00 10 	mov  %l0, %o2
400022d4:	96 10 00 11 	mov  %l1, %o3
400022d8:	90 10 00 12 	mov  %l2, %o0
400022dc:	40 00 03 af 	call  40003198 <__adddf3>
400022e0:	92 10 00 13 	mov  %l3, %o1
400022e4:	40 00 05 5e 	call  4000385c <__truncdfsf2>
400022e8:	01 00 00 00 	nop 
400022ec:	d0 26 22 88 	st  %o0, [ %i0 + 0x288 ]
400022f0:	40 00 02 e3 	call  40002e7c <__extendsfdf2>
400022f4:	d0 06 e1 d0 	ld  [ %i3 + 0x1d0 ], %o0
400022f8:	94 10 00 10 	mov  %l0, %o2
400022fc:	40 00 03 a7 	call  40003198 <__adddf3>
40002300:	96 10 00 11 	mov  %l1, %o3
40002304:	40 00 05 56 	call  4000385c <__truncdfsf2>
40002308:	01 00 00 00 	nop 
4000230c:	d0 26 e1 d0 	st  %o0, [ %i3 + 0x1d0 ]
40002310:	11 10 00 32 	sethi  %hi(0x4000c800), %o0
40002314:	40 00 08 df 	call  40004690 <printf>
40002318:	90 12 21 e0 	or  %o0, 0x1e0, %o0	! 4000c9e0 <___DTOR_END__+0x2c0>
4000231c:	7f ff f7 96 	call  40000174 <Getclock>
40002320:	01 00 00 00 	nop 
40002324:	7f ff f9 a5 	call  400009b8 <Mm>
40002328:	d0 25 a0 18 	st  %o0, [ %l6 + 0x18 ]
4000232c:	7f ff f7 92 	call  40000174 <Getclock>
40002330:	01 00 00 00 	nop 
40002334:	c2 05 a0 18 	ld  [ %l6 + 0x18 ], %g1
40002338:	a0 22 00 01 	sub  %o0, %g1, %l0
4000233c:	d0 06 22 88 	ld  [ %i0 + 0x288 ], %o0
40002340:	40 00 02 cf 	call  40002e7c <__extendsfdf2>
40002344:	e0 25 e0 14 	st  %l0, [ %l7 + 0x14 ]
40002348:	a4 10 00 08 	mov  %o0, %l2
4000234c:	a6 10 00 09 	mov  %o1, %l3
40002350:	40 00 04 f7 	call  4000372c <__floatsidf>
40002354:	90 10 00 10 	mov  %l0, %o0
40002358:	03 10 00 32 	sethi  %hi(0x4000c800), %g1
4000235c:	f8 18 62 e0 	ldd  [ %g1 + 0x2e0 ], %i4	! 4000cae0 <___DTOR_END__+0x3c0>
40002360:	a8 10 00 08 	mov  %o0, %l4
40002364:	aa 10 00 09 	mov  %o1, %l5
40002368:	94 10 00 1c 	mov  %i4, %o2
4000236c:	96 10 00 1d 	mov  %i5, %o3
40002370:	40 00 03 b5 	call  40003244 <__muldf3>
40002374:	90 10 00 14 	mov  %l4, %o0
40002378:	94 10 00 08 	mov  %o0, %o2
4000237c:	96 10 00 09 	mov  %o1, %o3
40002380:	90 10 00 12 	mov  %l2, %o0
40002384:	40 00 03 85 	call  40003198 <__adddf3>
40002388:	92 10 00 13 	mov  %l3, %o1
4000238c:	40 00 05 34 	call  4000385c <__truncdfsf2>
40002390:	01 00 00 00 	nop 
40002394:	d0 26 22 88 	st  %o0, [ %i0 + 0x288 ]
40002398:	40 00 02 b9 	call  40002e7c <__extendsfdf2>
4000239c:	d0 06 e1 d0 	ld  [ %i3 + 0x1d0 ], %o0
400023a0:	03 10 00 32 	sethi  %hi(0x4000c800), %g1
400023a4:	a0 10 00 08 	mov  %o0, %l0
400023a8:	a2 10 00 09 	mov  %o1, %l1
400023ac:	d4 18 62 e8 	ldd  [ %g1 + 0x2e8 ], %o2
400023b0:	90 10 00 14 	mov  %l4, %o0
400023b4:	40 00 03 a4 	call  40003244 <__muldf3>
400023b8:	92 10 00 15 	mov  %l5, %o1
400023bc:	94 10 00 08 	mov  %o0, %o2
400023c0:	96 10 00 09 	mov  %o1, %o3
400023c4:	90 10 00 10 	mov  %l0, %o0
400023c8:	40 00 03 74 	call  40003198 <__adddf3>
400023cc:	92 10 00 11 	mov  %l1, %o1
400023d0:	40 00 05 23 	call  4000385c <__truncdfsf2>
400023d4:	01 00 00 00 	nop 
400023d8:	d0 26 e1 d0 	st  %o0, [ %i3 + 0x1d0 ]
400023dc:	11 10 00 32 	sethi  %hi(0x4000c800), %o0
400023e0:	40 00 08 ac 	call  40004690 <printf>
400023e4:	90 12 21 f0 	or  %o0, 0x1f0, %o0	! 4000c9f0 <___DTOR_END__+0x2d0>
400023e8:	7f ff f7 63 	call  40000174 <Getclock>
400023ec:	01 00 00 00 	nop 
400023f0:	7f ff fa 3a 	call  40000cd8 <Puzzle>
400023f4:	d0 25 a0 18 	st  %o0, [ %l6 + 0x18 ]
400023f8:	7f ff f7 5f 	call  40000174 <Getclock>
400023fc:	01 00 00 00 	nop 
40002400:	c2 05 a0 18 	ld  [ %l6 + 0x18 ], %g1
40002404:	a0 22 00 01 	sub  %o0, %g1, %l0
40002408:	d0 06 22 88 	ld  [ %i0 + 0x288 ], %o0
4000240c:	40 00 02 9c 	call  40002e7c <__extendsfdf2>
40002410:	e0 25 e0 18 	st  %l0, [ %l7 + 0x18 ]
40002414:	a4 10 00 08 	mov  %o0, %l2
40002418:	a6 10 00 09 	mov  %o1, %l3
4000241c:	40 00 04 c4 	call  4000372c <__floatsidf>
40002420:	90 10 00 10 	mov  %l0, %o0
40002424:	03 10 00 32 	sethi  %hi(0x4000c800), %g1
40002428:	40 00 03 87 	call  40003244 <__muldf3>
4000242c:	d4 18 62 f0 	ldd  [ %g1 + 0x2f0 ], %o2	! 4000caf0 <___DTOR_END__+0x3d0>
40002430:	a0 10 00 08 	mov  %o0, %l0
40002434:	a2 10 00 09 	mov  %o1, %l1
40002438:	94 10 00 10 	mov  %l0, %o2
4000243c:	96 10 00 11 	mov  %l1, %o3
40002440:	90 10 00 12 	mov  %l2, %o0
40002444:	40 00 03 55 	call  40003198 <__adddf3>
40002448:	92 10 00 13 	mov  %l3, %o1
4000244c:	40 00 05 04 	call  4000385c <__truncdfsf2>
40002450:	01 00 00 00 	nop 
40002454:	d0 26 22 88 	st  %o0, [ %i0 + 0x288 ]
40002458:	40 00 02 89 	call  40002e7c <__extendsfdf2>
4000245c:	d0 06 e1 d0 	ld  [ %i3 + 0x1d0 ], %o0
40002460:	94 10 00 10 	mov  %l0, %o2
40002464:	40 00 03 4d 	call  40003198 <__adddf3>
40002468:	96 10 00 11 	mov  %l1, %o3
4000246c:	40 00 04 fc 	call  4000385c <__truncdfsf2>
40002470:	01 00 00 00 	nop 
40002474:	d0 26 e1 d0 	st  %o0, [ %i3 + 0x1d0 ]
40002478:	11 10 00 32 	sethi  %hi(0x4000c800), %o0
4000247c:	40 00 08 85 	call  40004690 <printf>
40002480:	90 12 22 00 	or  %o0, 0x200, %o0	! 4000ca00 <___DTOR_END__+0x2e0>
40002484:	7f ff f7 3c 	call  40000174 <Getclock>
40002488:	01 00 00 00 	nop 
4000248c:	7f ff fc 0b 	call  400014b8 <Quick>
40002490:	d0 25 a0 18 	st  %o0, [ %l6 + 0x18 ]
40002494:	7f ff f7 38 	call  40000174 <Getclock>
40002498:	01 00 00 00 	nop 
4000249c:	c2 05 a0 18 	ld  [ %l6 + 0x18 ], %g1
400024a0:	a0 22 00 01 	sub  %o0, %g1, %l0
400024a4:	d0 06 22 88 	ld  [ %i0 + 0x288 ], %o0
400024a8:	40 00 02 75 	call  40002e7c <__extendsfdf2>
400024ac:	e0 25 e0 1c 	st  %l0, [ %l7 + 0x1c ]
400024b0:	a4 10 00 08 	mov  %o0, %l2
400024b4:	a6 10 00 09 	mov  %o1, %l3
400024b8:	40 00 04 9d 	call  4000372c <__floatsidf>
400024bc:	90 10 00 10 	mov  %l0, %o0
400024c0:	03 10 00 32 	sethi  %hi(0x4000c800), %g1
400024c4:	40 00 03 60 	call  40003244 <__muldf3>
400024c8:	d4 18 62 f8 	ldd  [ %g1 + 0x2f8 ], %o2	! 4000caf8 <___DTOR_END__+0x3d8>
400024cc:	a0 10 00 08 	mov  %o0, %l0
400024d0:	a2 10 00 09 	mov  %o1, %l1
400024d4:	94 10 00 10 	mov  %l0, %o2
400024d8:	96 10 00 11 	mov  %l1, %o3
400024dc:	90 10 00 12 	mov  %l2, %o0
400024e0:	40 00 03 2e 	call  40003198 <__adddf3>
400024e4:	92 10 00 13 	mov  %l3, %o1
400024e8:	40 00 04 dd 	call  4000385c <__truncdfsf2>
400024ec:	01 00 00 00 	nop 
400024f0:	d0 26 22 88 	st  %o0, [ %i0 + 0x288 ]
400024f4:	40 00 02 62 	call  40002e7c <__extendsfdf2>
400024f8:	d0 06 e1 d0 	ld  [ %i3 + 0x1d0 ], %o0
400024fc:	94 10 00 10 	mov  %l0, %o2
40002500:	40 00 03 26 	call  40003198 <__adddf3>
40002504:	96 10 00 11 	mov  %l1, %o3
40002508:	40 00 04 d5 	call  4000385c <__truncdfsf2>
4000250c:	01 00 00 00 	nop 
40002510:	d0 26 e1 d0 	st  %o0, [ %i3 + 0x1d0 ]
40002514:	11 10 00 32 	sethi  %hi(0x4000c800), %o0
40002518:	40 00 08 5e 	call  40004690 <printf>
4000251c:	90 12 22 10 	or  %o0, 0x210, %o0	! 4000ca10 <___DTOR_END__+0x2f0>
40002520:	7f ff f7 15 	call  40000174 <Getclock>
40002524:	01 00 00 00 	nop 
40002528:	7f ff fc c6 	call  40001840 <Bubble>
4000252c:	d0 25 a0 18 	st  %o0, [ %l6 + 0x18 ]
40002530:	7f ff f7 11 	call  40000174 <Getclock>
40002534:	01 00 00 00 	nop 
40002538:	c2 05 a0 18 	ld  [ %l6 + 0x18 ], %g1
4000253c:	a0 22 00 01 	sub  %o0, %g1, %l0
40002540:	d0 06 22 88 	ld  [ %i0 + 0x288 ], %o0
40002544:	40 00 02 4e 	call  40002e7c <__extendsfdf2>
40002548:	e0 25 e0 20 	st  %l0, [ %l7 + 0x20 ]
4000254c:	a4 10 00 08 	mov  %o0, %l2
40002550:	a6 10 00 09 	mov  %o1, %l3
40002554:	40 00 04 76 	call  4000372c <__floatsidf>
40002558:	90 10 00 10 	mov  %l0, %o0
4000255c:	03 10 00 32 	sethi  %hi(0x4000c800), %g1
40002560:	40 00 03 39 	call  40003244 <__muldf3>
40002564:	d4 18 63 00 	ldd  [ %g1 + 0x300 ], %o2	! 4000cb00 <___DTOR_END__+0x3e0>
40002568:	a0 10 00 08 	mov  %o0, %l0
4000256c:	a2 10 00 09 	mov  %o1, %l1
40002570:	94 10 00 10 	mov  %l0, %o2
40002574:	96 10 00 11 	mov  %l1, %o3
40002578:	90 10 00 12 	mov  %l2, %o0
4000257c:	40 00 03 07 	call  40003198 <__adddf3>
40002580:	92 10 00 13 	mov  %l3, %o1
40002584:	40 00 04 b6 	call  4000385c <__truncdfsf2>
40002588:	01 00 00 00 	nop 
4000258c:	d0 26 22 88 	st  %o0, [ %i0 + 0x288 ]
40002590:	40 00 02 3b 	call  40002e7c <__extendsfdf2>
40002594:	d0 06 e1 d0 	ld  [ %i3 + 0x1d0 ], %o0
40002598:	94 10 00 10 	mov  %l0, %o2
4000259c:	40 00 02 ff 	call  40003198 <__adddf3>
400025a0:	96 10 00 11 	mov  %l1, %o3
400025a4:	40 00 04 ae 	call  4000385c <__truncdfsf2>
400025a8:	01 00 00 00 	nop 
400025ac:	d0 26 e1 d0 	st  %o0, [ %i3 + 0x1d0 ]
400025b0:	11 10 00 32 	sethi  %hi(0x4000c800), %o0
400025b4:	40 00 08 37 	call  40004690 <printf>
400025b8:	90 12 22 20 	or  %o0, 0x220, %o0	! 4000ca20 <___DTOR_END__+0x300>
400025bc:	7f ff f6 ee 	call  40000174 <Getclock>
400025c0:	01 00 00 00 	nop 
400025c4:	7f ff fc 51 	call  40001708 <Trees>
400025c8:	d0 25 a0 18 	st  %o0, [ %l6 + 0x18 ]
400025cc:	7f ff f6 ea 	call  40000174 <Getclock>
400025d0:	01 00 00 00 	nop 
400025d4:	c2 05 a0 18 	ld  [ %l6 + 0x18 ], %g1
400025d8:	a0 22 00 01 	sub  %o0, %g1, %l0
400025dc:	d0 06 22 88 	ld  [ %i0 + 0x288 ], %o0
400025e0:	40 00 02 27 	call  40002e7c <__extendsfdf2>
400025e4:	e0 25 e0 24 	st  %l0, [ %l7 + 0x24 ]
400025e8:	a4 10 00 08 	mov  %o0, %l2
400025ec:	a6 10 00 09 	mov  %o1, %l3
400025f0:	40 00 04 4f 	call  4000372c <__floatsidf>
400025f4:	90 10 00 10 	mov  %l0, %o0
400025f8:	03 10 00 32 	sethi  %hi(0x4000c800), %g1
400025fc:	40 00 03 12 	call  40003244 <__muldf3>
40002600:	d4 18 63 08 	ldd  [ %g1 + 0x308 ], %o2	! 4000cb08 <___DTOR_END__+0x3e8>
40002604:	a0 10 00 08 	mov  %o0, %l0
40002608:	a2 10 00 09 	mov  %o1, %l1
4000260c:	94 10 00 10 	mov  %l0, %o2
40002610:	96 10 00 11 	mov  %l1, %o3
40002614:	90 10 00 12 	mov  %l2, %o0
40002618:	40 00 02 e0 	call  40003198 <__adddf3>
4000261c:	92 10 00 13 	mov  %l3, %o1
40002620:	40 00 04 8f 	call  4000385c <__truncdfsf2>
40002624:	01 00 00 00 	nop 
40002628:	d0 26 22 88 	st  %o0, [ %i0 + 0x288 ]
4000262c:	40 00 02 14 	call  40002e7c <__extendsfdf2>
40002630:	d0 06 e1 d0 	ld  [ %i3 + 0x1d0 ], %o0
40002634:	94 10 00 10 	mov  %l0, %o2
40002638:	40 00 02 d8 	call  40003198 <__adddf3>
4000263c:	96 10 00 11 	mov  %l1, %o3
40002640:	40 00 04 87 	call  4000385c <__truncdfsf2>
40002644:	01 00 00 00 	nop 
40002648:	d0 26 e1 d0 	st  %o0, [ %i3 + 0x1d0 ]
4000264c:	11 10 00 32 	sethi  %hi(0x4000c800), %o0
40002650:	40 00 08 10 	call  40004690 <printf>
40002654:	90 12 22 30 	or  %o0, 0x230, %o0	! 4000ca30 <___DTOR_END__+0x310>
40002658:	7f ff f6 c7 	call  40000174 <Getclock>
4000265c:	01 00 00 00 	nop 
40002660:	7f ff fd de 	call  40001dd8 <Oscar>
40002664:	d0 25 a0 18 	st  %o0, [ %l6 + 0x18 ]
40002668:	7f ff f6 c3 	call  40000174 <Getclock>
4000266c:	01 00 00 00 	nop 
40002670:	c2 05 a0 18 	ld  [ %l6 + 0x18 ], %g1
40002674:	a0 22 00 01 	sub  %o0, %g1, %l0
40002678:	d0 06 22 88 	ld  [ %i0 + 0x288 ], %o0
4000267c:	40 00 02 00 	call  40002e7c <__extendsfdf2>
40002680:	e0 25 e0 28 	st  %l0, [ %l7 + 0x28 ]
40002684:	a4 10 00 08 	mov  %o0, %l2
40002688:	a6 10 00 09 	mov  %o1, %l3
4000268c:	40 00 04 28 	call  4000372c <__floatsidf>
40002690:	90 10 00 10 	mov  %l0, %o0
40002694:	a8 10 00 08 	mov  %o0, %l4
40002698:	aa 10 00 09 	mov  %o1, %l5
4000269c:	94 10 00 1c 	mov  %i4, %o2
400026a0:	96 10 00 1d 	mov  %i5, %o3
400026a4:	40 00 02 e8 	call  40003244 <__muldf3>
400026a8:	90 10 00 14 	mov  %l4, %o0
400026ac:	94 10 00 08 	mov  %o0, %o2
400026b0:	96 10 00 09 	mov  %o1, %o3
400026b4:	90 10 00 12 	mov  %l2, %o0
400026b8:	40 00 02 b8 	call  40003198 <__adddf3>
400026bc:	92 10 00 13 	mov  %l3, %o1
400026c0:	40 00 04 67 	call  4000385c <__truncdfsf2>
400026c4:	01 00 00 00 	nop 
400026c8:	d0 26 22 88 	st  %o0, [ %i0 + 0x288 ]
400026cc:	40 00 01 ec 	call  40002e7c <__extendsfdf2>
400026d0:	d0 06 e1 d0 	ld  [ %i3 + 0x1d0 ], %o0
400026d4:	03 10 00 32 	sethi  %hi(0x4000c800), %g1
400026d8:	a0 10 00 08 	mov  %o0, %l0
400026dc:	a2 10 00 09 	mov  %o1, %l1
400026e0:	d4 18 63 10 	ldd  [ %g1 + 0x310 ], %o2
400026e4:	90 10 00 14 	mov  %l4, %o0
400026e8:	40 00 02 d7 	call  40003244 <__muldf3>
400026ec:	92 10 00 15 	mov  %l5, %o1
400026f0:	94 10 00 08 	mov  %o0, %o2
400026f4:	96 10 00 09 	mov  %o1, %o3
400026f8:	90 10 00 10 	mov  %l0, %o0
400026fc:	40 00 02 a7 	call  40003198 <__adddf3>
40002700:	92 10 00 11 	mov  %l1, %o1
40002704:	40 00 04 56 	call  4000385c <__truncdfsf2>
40002708:	a0 10 20 01 	mov  1, %l0
4000270c:	d0 26 e1 d0 	st  %o0, [ %i3 + 0x1d0 ]
40002710:	40 00 08 14 	call  40004760 <putchar>
40002714:	90 10 20 0a 	mov  0xa, %o0
40002718:	23 10 00 32 	sethi  %hi(0x4000c800), %l1
4000271c:	83 2c 20 02 	sll  %l0, 2, %g1
40002720:	d2 05 c0 01 	ld  [ %l7 + %g1 ], %o1
40002724:	40 00 07 db 	call  40004690 <printf>
40002728:	90 14 62 40 	or  %l1, 0x240, %o0
4000272c:	a0 04 20 01 	inc  %l0
40002730:	80 a4 20 0a 	cmp  %l0, 0xa
40002734:	04 bf ff fb 	ble  40002720 <main+0x80c>
40002738:	83 2c 20 02 	sll  %l0, 2, %g1
4000273c:	40 00 08 09 	call  40004760 <putchar>
40002740:	90 10 20 0a 	mov  0xa, %o0
40002744:	40 00 08 07 	call  40004760 <putchar>
40002748:	90 10 20 0a 	mov  0xa, %o0
4000274c:	40 00 01 cc 	call  40002e7c <__extendsfdf2>
40002750:	d0 06 22 88 	ld  [ %i0 + 0x288 ], %o0
40002754:	03 10 00 32 	sethi  %hi(0x4000c800), %g1
40002758:	e0 18 62 b0 	ldd  [ %g1 + 0x2b0 ], %l0	! 4000cab0 <___DTOR_END__+0x390>
4000275c:	96 10 00 11 	mov  %l1, %o3
40002760:	40 00 03 73 	call  4000352c <__divdf3>
40002764:	94 10 00 10 	mov  %l0, %o2
40002768:	94 10 00 09 	mov  %o1, %o2
4000276c:	92 10 00 08 	mov  %o0, %o1
40002770:	11 10 00 32 	sethi  %hi(0x4000c800), %o0
40002774:	40 00 07 c7 	call  40004690 <printf>
40002778:	90 12 22 48 	or  %o0, 0x248, %o0	! 4000ca48 <___DTOR_END__+0x328>
4000277c:	40 00 07 f9 	call  40004760 <putchar>
40002780:	90 10 20 0a 	mov  0xa, %o0
40002784:	40 00 01 be 	call  40002e7c <__extendsfdf2>
40002788:	d0 06 e1 d0 	ld  [ %i3 + 0x1d0 ], %o0
4000278c:	94 10 00 10 	mov  %l0, %o2
40002790:	40 00 03 67 	call  4000352c <__divdf3>
40002794:	96 10 00 11 	mov  %l1, %o3
40002798:	98 10 00 08 	mov  %o0, %o4
4000279c:	9a 10 00 09 	mov  %o1, %o5
400027a0:	11 10 00 32 	sethi  %hi(0x4000c800), %o0
400027a4:	90 12 22 70 	or  %o0, 0x270, %o0	! 4000ca70 <___DTOR_END__+0x350>
400027a8:	92 10 00 0c 	mov  %o4, %o1
400027ac:	40 00 07 b9 	call  40004690 <printf>
400027b0:	94 10 00 0d 	mov  %o5, %o2
400027b4:	81 c7 e0 08 	ret 
400027b8:	81 e8 00 00 	restore 

400027bc <_fpadd_parts>:
400027bc:	9d e3 bf 98 	save  %sp, -104, %sp
400027c0:	fa 06 00 00 	ld  [ %i0 ], %i5
400027c4:	80 a7 60 01 	cmp  %i5, 1
400027c8:	08 80 00 87 	bleu  400029e4 <_fpadd_parts+0x228>
400027cc:	b6 10 00 18 	mov  %i0, %i3
400027d0:	c2 06 40 00 	ld  [ %i1 ], %g1
400027d4:	80 a0 60 01 	cmp  %g1, 1
400027d8:	08 80 00 83 	bleu  400029e4 <_fpadd_parts+0x228>
400027dc:	b0 10 00 19 	mov  %i1, %i0
400027e0:	80 a7 60 04 	cmp  %i5, 4
400027e4:	12 80 00 0c 	bne  40002814 <_fpadd_parts+0x58>
400027e8:	80 a0 60 04 	cmp  %g1, 4
400027ec:	12 80 00 7e 	bne  400029e4 <_fpadd_parts+0x228>
400027f0:	b0 10 00 1b 	mov  %i3, %i0
400027f4:	c2 06 60 04 	ld  [ %i1 + 4 ], %g1
400027f8:	fa 06 e0 04 	ld  [ %i3 + 4 ], %i5
400027fc:	39 10 00 32 	sethi  %hi(0x4000c800), %i4
40002800:	80 a7 40 01 	cmp  %i5, %g1
40002804:	12 80 00 78 	bne  400029e4 <_fpadd_parts+0x228>
40002808:	b0 17 23 1c 	or  %i4, 0x31c, %i0
4000280c:	10 80 00 76 	b  400029e4 <_fpadd_parts+0x228>
40002810:	b0 10 00 1b 	mov  %i3, %i0
40002814:	02 80 00 74 	be  400029e4 <_fpadd_parts+0x228>
40002818:	b0 10 00 19 	mov  %i1, %i0
4000281c:	80 a0 60 02 	cmp  %g1, 2
40002820:	02 80 00 49 	be  40002944 <_fpadd_parts+0x188>
40002824:	80 a7 60 02 	cmp  %i5, 2
40002828:	02 80 00 6f 	be  400029e4 <_fpadd_parts+0x228>
4000282c:	01 00 00 00 	nop 
40002830:	f0 06 e0 08 	ld  [ %i3 + 8 ], %i0
40002834:	f8 06 60 08 	ld  [ %i1 + 8 ], %i4
40002838:	82 26 00 1c 	sub  %i0, %i4, %g1
4000283c:	bb 38 60 1f 	sra  %g1, 0x1f, %i5
40002840:	82 18 40 1d 	xor  %g1, %i5, %g1
40002844:	82 20 40 1d 	sub  %g1, %i5, %g1
40002848:	80 a0 60 1f 	cmp  %g1, 0x1f
4000284c:	de 06 e0 0c 	ld  [ %i3 + 0xc ], %o7
40002850:	14 80 00 4c 	bg  40002980 <_fpadd_parts+0x1c4>
40002854:	da 06 60 0c 	ld  [ %i1 + 0xc ], %o5
40002858:	80 a6 00 1c 	cmp  %i0, %i4
4000285c:	04 80 00 0a 	ble  40002884 <_fpadd_parts+0xc8>
40002860:	80 a7 00 18 	cmp  %i4, %i0
40002864:	b8 26 00 1c 	sub  %i0, %i4, %i4
40002868:	bb 33 60 01 	srl  %o5, 1, %i5
4000286c:	82 0b 60 01 	and  %o5, 1, %g1
40002870:	b8 87 3f ff 	addcc  %i4, -1, %i4
40002874:	12 bf ff fd 	bne  40002868 <_fpadd_parts+0xac>
40002878:	9a 10 40 1d 	or  %g1, %i5, %o5
4000287c:	b8 10 00 18 	mov  %i0, %i4
40002880:	80 a7 00 18 	cmp  %i4, %i0
40002884:	24 80 00 0a 	ble,a   400028ac <_fpadd_parts+0xf0>
40002888:	fa 06 e0 04 	ld  [ %i3 + 4 ], %i5
4000288c:	b0 27 00 18 	sub  %i4, %i0, %i0
40002890:	bb 33 e0 01 	srl  %o7, 1, %i5
40002894:	82 0b e0 01 	and  %o7, 1, %g1
40002898:	b0 86 3f ff 	addcc  %i0, -1, %i0
4000289c:	12 bf ff fd 	bne  40002890 <_fpadd_parts+0xd4>
400028a0:	9e 10 40 1d 	or  %g1, %i5, %o7
400028a4:	b0 10 00 1c 	mov  %i4, %i0
400028a8:	fa 06 e0 04 	ld  [ %i3 + 4 ], %i5
400028ac:	c2 06 60 04 	ld  [ %i1 + 4 ], %g1
400028b0:	80 a7 40 01 	cmp  %i5, %g1
400028b4:	02 80 00 38 	be  40002994 <_fpadd_parts+0x1d8>
400028b8:	80 a7 60 00 	cmp  %i5, 0
400028bc:	12 80 00 03 	bne  400028c8 <_fpadd_parts+0x10c>
400028c0:	82 23 40 0f 	sub  %o5, %o7, %g1
400028c4:	82 23 c0 0d 	sub  %o7, %o5, %g1
400028c8:	80 a0 60 00 	cmp  %g1, 0
400028cc:	06 80 00 42 	bl  400029d4 <_fpadd_parts+0x218>
400028d0:	b6 20 00 01 	neg  %g1, %i3
400028d4:	9e 10 00 18 	mov  %i0, %o7
400028d8:	b6 10 00 01 	mov  %g1, %i3
400028dc:	c0 26 a0 04 	clr  [ %i2 + 4 ]
400028e0:	03 0f ff ff 	sethi  %hi(0x3ffffc00), %g1
400028e4:	ba 06 ff ff 	add  %i3, -1, %i5
400028e8:	82 10 63 fe 	or  %g1, 0x3fe, %g1
400028ec:	80 a7 40 01 	cmp  %i5, %g1
400028f0:	b8 10 00 0f 	mov  %o7, %i4
400028f4:	b2 10 00 1b 	mov  %i3, %i1
400028f8:	18 80 00 0b 	bgu  40002924 <_fpadd_parts+0x168>
400028fc:	ba 10 00 1b 	mov  %i3, %i5
40002900:	b0 10 00 01 	mov  %g1, %i0
40002904:	b6 07 40 1d 	add  %i5, %i5, %i3
40002908:	9e 07 3f ff 	add  %i4, -1, %o7
4000290c:	82 06 ff ff 	add  %i3, -1, %g1
40002910:	80 a0 40 18 	cmp  %g1, %i0
40002914:	b2 10 00 1b 	mov  %i3, %i1
40002918:	b8 10 00 0f 	mov  %o7, %i4
4000291c:	08 bf ff fa 	bleu  40002904 <_fpadd_parts+0x148>
40002920:	ba 10 00 1b 	mov  %i3, %i5
40002924:	82 10 20 03 	mov  3, %g1
40002928:	80 a6 60 00 	cmp  %i1, 0
4000292c:	06 80 00 22 	bl  400029b4 <_fpadd_parts+0x1f8>
40002930:	c2 26 80 00 	st  %g1, [ %i2 ]
40002934:	f6 26 a0 0c 	st  %i3, [ %i2 + 0xc ]
40002938:	de 26 a0 08 	st  %o7, [ %i2 + 8 ]
4000293c:	10 80 00 2a 	b  400029e4 <_fpadd_parts+0x228>
40002940:	b0 10 00 1a 	mov  %i2, %i0
40002944:	12 80 00 28 	bne  400029e4 <_fpadd_parts+0x228>
40002948:	b0 10 00 1b 	mov  %i3, %i0
4000294c:	fa 26 80 00 	st  %i5, [ %i2 ]
40002950:	c2 06 e0 04 	ld  [ %i3 + 4 ], %g1
40002954:	c2 26 a0 04 	st  %g1, [ %i2 + 4 ]
40002958:	fa 06 e0 08 	ld  [ %i3 + 8 ], %i5
4000295c:	fa 26 a0 08 	st  %i5, [ %i2 + 8 ]
40002960:	f8 06 e0 0c 	ld  [ %i3 + 0xc ], %i4
40002964:	f8 26 a0 0c 	st  %i4, [ %i2 + 0xc ]
40002968:	c2 06 e0 04 	ld  [ %i3 + 4 ], %g1
4000296c:	fa 06 60 04 	ld  [ %i1 + 4 ], %i5
40002970:	82 08 40 1d 	and  %g1, %i5, %g1
40002974:	c2 26 a0 04 	st  %g1, [ %i2 + 4 ]
40002978:	10 80 00 1b 	b  400029e4 <_fpadd_parts+0x228>
4000297c:	b0 10 00 1a 	mov  %i2, %i0
40002980:	80 a6 00 1c 	cmp  %i0, %i4
40002984:	24 80 00 0a 	ble,a   400029ac <_fpadd_parts+0x1f0>
40002988:	b0 10 00 1c 	mov  %i4, %i0
4000298c:	10 bf ff c7 	b  400028a8 <_fpadd_parts+0xec>
40002990:	9a 10 20 00 	clr  %o5
40002994:	b6 03 c0 0d 	add  %o7, %o5, %i3
40002998:	9e 10 00 18 	mov  %i0, %o7
4000299c:	fa 26 a0 04 	st  %i5, [ %i2 + 4 ]
400029a0:	b8 10 00 18 	mov  %i0, %i4
400029a4:	10 bf ff e0 	b  40002924 <_fpadd_parts+0x168>
400029a8:	b2 10 00 1b 	mov  %i3, %i1
400029ac:	10 bf ff bf 	b  400028a8 <_fpadd_parts+0xec>
400029b0:	9e 10 20 00 	clr  %o7
400029b4:	83 36 60 01 	srl  %i1, 1, %g1
400029b8:	ba 0e 60 01 	and  %i1, 1, %i5
400029bc:	ba 17 40 01 	or  %i5, %g1, %i5
400029c0:	b8 07 20 01 	inc  %i4
400029c4:	fa 26 a0 0c 	st  %i5, [ %i2 + 0xc ]
400029c8:	f8 26 a0 08 	st  %i4, [ %i2 + 8 ]
400029cc:	10 80 00 06 	b  400029e4 <_fpadd_parts+0x228>
400029d0:	b0 10 00 1a 	mov  %i2, %i0
400029d4:	82 10 20 01 	mov  1, %g1
400029d8:	9e 10 00 18 	mov  %i0, %o7
400029dc:	10 bf ff c1 	b  400028e0 <_fpadd_parts+0x124>
400029e0:	c2 26 a0 04 	st  %g1, [ %i2 + 4 ]
400029e4:	81 c7 e0 08 	ret 
400029e8:	81 e8 00 00 	restore 

400029ec <__addsf3>:
400029ec:	9d e3 bf 60 	save  %sp, -160, %sp
400029f0:	a2 07 bf e8 	add  %fp, -24, %l1
400029f4:	f0 27 bf c4 	st  %i0, [ %fp + -60 ]
400029f8:	90 07 bf c4 	add  %fp, -60, %o0
400029fc:	92 10 00 11 	mov  %l1, %o1
40002a00:	40 00 04 01 	call  40003a04 <__unpack_f>
40002a04:	f2 27 bf c0 	st  %i1, [ %fp + -64 ]
40002a08:	a0 07 bf d8 	add  %fp, -40, %l0
40002a0c:	90 07 bf c0 	add  %fp, -64, %o0
40002a10:	40 00 03 fd 	call  40003a04 <__unpack_f>
40002a14:	92 10 00 10 	mov  %l0, %o1
40002a18:	92 10 00 10 	mov  %l0, %o1
40002a1c:	94 07 bf c8 	add  %fp, -56, %o2
40002a20:	7f ff ff 67 	call  400027bc <_fpadd_parts>
40002a24:	90 10 00 11 	mov  %l1, %o0
40002a28:	40 00 03 a5 	call  400038bc <__pack_f>
40002a2c:	01 00 00 00 	nop 
40002a30:	81 c7 e0 08 	ret 
40002a34:	91 e8 00 08 	restore  %g0, %o0, %o0

40002a38 <__subsf3>:
40002a38:	9d e3 bf 60 	save  %sp, -160, %sp
40002a3c:	a2 07 bf e8 	add  %fp, -24, %l1
40002a40:	f0 27 bf c4 	st  %i0, [ %fp + -60 ]
40002a44:	90 07 bf c4 	add  %fp, -60, %o0
40002a48:	92 10 00 11 	mov  %l1, %o1
40002a4c:	40 00 03 ee 	call  40003a04 <__unpack_f>
40002a50:	f2 27 bf c0 	st  %i1, [ %fp + -64 ]
40002a54:	a0 07 bf d8 	add  %fp, -40, %l0
40002a58:	90 07 bf c0 	add  %fp, -64, %o0
40002a5c:	40 00 03 ea 	call  40003a04 <__unpack_f>
40002a60:	92 10 00 10 	mov  %l0, %o1
40002a64:	c2 07 bf dc 	ld  [ %fp + -36 ], %g1
40002a68:	82 18 60 01 	xor  %g1, 1, %g1
40002a6c:	c2 27 bf dc 	st  %g1, [ %fp + -36 ]
40002a70:	92 10 00 10 	mov  %l0, %o1
40002a74:	94 07 bf c8 	add  %fp, -56, %o2
40002a78:	7f ff ff 51 	call  400027bc <_fpadd_parts>
40002a7c:	90 10 00 11 	mov  %l1, %o0
40002a80:	40 00 03 8f 	call  400038bc <__pack_f>
40002a84:	01 00 00 00 	nop 
40002a88:	81 c7 e0 08 	ret 
40002a8c:	91 e8 00 08 	restore  %g0, %o0, %o0

40002a90 <__mulsf3>:
40002a90:	9d e3 bf 60 	save  %sp, -160, %sp
40002a94:	a0 07 bf e8 	add  %fp, -24, %l0
40002a98:	f2 27 bf c0 	st  %i1, [ %fp + -64 ]
40002a9c:	90 07 bf c4 	add  %fp, -60, %o0
40002aa0:	92 10 00 10 	mov  %l0, %o1
40002aa4:	40 00 03 d8 	call  40003a04 <__unpack_f>
40002aa8:	f0 27 bf c4 	st  %i0, [ %fp + -60 ]
40002aac:	b2 07 bf d8 	add  %fp, -40, %i1
40002ab0:	90 07 bf c0 	add  %fp, -64, %o0
40002ab4:	40 00 03 d4 	call  40003a04 <__unpack_f>
40002ab8:	92 10 00 19 	mov  %i1, %o1
40002abc:	c2 07 bf e8 	ld  [ %fp + -24 ], %g1
40002ac0:	80 a0 60 01 	cmp  %g1, 1
40002ac4:	08 80 00 1a 	bleu  40002b2c <__mulsf3+0x9c>
40002ac8:	9e 07 bf c8 	add  %fp, -56, %o7
40002acc:	da 07 bf d8 	ld  [ %fp + -40 ], %o5
40002ad0:	80 a3 60 01 	cmp  %o5, 1
40002ad4:	28 80 00 0c 	bleu,a   40002b04 <__mulsf3+0x74>
40002ad8:	da 07 bf dc 	ld  [ %fp + -36 ], %o5
40002adc:	80 a0 60 04 	cmp  %g1, 4
40002ae0:	22 80 00 10 	be,a   40002b20 <__mulsf3+0x90>
40002ae4:	03 10 00 32 	sethi  %hi(0x4000c800), %g1
40002ae8:	80 a3 60 04 	cmp  %o5, 4
40002aec:	12 80 00 18 	bne  40002b4c <__mulsf3+0xbc>
40002af0:	80 a0 60 02 	cmp  %g1, 2
40002af4:	03 10 00 32 	sethi  %hi(0x4000c800), %g1
40002af8:	02 80 00 59 	be  40002c5c <__mulsf3+0x1cc>
40002afc:	90 10 63 1c 	or  %g1, 0x31c, %o0	! 4000cb1c <__thenan_sf>
40002b00:	da 07 bf dc 	ld  [ %fp + -36 ], %o5
40002b04:	c2 07 bf ec 	ld  [ %fp + -20 ], %g1
40002b08:	82 18 40 0d 	xor  %g1, %o5, %g1
40002b0c:	80 a0 00 01 	cmp  %g0, %g1
40002b10:	9a 40 20 00 	addx  %g0, 0, %o5
40002b14:	da 27 bf dc 	st  %o5, [ %fp + -36 ]
40002b18:	10 80 00 51 	b  40002c5c <__mulsf3+0x1cc>
40002b1c:	90 10 00 19 	mov  %i1, %o0
40002b20:	80 a3 60 02 	cmp  %o5, 2
40002b24:	02 80 00 4e 	be  40002c5c <__mulsf3+0x1cc>
40002b28:	90 10 63 1c 	or  %g1, 0x31c, %o0
40002b2c:	c2 07 bf ec 	ld  [ %fp + -20 ], %g1
40002b30:	da 07 bf dc 	ld  [ %fp + -36 ], %o5
40002b34:	82 18 40 0d 	xor  %g1, %o5, %g1
40002b38:	80 a0 00 01 	cmp  %g0, %g1
40002b3c:	9a 40 20 00 	addx  %g0, 0, %o5
40002b40:	da 27 bf ec 	st  %o5, [ %fp + -20 ]
40002b44:	10 80 00 46 	b  40002c5c <__mulsf3+0x1cc>
40002b48:	90 10 00 10 	mov  %l0, %o0
40002b4c:	02 bf ff f9 	be  40002b30 <__mulsf3+0xa0>
40002b50:	c2 07 bf ec 	ld  [ %fp + -20 ], %g1
40002b54:	80 a3 60 02 	cmp  %o5, 2
40002b58:	02 bf ff ec 	be  40002b08 <__mulsf3+0x78>
40002b5c:	da 07 bf dc 	ld  [ %fp + -36 ], %o5
40002b60:	c2 07 bf e4 	ld  [ %fp + -28 ], %g1
40002b64:	d0 07 bf f4 	ld  [ %fp + -12 ], %o0
40002b68:	92 52 00 01 	umul  %o0, %g1, %o1
40002b6c:	91 40 00 00 	rd  %y, %o0
40002b70:	d6 07 bf dc 	ld  [ %fp + -36 ], %o3
40002b74:	c2 07 bf ec 	ld  [ %fp + -20 ], %g1
40002b78:	82 18 40 0b 	xor  %g1, %o3, %g1
40002b7c:	80 a0 00 01 	cmp  %g0, %g1
40002b80:	d6 07 bf f0 	ld  [ %fp + -16 ], %o3
40002b84:	c2 07 bf e0 	ld  [ %fp + -32 ], %g1
40002b88:	96 02 c0 01 	add  %o3, %g1, %o3
40002b8c:	9a 10 00 08 	mov  %o0, %o5
40002b90:	94 40 20 00 	addx  %g0, 0, %o2
40002b94:	96 02 e0 02 	add  %o3, 2, %o3
40002b98:	98 10 00 0d 	mov  %o5, %o4
40002b9c:	d4 27 bf cc 	st  %o2, [ %fp + -52 ]
40002ba0:	90 10 00 09 	mov  %o1, %o0
40002ba4:	80 a3 60 00 	cmp  %o5, 0
40002ba8:	06 80 00 1d 	bl  40002c1c <__mulsf3+0x18c>
40002bac:	d6 27 bf d0 	st  %o3, [ %fp + -48 ]
40002bb0:	03 0f ff ff 	sethi  %hi(0x3ffffc00), %g1
40002bb4:	82 10 63 ff 	or  %g1, 0x3ff, %g1	! 3fffffff <_trap_table-0x1>
40002bb8:	80 a3 00 01 	cmp  %o4, %g1
40002bbc:	38 80 00 10 	bgu,a   40002bfc <__mulsf3+0x16c>
40002bc0:	82 0b 20 7f 	and  %o4, 0x7f, %g1
40002bc4:	10 80 00 05 	b  40002bd8 <__mulsf3+0x148>
40002bc8:	d6 03 e0 08 	ld  [ %o7 + 8 ], %o3
40002bcc:	80 a3 00 01 	cmp  %o4, %g1
40002bd0:	38 80 00 0a 	bgu,a   40002bf8 <__mulsf3+0x168>
40002bd4:	da 23 e0 08 	st  %o5, [ %o7 + 8 ]
40002bd8:	9a 02 ff ff 	add  %o3, -1, %o5
40002bdc:	80 a2 20 00 	cmp  %o0, 0
40002be0:	98 03 00 0c 	add  %o4, %o4, %o4
40002be4:	90 02 00 08 	add  %o0, %o0, %o0
40002be8:	16 bf ff f9 	bge  40002bcc <__mulsf3+0x13c>
40002bec:	96 10 00 0d 	mov  %o5, %o3
40002bf0:	10 bf ff f7 	b  40002bcc <__mulsf3+0x13c>
40002bf4:	98 13 20 01 	or  %o4, 1, %o4
40002bf8:	82 0b 20 7f 	and  %o4, 0x7f, %g1
40002bfc:	80 a0 60 40 	cmp  %g1, 0x40
40002c00:	02 80 00 10 	be  40002c40 <__mulsf3+0x1b0>
40002c04:	80 8b 20 80 	btst  0x80, %o4
40002c08:	82 10 20 03 	mov  3, %g1
40002c0c:	d8 23 e0 0c 	st  %o4, [ %o7 + 0xc ]
40002c10:	c2 23 c0 00 	st  %g1, [ %o7 ]
40002c14:	10 80 00 12 	b  40002c5c <__mulsf3+0x1cc>
40002c18:	90 10 00 0f 	mov  %o7, %o0
40002c1c:	80 8b 60 01 	btst  1, %o5
40002c20:	02 80 00 05 	be  40002c34 <__mulsf3+0x1a4>
40002c24:	96 02 e0 01 	inc  %o3
40002c28:	91 32 60 01 	srl  %o1, 1, %o0
40002c2c:	03 20 00 00 	sethi  %hi(0x80000000), %g1
40002c30:	90 12 00 01 	or  %o0, %g1, %o0
40002c34:	99 33 20 01 	srl  %o4, 1, %o4
40002c38:	10 bf ff de 	b  40002bb0 <__mulsf3+0x120>
40002c3c:	d6 23 e0 08 	st  %o3, [ %o7 + 8 ]
40002c40:	32 bf ff f2 	bne,a   40002c08 <__mulsf3+0x178>
40002c44:	98 03 20 40 	add  %o4, 0x40, %o4
40002c48:	80 a2 20 00 	cmp  %o0, 0
40002c4c:	02 bf ff f0 	be  40002c0c <__mulsf3+0x17c>
40002c50:	82 10 20 03 	mov  3, %g1
40002c54:	10 bf ff ee 	b  40002c0c <__mulsf3+0x17c>
40002c58:	98 03 20 40 	add  %o4, 0x40, %o4
40002c5c:	40 00 03 18 	call  400038bc <__pack_f>
40002c60:	01 00 00 00 	nop 
40002c64:	81 c7 e0 08 	ret 
40002c68:	91 e8 00 08 	restore  %g0, %o0, %o0

40002c6c <__divsf3>:
40002c6c:	9d e3 bf 70 	save  %sp, -144, %sp
40002c70:	a0 07 bf e8 	add  %fp, -24, %l0
40002c74:	f2 27 bf d0 	st  %i1, [ %fp + -48 ]
40002c78:	90 07 bf d4 	add  %fp, -44, %o0
40002c7c:	92 10 00 10 	mov  %l0, %o1
40002c80:	40 00 03 61 	call  40003a04 <__unpack_f>
40002c84:	f0 27 bf d4 	st  %i0, [ %fp + -44 ]
40002c88:	b2 07 bf d8 	add  %fp, -40, %i1
40002c8c:	90 07 bf d0 	add  %fp, -48, %o0
40002c90:	40 00 03 5d 	call  40003a04 <__unpack_f>
40002c94:	92 10 00 19 	mov  %i1, %o1
40002c98:	d8 07 bf e8 	ld  [ %fp + -24 ], %o4
40002c9c:	80 a3 20 01 	cmp  %o4, 1
40002ca0:	08 80 00 47 	bleu  40002dbc <__divsf3+0x150>
40002ca4:	90 10 00 10 	mov  %l0, %o0
40002ca8:	d6 07 bf d8 	ld  [ %fp + -40 ], %o3
40002cac:	80 a2 e0 01 	cmp  %o3, 1
40002cb0:	08 80 00 43 	bleu  40002dbc <__divsf3+0x150>
40002cb4:	90 10 00 19 	mov  %i1, %o0
40002cb8:	c2 07 bf ec 	ld  [ %fp + -20 ], %g1
40002cbc:	da 07 bf dc 	ld  [ %fp + -36 ], %o5
40002cc0:	82 18 40 0d 	xor  %g1, %o5, %g1
40002cc4:	80 a3 20 04 	cmp  %o4, 4
40002cc8:	02 80 00 0f 	be  40002d04 <__divsf3+0x98>
40002ccc:	c2 27 bf ec 	st  %g1, [ %fp + -20 ]
40002cd0:	80 a3 20 02 	cmp  %o4, 2
40002cd4:	22 80 00 0d 	be,a   40002d08 <__divsf3+0x9c>
40002cd8:	03 10 00 32 	sethi  %hi(0x4000c800), %g1
40002cdc:	80 a2 e0 04 	cmp  %o3, 4
40002ce0:	22 80 00 0f 	be,a   40002d1c <__divsf3+0xb0>
40002ce4:	c0 27 bf f4 	clr  [ %fp + -12 ]
40002ce8:	80 a2 e0 02 	cmp  %o3, 2
40002cec:	12 80 00 0f 	bne  40002d28 <__divsf3+0xbc>
40002cf0:	d8 07 bf f4 	ld  [ %fp + -12 ], %o4
40002cf4:	82 10 20 04 	mov  4, %g1
40002cf8:	c2 27 bf e8 	st  %g1, [ %fp + -24 ]
40002cfc:	10 80 00 30 	b  40002dbc <__divsf3+0x150>
40002d00:	90 10 00 10 	mov  %l0, %o0
40002d04:	03 10 00 32 	sethi  %hi(0x4000c800), %g1
40002d08:	80 a3 00 0b 	cmp  %o4, %o3
40002d0c:	02 80 00 2c 	be  40002dbc <__divsf3+0x150>
40002d10:	90 10 63 1c 	or  %g1, 0x31c, %o0
40002d14:	10 80 00 2a 	b  40002dbc <__divsf3+0x150>
40002d18:	90 10 00 10 	mov  %l0, %o0
40002d1c:	c0 27 bf f0 	clr  [ %fp + -16 ]
40002d20:	10 80 00 27 	b  40002dbc <__divsf3+0x150>
40002d24:	90 10 00 10 	mov  %l0, %o0
40002d28:	d6 07 bf e4 	ld  [ %fp + -28 ], %o3
40002d2c:	da 07 bf f0 	ld  [ %fp + -16 ], %o5
40002d30:	c2 07 bf e0 	ld  [ %fp + -32 ], %g1
40002d34:	80 a3 00 0b 	cmp  %o4, %o3
40002d38:	1a 80 00 1f 	bcc  40002db4 <__divsf3+0x148>
40002d3c:	82 23 40 01 	sub  %o5, %g1, %g1
40002d40:	82 00 7f ff 	add  %g1, -1, %g1
40002d44:	c2 27 bf f0 	st  %g1, [ %fp + -16 ]
40002d48:	98 03 00 0c 	add  %o4, %o4, %o4
40002d4c:	03 10 00 00 	sethi  %hi(0x40000000), %g1
40002d50:	9a 10 20 00 	clr  %o5
40002d54:	80 a3 00 0b 	cmp  %o4, %o3
40002d58:	2a 80 00 05 	bcs,a   40002d6c <__divsf3+0x100>
40002d5c:	83 30 60 01 	srl  %g1, 1, %g1
40002d60:	9a 13 40 01 	or  %o5, %g1, %o5
40002d64:	98 23 00 0b 	sub  %o4, %o3, %o4
40002d68:	83 30 60 01 	srl  %g1, 1, %g1
40002d6c:	80 a0 60 00 	cmp  %g1, 0
40002d70:	12 bf ff f9 	bne  40002d54 <__divsf3+0xe8>
40002d74:	98 03 00 0c 	add  %o4, %o4, %o4
40002d78:	82 0b 60 7f 	and  %o5, 0x7f, %g1
40002d7c:	80 a0 60 40 	cmp  %g1, 0x40
40002d80:	02 80 00 05 	be  40002d94 <__divsf3+0x128>
40002d84:	80 8b 60 80 	btst  0x80, %o5
40002d88:	da 24 20 0c 	st  %o5, [ %l0 + 0xc ]
40002d8c:	10 80 00 0c 	b  40002dbc <__divsf3+0x150>
40002d90:	90 10 00 10 	mov  %l0, %o0
40002d94:	32 80 00 06 	bne,a   40002dac <__divsf3+0x140>
40002d98:	9a 03 60 40 	add  %o5, 0x40, %o5
40002d9c:	80 a3 20 00 	cmp  %o4, 0
40002da0:	22 bf ff fb 	be,a   40002d8c <__divsf3+0x120>
40002da4:	da 24 20 0c 	st  %o5, [ %l0 + 0xc ]
40002da8:	9a 03 60 40 	add  %o5, 0x40, %o5
40002dac:	10 bf ff f8 	b  40002d8c <__divsf3+0x120>
40002db0:	da 24 20 0c 	st  %o5, [ %l0 + 0xc ]
40002db4:	10 bf ff e6 	b  40002d4c <__divsf3+0xe0>
40002db8:	c2 27 bf f0 	st  %g1, [ %fp + -16 ]
40002dbc:	40 00 02 c0 	call  400038bc <__pack_f>
40002dc0:	01 00 00 00 	nop 
40002dc4:	81 c7 e0 08 	ret 
40002dc8:	91 e8 00 08 	restore  %g0, %o0, %o0

40002dcc <__floatsisf>:
40002dcc:	9d e3 bf 88 	save  %sp, -120, %sp
40002dd0:	9b 36 20 1f 	srl  %i0, 0x1f, %o5
40002dd4:	80 a6 20 00 	cmp  %i0, 0
40002dd8:	12 80 00 07 	bne  40002df4 <__floatsisf+0x28>
40002ddc:	da 27 bf ec 	st  %o5, [ %fp + -20 ]
40002de0:	82 10 20 02 	mov  2, %g1
40002de4:	c2 27 bf e8 	st  %g1, [ %fp + -24 ]
40002de8:	40 00 02 b5 	call  400038bc <__pack_f>
40002dec:	90 07 bf e8 	add  %fp, -24, %o0
40002df0:	30 80 00 21 	b,a   40002e74 <__floatsisf+0xa8>
40002df4:	82 10 20 03 	mov  3, %g1
40002df8:	c2 27 bf e8 	st  %g1, [ %fp + -24 ]
40002dfc:	98 10 00 18 	mov  %i0, %o4
40002e00:	80 a3 60 00 	cmp  %o5, 0
40002e04:	96 10 20 1e 	mov  0x1e, %o3
40002e08:	92 10 20 1e 	mov  0x1e, %o1
40002e0c:	12 80 00 12 	bne  40002e54 <__floatsisf+0x88>
40002e10:	82 10 00 18 	mov  %i0, %g1
40002e14:	9a 10 00 01 	mov  %g1, %o5
40002e18:	03 0f ff ff 	sethi  %hi(0x3ffffc00), %g1
40002e1c:	82 10 63 ff 	or  %g1, 0x3ff, %g1	! 3fffffff <_trap_table-0x1>
40002e20:	80 a3 40 01 	cmp  %o5, %g1
40002e24:	18 80 00 09 	bgu  40002e48 <__floatsisf+0x7c>
40002e28:	94 10 00 01 	mov  %g1, %o2
40002e2c:	82 02 ff ff 	add  %o3, -1, %g1
40002e30:	98 03 40 0d 	add  %o5, %o5, %o4
40002e34:	96 10 00 01 	mov  %g1, %o3
40002e38:	80 a3 00 0a 	cmp  %o4, %o2
40002e3c:	92 10 00 01 	mov  %g1, %o1
40002e40:	08 bf ff fb 	bleu  40002e2c <__floatsisf+0x60>
40002e44:	9a 10 00 0c 	mov  %o4, %o5
40002e48:	d8 27 bf f4 	st  %o4, [ %fp + -12 ]
40002e4c:	10 bf ff e7 	b  40002de8 <__floatsisf+0x1c>
40002e50:	d2 27 bf f0 	st  %o1, [ %fp + -16 ]
40002e54:	03 20 00 00 	sethi  %hi(0x80000000), %g1
40002e58:	98 20 00 18 	neg  %i0, %o4
40002e5c:	80 a6 00 01 	cmp  %i0, %g1
40002e60:	12 bf ff ed 	bne  40002e14 <__floatsisf+0x48>
40002e64:	82 10 00 0c 	mov  %o4, %g1
40002e68:	03 10 00 32 	sethi  %hi(0x4000c800), %g1
40002e6c:	d2 27 bf f0 	st  %o1, [ %fp + -16 ]
40002e70:	d0 00 63 18 	ld  [ %g1 + 0x318 ], %o0
40002e74:	81 c7 e0 08 	ret 
40002e78:	91 e8 00 08 	restore  %g0, %o0, %o0

40002e7c <__extendsfdf2>:
40002e7c:	9d e3 bf 80 	save  %sp, -128, %sp
40002e80:	f0 27 bf e4 	st  %i0, [ %fp + -28 ]
40002e84:	90 07 bf e4 	add  %fp, -28, %o0
40002e88:	40 00 02 df 	call  40003a04 <__unpack_f>
40002e8c:	92 07 bf e8 	add  %fp, -24, %o1
40002e90:	d0 07 bf f4 	ld  [ %fp + -12 ], %o0
40002e94:	92 10 00 08 	mov  %o0, %o1
40002e98:	90 10 20 00 	clr  %o0
40002e9c:	9b 32 60 02 	srl  %o1, 2, %o5
40002ea0:	83 2a 20 1e 	sll  %o0, 0x1e, %g1
40002ea4:	90 13 40 01 	or  %o5, %g1, %o0
40002ea8:	93 2a 60 1e 	sll  %o1, 0x1e, %o1
40002eac:	96 10 00 08 	mov  %o0, %o3
40002eb0:	98 10 00 09 	mov  %o1, %o4
40002eb4:	d0 1f bf e8 	ldd  [ %fp + -24 ], %o0
40002eb8:	40 00 02 5e 	call  40003830 <__make_dp>
40002ebc:	d4 07 bf f0 	ld  [ %fp + -16 ], %o2
40002ec0:	b0 10 00 08 	mov  %o0, %i0
40002ec4:	81 c7 e0 08 	ret 
40002ec8:	93 e8 00 09 	restore  %g0, %o1, %o1

40002ecc <_fpadd_parts>:
40002ecc:	9d e3 bf 98 	save  %sp, -104, %sp
40002ed0:	c2 06 00 00 	ld  [ %i0 ], %g1
40002ed4:	9e 10 00 18 	mov  %i0, %o7
40002ed8:	80 a0 60 01 	cmp  %g1, 1
40002edc:	08 80 00 ad 	bleu  40003190 <_fpadd_parts+0x2c4>
40002ee0:	92 10 00 1a 	mov  %i2, %o1
40002ee4:	fa 06 40 00 	ld  [ %i1 ], %i5
40002ee8:	80 a7 60 01 	cmp  %i5, 1
40002eec:	08 80 00 a9 	bleu  40003190 <_fpadd_parts+0x2c4>
40002ef0:	b0 10 00 19 	mov  %i1, %i0
40002ef4:	80 a0 60 04 	cmp  %g1, 4
40002ef8:	12 80 00 0c 	bne  40002f28 <_fpadd_parts+0x5c>
40002efc:	80 a7 60 04 	cmp  %i5, 4
40002f00:	12 80 00 a4 	bne  40003190 <_fpadd_parts+0x2c4>
40002f04:	b0 10 00 0f 	mov  %o7, %i0
40002f08:	c2 06 60 04 	ld  [ %i1 + 4 ], %g1
40002f0c:	fa 03 e0 04 	ld  [ %o7 + 4 ], %i5
40002f10:	39 10 00 32 	sethi  %hi(0x4000c800), %i4
40002f14:	80 a7 40 01 	cmp  %i5, %g1
40002f18:	12 80 00 9e 	bne  40003190 <_fpadd_parts+0x2c4>
40002f1c:	b0 17 23 38 	or  %i4, 0x338, %i0
40002f20:	10 80 00 9c 	b  40003190 <_fpadd_parts+0x2c4>
40002f24:	b0 10 00 0f 	mov  %o7, %i0
40002f28:	02 80 00 9a 	be  40003190 <_fpadd_parts+0x2c4>
40002f2c:	b0 10 00 19 	mov  %i1, %i0
40002f30:	80 a7 60 02 	cmp  %i5, 2
40002f34:	02 80 00 58 	be  40003094 <_fpadd_parts+0x1c8>
40002f38:	80 a0 60 02 	cmp  %g1, 2
40002f3c:	02 80 00 95 	be  40003190 <_fpadd_parts+0x2c4>
40002f40:	01 00 00 00 	nop 
40002f44:	d0 03 e0 08 	ld  [ %o7 + 8 ], %o0
40002f48:	f0 06 60 08 	ld  [ %i1 + 8 ], %i0
40002f4c:	82 22 00 18 	sub  %o0, %i0, %g1
40002f50:	bb 38 60 1f 	sra  %g1, 0x1f, %i5
40002f54:	82 18 40 1d 	xor  %g1, %i5, %g1
40002f58:	82 20 40 1d 	sub  %g1, %i5, %g1
40002f5c:	80 a0 60 3f 	cmp  %g1, 0x3f
40002f60:	d8 1b e0 10 	ldd  [ %o7 + 0x10 ], %o4
40002f64:	14 80 00 67 	bg  40003100 <_fpadd_parts+0x234>
40002f68:	d4 1e 60 10 	ldd  [ %i1 + 0x10 ], %o2
40002f6c:	80 a2 00 18 	cmp  %o0, %i0
40002f70:	04 80 00 0f 	ble  40002fac <_fpadd_parts+0xe0>
40002f74:	80 a6 00 08 	cmp  %i0, %o0
40002f78:	b0 22 00 18 	sub  %o0, %i0, %i0
40002f7c:	b7 2a a0 1f 	sll  %o2, 0x1f, %i3
40002f80:	83 32 e0 01 	srl  %o3, 1, %g1
40002f84:	ba 16 c0 01 	or  %i3, %g1, %i5
40002f88:	b9 32 a0 01 	srl  %o2, 1, %i4
40002f8c:	b4 0a a0 00 	and  %o2, 0, %i2
40002f90:	b6 0a e0 01 	and  %o3, 1, %i3
40002f94:	94 16 80 1c 	or  %i2, %i4, %o2
40002f98:	b0 86 3f ff 	addcc  %i0, -1, %i0
40002f9c:	12 bf ff f8 	bne  40002f7c <_fpadd_parts+0xb0>
40002fa0:	96 16 c0 1d 	or  %i3, %i5, %o3
40002fa4:	b0 10 00 08 	mov  %o0, %i0
40002fa8:	80 a6 00 08 	cmp  %i0, %o0
40002fac:	24 80 00 0f 	ble,a   40002fe8 <_fpadd_parts+0x11c>
40002fb0:	f8 03 e0 04 	ld  [ %o7 + 4 ], %i4
40002fb4:	90 26 00 08 	sub  %i0, %o0, %o0
40002fb8:	b7 2b 20 1f 	sll  %o4, 0x1f, %i3
40002fbc:	83 33 60 01 	srl  %o5, 1, %g1
40002fc0:	ba 16 c0 01 	or  %i3, %g1, %i5
40002fc4:	b9 33 20 01 	srl  %o4, 1, %i4
40002fc8:	b4 0b 20 00 	and  %o4, 0, %i2
40002fcc:	b6 0b 60 01 	and  %o5, 1, %i3
40002fd0:	98 16 80 1c 	or  %i2, %i4, %o4
40002fd4:	90 82 3f ff 	addcc  %o0, -1, %o0
40002fd8:	12 bf ff f8 	bne  40002fb8 <_fpadd_parts+0xec>
40002fdc:	9a 16 c0 1d 	or  %i3, %i5, %o5
40002fe0:	90 10 00 18 	mov  %i0, %o0
40002fe4:	f8 03 e0 04 	ld  [ %o7 + 4 ], %i4
40002fe8:	c2 06 60 04 	ld  [ %i1 + 4 ], %g1
40002fec:	80 a7 00 01 	cmp  %i4, %g1
40002ff0:	02 80 00 59 	be  40003154 <_fpadd_parts+0x288>
40002ff4:	80 a7 20 00 	cmp  %i4, 0
40002ff8:	02 80 00 55 	be  4000314c <_fpadd_parts+0x280>
40002ffc:	ba a3 40 0b 	subcc  %o5, %o3, %i5
40003000:	ba a2 c0 0d 	subcc  %o3, %o5, %i5
40003004:	b8 62 80 0c 	subx  %o2, %o4, %i4
40003008:	80 a7 20 00 	cmp  %i4, 0
4000300c:	06 80 00 5c 	bl  4000317c <_fpadd_parts+0x2b0>
40003010:	b2 a0 00 1d 	subcc  %g0, %i5, %i1
40003014:	9e 10 00 08 	mov  %o0, %o7
40003018:	b0 10 00 1c 	mov  %i4, %i0
4000301c:	b2 10 00 1d 	mov  %i5, %i1
40003020:	c0 22 60 04 	clr  [ %o1 + 4 ]
40003024:	ba 86 7f ff 	addcc  %i1, -1, %i5
40003028:	03 03 ff ff 	sethi  %hi(0xffffc00), %g1
4000302c:	b8 46 3f ff 	addx  %i0, -1, %i4
40003030:	82 10 63 ff 	or  %g1, 0x3ff, %g1
40003034:	9a 10 00 0f 	mov  %o7, %o5
40003038:	b4 10 00 18 	mov  %i0, %i2
4000303c:	b6 10 00 19 	mov  %i1, %i3
40003040:	80 a7 00 01 	cmp  %i4, %g1
40003044:	18 80 00 24 	bgu  400030d4 <_fpadd_parts+0x208>
40003048:	80 a7 00 01 	cmp  %i4, %g1
4000304c:	22 80 00 20 	be,a   400030cc <_fpadd_parts+0x200>
40003050:	80 a7 7f fe 	cmp  %i5, -2
40003054:	b7 36 60 1f 	srl  %i1, 0x1f, %i3
40003058:	82 06 00 18 	add  %i0, %i0, %g1
4000305c:	ba 06 40 19 	add  %i1, %i1, %i5
40003060:	b8 16 c0 01 	or  %i3, %g1, %i4
40003064:	b2 10 00 1d 	mov  %i5, %i1
40003068:	b0 10 00 1c 	mov  %i4, %i0
4000306c:	ba 87 7f ff 	addcc  %i5, -1, %i5
40003070:	03 03 ff ff 	sethi  %hi(0xffffc00), %g1
40003074:	b8 47 3f ff 	addx  %i4, -1, %i4
40003078:	82 10 63 ff 	or  %g1, 0x3ff, %g1
4000307c:	9e 03 ff ff 	add  %o7, -1, %o7
40003080:	80 a7 00 01 	cmp  %i4, %g1
40003084:	b4 10 00 18 	mov  %i0, %i2
40003088:	b6 10 00 19 	mov  %i1, %i3
4000308c:	10 bf ff ee 	b  40003044 <_fpadd_parts+0x178>
40003090:	9a 10 00 0f 	mov  %o7, %o5
40003094:	12 80 00 3f 	bne  40003190 <_fpadd_parts+0x2c4>
40003098:	b0 10 00 0f 	mov  %o7, %i0
4000309c:	f8 1b c0 00 	ldd  [ %o7 ], %i4
400030a0:	f8 3e 80 00 	std  %i4, [ %i2 ]
400030a4:	f4 1b e0 08 	ldd  [ %o7 + 8 ], %i2
400030a8:	f4 3a 60 08 	std  %i2, [ %o1 + 8 ]
400030ac:	f8 1b e0 10 	ldd  [ %o7 + 0x10 ], %i4
400030b0:	f8 3a 60 10 	std  %i4, [ %o1 + 0x10 ]
400030b4:	c2 03 e0 04 	ld  [ %o7 + 4 ], %g1
400030b8:	fa 06 60 04 	ld  [ %i1 + 4 ], %i5
400030bc:	82 08 40 1d 	and  %g1, %i5, %g1
400030c0:	c2 22 60 04 	st  %g1, [ %o1 + 4 ]
400030c4:	10 80 00 33 	b  40003190 <_fpadd_parts+0x2c4>
400030c8:	b0 10 00 09 	mov  %o1, %i0
400030cc:	28 bf ff e3 	bleu,a   40003058 <_fpadd_parts+0x18c>
400030d0:	b7 36 60 1f 	srl  %i1, 0x1f, %i3
400030d4:	f4 3a 60 10 	std  %i2, [ %o1 + 0x10 ]
400030d8:	3b 07 ff ff 	sethi  %hi(0x1ffffc00), %i5
400030dc:	c2 02 60 10 	ld  [ %o1 + 0x10 ], %g1
400030e0:	ba 17 63 ff 	or  %i5, 0x3ff, %i5
400030e4:	b8 10 20 03 	mov  3, %i4
400030e8:	80 a0 40 1d 	cmp  %g1, %i5
400030ec:	18 80 00 0b 	bgu  40003118 <_fpadd_parts+0x24c>
400030f0:	f8 22 40 00 	st  %i4, [ %o1 ]
400030f4:	da 22 60 08 	st  %o5, [ %o1 + 8 ]
400030f8:	10 80 00 26 	b  40003190 <_fpadd_parts+0x2c4>
400030fc:	b0 10 00 09 	mov  %o1, %i0
40003100:	80 a2 00 18 	cmp  %o0, %i0
40003104:	24 80 00 1b 	ble,a   40003170 <_fpadd_parts+0x2a4>
40003108:	90 10 00 18 	mov  %i0, %o0
4000310c:	94 10 20 00 	clr  %o2
40003110:	10 bf ff b5 	b  40002fe4 <_fpadd_parts+0x118>
40003114:	96 10 20 00 	clr  %o3
40003118:	b7 2e 20 1f 	sll  %i0, 0x1f, %i3
4000311c:	83 36 60 01 	srl  %i1, 1, %g1
40003120:	ba 16 c0 01 	or  %i3, %g1, %i5
40003124:	b9 36 20 01 	srl  %i0, 1, %i4
40003128:	b4 0e 20 00 	and  %i0, 0, %i2
4000312c:	b6 0e 60 01 	and  %i1, 1, %i3
40003130:	b4 16 80 1c 	or  %i2, %i4, %i2
40003134:	b6 16 c0 1d 	or  %i3, %i5, %i3
40003138:	82 03 e0 01 	add  %o7, 1, %g1
4000313c:	f4 3a 60 10 	std  %i2, [ %o1 + 0x10 ]
40003140:	c2 22 60 08 	st  %g1, [ %o1 + 8 ]
40003144:	10 80 00 13 	b  40003190 <_fpadd_parts+0x2c4>
40003148:	b0 10 00 09 	mov  %o1, %i0
4000314c:	10 bf ff af 	b  40003008 <_fpadd_parts+0x13c>
40003150:	b8 63 00 0a 	subx  %o4, %o2, %i4
40003154:	b2 83 40 0b 	addcc  %o5, %o3, %i1
40003158:	b0 43 00 0a 	addx  %o4, %o2, %i0
4000315c:	9e 10 00 08 	mov  %o0, %o7
40003160:	f8 22 60 04 	st  %i4, [ %o1 + 4 ]
40003164:	f0 3a 60 10 	std  %i0, [ %o1 + 0x10 ]
40003168:	10 bf ff dc 	b  400030d8 <_fpadd_parts+0x20c>
4000316c:	9a 10 00 08 	mov  %o0, %o5
40003170:	98 10 20 00 	clr  %o4
40003174:	10 bf ff 9c 	b  40002fe4 <_fpadd_parts+0x118>
40003178:	9a 10 20 00 	clr  %o5
4000317c:	82 10 20 01 	mov  1, %g1
40003180:	b0 60 00 1c 	subx  %g0, %i4, %i0
40003184:	9e 10 00 08 	mov  %o0, %o7
40003188:	10 bf ff a7 	b  40003024 <_fpadd_parts+0x158>
4000318c:	c2 22 60 04 	st  %g1, [ %o1 + 4 ]
40003190:	81 c7 e0 08 	ret 
40003194:	81 e8 00 00 	restore 

40003198 <__adddf3>:
40003198:	9d e3 bf 40 	save  %sp, -192, %sp
4000319c:	a2 07 bf e0 	add  %fp, -32, %l1
400031a0:	f0 3f bf a8 	std  %i0, [ %fp + -88 ]
400031a4:	90 07 bf a8 	add  %fp, -88, %o0
400031a8:	92 10 00 11 	mov  %l1, %o1
400031ac:	40 00 02 d3 	call  40003cf8 <__unpack_d>
400031b0:	f4 3f bf a0 	std  %i2, [ %fp + -96 ]
400031b4:	a0 07 bf c8 	add  %fp, -56, %l0
400031b8:	90 07 bf a0 	add  %fp, -96, %o0
400031bc:	40 00 02 cf 	call  40003cf8 <__unpack_d>
400031c0:	92 10 00 10 	mov  %l0, %o1
400031c4:	92 10 00 10 	mov  %l0, %o1
400031c8:	94 07 bf b0 	add  %fp, -80, %o2
400031cc:	7f ff ff 40 	call  40002ecc <_fpadd_parts>
400031d0:	90 10 00 11 	mov  %l1, %o0
400031d4:	40 00 02 49 	call  40003af8 <__pack_d>
400031d8:	01 00 00 00 	nop 
400031dc:	b0 10 00 08 	mov  %o0, %i0
400031e0:	81 c7 e0 08 	ret 
400031e4:	93 e8 00 09 	restore  %g0, %o1, %o1

400031e8 <__subdf3>:
400031e8:	9d e3 bf 40 	save  %sp, -192, %sp
400031ec:	a2 07 bf e0 	add  %fp, -32, %l1
400031f0:	f0 3f bf a8 	std  %i0, [ %fp + -88 ]
400031f4:	90 07 bf a8 	add  %fp, -88, %o0
400031f8:	92 10 00 11 	mov  %l1, %o1
400031fc:	40 00 02 bf 	call  40003cf8 <__unpack_d>
40003200:	f4 3f bf a0 	std  %i2, [ %fp + -96 ]
40003204:	a0 07 bf c8 	add  %fp, -56, %l0
40003208:	90 07 bf a0 	add  %fp, -96, %o0
4000320c:	40 00 02 bb 	call  40003cf8 <__unpack_d>
40003210:	92 10 00 10 	mov  %l0, %o1
40003214:	c2 07 bf cc 	ld  [ %fp + -52 ], %g1
40003218:	82 18 60 01 	xor  %g1, 1, %g1
4000321c:	c2 27 bf cc 	st  %g1, [ %fp + -52 ]
40003220:	92 10 00 10 	mov  %l0, %o1
40003224:	94 07 bf b0 	add  %fp, -80, %o2
40003228:	7f ff ff 29 	call  40002ecc <_fpadd_parts>
4000322c:	90 10 00 11 	mov  %l1, %o0
40003230:	40 00 02 32 	call  40003af8 <__pack_d>
40003234:	01 00 00 00 	nop 
40003238:	b0 10 00 08 	mov  %o0, %i0
4000323c:	81 c7 e0 08 	ret 
40003240:	93 e8 00 09 	restore  %g0, %o1, %o1

40003244 <__muldf3>:
40003244:	9d e3 bf 40 	save  %sp, -192, %sp
40003248:	a4 07 bf e0 	add  %fp, -32, %l2
4000324c:	f4 3f bf a0 	std  %i2, [ %fp + -96 ]
40003250:	90 07 bf a8 	add  %fp, -88, %o0
40003254:	92 10 00 12 	mov  %l2, %o1
40003258:	40 00 02 a8 	call  40003cf8 <__unpack_d>
4000325c:	f0 3f bf a8 	std  %i0, [ %fp + -88 ]
40003260:	b6 07 bf c8 	add  %fp, -56, %i3
40003264:	90 07 bf a0 	add  %fp, -96, %o0
40003268:	40 00 02 a4 	call  40003cf8 <__unpack_d>
4000326c:	92 10 00 1b 	mov  %i3, %o1
40003270:	c2 07 bf e0 	ld  [ %fp + -32 ], %g1
40003274:	80 a0 60 01 	cmp  %g1, 1
40003278:	08 80 00 1a 	bleu  400032e0 <__muldf3+0x9c>
4000327c:	a6 07 bf b0 	add  %fp, -80, %l3
40003280:	da 07 bf c8 	ld  [ %fp + -56 ], %o5
40003284:	80 a3 60 01 	cmp  %o5, 1
40003288:	28 80 00 0c 	bleu,a   400032b8 <__muldf3+0x74>
4000328c:	da 07 bf cc 	ld  [ %fp + -52 ], %o5
40003290:	80 a0 60 04 	cmp  %g1, 4
40003294:	22 80 00 10 	be,a   400032d4 <__muldf3+0x90>
40003298:	03 10 00 32 	sethi  %hi(0x4000c800), %g1
4000329c:	80 a3 60 04 	cmp  %o5, 4
400032a0:	12 80 00 18 	bne  40003300 <__muldf3+0xbc>
400032a4:	80 a0 60 02 	cmp  %g1, 2
400032a8:	03 10 00 32 	sethi  %hi(0x4000c800), %g1
400032ac:	02 80 00 9b 	be  40003518 <__muldf3+0x2d4>
400032b0:	90 10 63 38 	or  %g1, 0x338, %o0	! 4000cb38 <__thenan_df>
400032b4:	da 07 bf cc 	ld  [ %fp + -52 ], %o5
400032b8:	c2 07 bf e4 	ld  [ %fp + -28 ], %g1
400032bc:	82 18 40 0d 	xor  %g1, %o5, %g1
400032c0:	80 a0 00 01 	cmp  %g0, %g1
400032c4:	9a 40 20 00 	addx  %g0, 0, %o5
400032c8:	da 27 bf cc 	st  %o5, [ %fp + -52 ]
400032cc:	10 80 00 93 	b  40003518 <__muldf3+0x2d4>
400032d0:	90 10 00 1b 	mov  %i3, %o0
400032d4:	80 a3 60 02 	cmp  %o5, 2
400032d8:	02 80 00 90 	be  40003518 <__muldf3+0x2d4>
400032dc:	90 10 63 38 	or  %g1, 0x338, %o0
400032e0:	c2 07 bf e4 	ld  [ %fp + -28 ], %g1
400032e4:	da 07 bf cc 	ld  [ %fp + -52 ], %o5
400032e8:	82 18 40 0d 	xor  %g1, %o5, %g1
400032ec:	80 a0 00 01 	cmp  %g0, %g1
400032f0:	9a 40 20 00 	addx  %g0, 0, %o5
400032f4:	da 27 bf e4 	st  %o5, [ %fp + -28 ]
400032f8:	10 80 00 88 	b  40003518 <__muldf3+0x2d4>
400032fc:	90 10 00 12 	mov  %l2, %o0
40003300:	02 bf ff f9 	be  400032e4 <__muldf3+0xa0>
40003304:	c2 07 bf e4 	ld  [ %fp + -28 ], %g1
40003308:	80 a3 60 02 	cmp  %o5, 2
4000330c:	02 bf ff ec 	be  400032bc <__muldf3+0x78>
40003310:	da 07 bf cc 	ld  [ %fp + -52 ], %o5
40003314:	d6 07 bf f0 	ld  [ %fp + -16 ], %o3
40003318:	92 10 00 0b 	mov  %o3, %o1
4000331c:	da 07 bf d8 	ld  [ %fp + -40 ], %o5
40003320:	d4 07 bf f4 	ld  [ %fp + -12 ], %o2
40003324:	a2 53 40 0a 	umul  %o5, %o2, %l1
40003328:	a1 40 00 00 	rd  %y, %l0
4000332c:	82 10 00 0d 	mov  %o5, %g1
40003330:	d6 07 bf dc 	ld  [ %fp + -36 ], %o3
40003334:	9a 52 c0 09 	umul  %o3, %o1, %o5
40003338:	99 40 00 00 	rd  %y, %o4
4000333c:	aa 84 40 0d 	addcc  %l1, %o5, %l5
40003340:	a8 44 00 0c 	addx  %l0, %o4, %l4
40003344:	ae 50 40 09 	umul  %g1, %o1, %l7
40003348:	ad 40 00 00 	rd  %y, %l6
4000334c:	80 a4 00 14 	cmp  %l0, %l4
40003350:	b2 52 c0 0a 	umul  %o3, %o2, %i1
40003354:	b1 40 00 00 	rd  %y, %i0
40003358:	90 10 20 00 	clr  %o0
4000335c:	18 80 00 63 	bgu  400034e8 <__muldf3+0x2a4>
40003360:	92 10 20 00 	clr  %o1
40003364:	80 a4 00 14 	cmp  %l0, %l4
40003368:	02 80 00 5e 	be  400034e0 <__muldf3+0x29c>
4000336c:	80 a4 40 15 	cmp  %l1, %l5
40003370:	a2 10 20 00 	clr  %l1
40003374:	a2 86 40 11 	addcc  %i1, %l1, %l1
40003378:	a0 46 00 15 	addx  %i0, %l5, %l0
4000337c:	80 a6 00 10 	cmp  %i0, %l0
40003380:	38 80 00 56 	bgu,a   400034d8 <__muldf3+0x294>
40003384:	92 82 60 01 	inccc  %o1
40003388:	80 a6 00 10 	cmp  %i0, %l0
4000338c:	02 80 00 50 	be  400034cc <__muldf3+0x288>
40003390:	80 a6 40 11 	cmp  %i1, %l1
40003394:	9a 85 00 17 	addcc  %l4, %l7, %o5
40003398:	98 10 20 00 	clr  %o4
4000339c:	98 43 00 16 	addx  %o4, %l6, %o4
400033a0:	b2 82 40 0d 	addcc  %o1, %o5, %i1
400033a4:	d6 06 e0 04 	ld  [ %i3 + 4 ], %o3
400033a8:	c2 04 a0 04 	ld  [ %l2 + 4 ], %g1
400033ac:	b0 42 00 0c 	addx  %o0, %o4, %i0
400033b0:	82 18 40 0b 	xor  %g1, %o3, %g1
400033b4:	80 a0 00 01 	cmp  %g0, %g1
400033b8:	da 04 a0 08 	ld  [ %l2 + 8 ], %o5
400033bc:	d8 06 e0 08 	ld  [ %i3 + 8 ], %o4
400033c0:	9a 03 40 0c 	add  %o5, %o4, %o5
400033c4:	03 07 ff ff 	sethi  %hi(0x1ffffc00), %g1
400033c8:	96 40 20 00 	addx  %g0, 0, %o3
400033cc:	90 03 60 04 	add  %o5, 4, %o0
400033d0:	82 10 63 ff 	or  %g1, 0x3ff, %g1
400033d4:	d6 24 e0 04 	st  %o3, [ %l3 + 4 ]
400033d8:	80 a6 00 01 	cmp  %i0, %g1
400033dc:	08 80 00 18 	bleu  4000343c <__muldf3+0x1f8>
400033e0:	92 10 00 08 	mov  %o0, %o1
400033e4:	94 10 00 01 	mov  %g1, %o2
400033e8:	29 20 00 00 	sethi  %hi(0x80000000), %l4
400033ec:	aa 10 20 00 	clr  %l5
400033f0:	97 2e 20 1f 	sll  %i0, 0x1f, %o3
400033f4:	83 36 60 01 	srl  %i1, 1, %g1
400033f8:	9a 12 c0 01 	or  %o3, %g1, %o5
400033fc:	99 36 20 01 	srl  %i0, 1, %o4
40003400:	97 2c 20 1f 	sll  %l0, 0x1f, %o3
40003404:	83 34 60 01 	srl  %l1, 1, %g1
40003408:	90 02 20 01 	inc  %o0
4000340c:	80 8e 60 01 	btst  1, %i1
40003410:	b6 12 c0 01 	or  %o3, %g1, %i3
40003414:	b5 34 20 01 	srl  %l0, 1, %i2
40003418:	b0 10 00 0c 	mov  %o4, %i0
4000341c:	b2 10 00 0d 	mov  %o5, %i1
40003420:	02 80 00 04 	be  40003430 <__muldf3+0x1ec>
40003424:	92 10 00 08 	mov  %o0, %o1
40003428:	a0 16 80 14 	or  %i2, %l4, %l0
4000342c:	a2 16 c0 15 	or  %i3, %l5, %l1
40003430:	80 a6 00 0a 	cmp  %i0, %o2
40003434:	18 bf ff f0 	bgu  400033f4 <__muldf3+0x1b0>
40003438:	97 2e 20 1f 	sll  %i0, 0x1f, %o3
4000343c:	03 03 ff ff 	sethi  %hi(0xffffc00), %g1
40003440:	82 10 63 ff 	or  %g1, 0x3ff, %g1	! fffffff <_trap_table-0x30000001>
40003444:	80 a6 00 01 	cmp  %i0, %g1
40003448:	18 80 00 14 	bgu  40003498 <__muldf3+0x254>
4000344c:	9b 34 60 1f 	srl  %l1, 0x1f, %o5
40003450:	82 04 00 10 	add  %l0, %l0, %g1
40003454:	90 06 00 18 	add  %i0, %i0, %o0
40003458:	9f 36 60 1f 	srl  %i1, 0x1f, %o7
4000345c:	94 13 40 01 	or  %o5, %g1, %o2
40003460:	98 13 c0 08 	or  %o7, %o0, %o4
40003464:	92 02 7f ff 	add  %o1, -1, %o1
40003468:	96 04 40 11 	add  %l1, %l1, %o3
4000346c:	9a 06 40 19 	add  %i1, %i1, %o5
40003470:	80 a4 20 00 	cmp  %l0, 0
40003474:	b0 10 00 0c 	mov  %o4, %i0
40003478:	b2 10 00 0d 	mov  %o5, %i1
4000347c:	a0 10 00 0a 	mov  %o2, %l0
40003480:	a2 10 00 0b 	mov  %o3, %l1
40003484:	16 bf ff ee 	bge  4000343c <__muldf3+0x1f8>
40003488:	90 10 00 09 	mov  %o1, %o0
4000348c:	b0 13 20 00 	mov  %o4, %i0
40003490:	10 bf ff eb 	b  4000343c <__muldf3+0x1f8>
40003494:	b2 13 60 01 	or  %o5, 1, %i1
40003498:	98 0e 20 00 	and  %i0, 0, %o4
4000349c:	9a 0e 60 ff 	and  %i1, 0xff, %o5
400034a0:	80 a3 20 00 	cmp  %o4, 0
400034a4:	12 80 00 05 	bne  400034b8 <__muldf3+0x274>
400034a8:	d0 24 e0 08 	st  %o0, [ %l3 + 8 ]
400034ac:	80 a3 60 80 	cmp  %o5, 0x80
400034b0:	02 80 00 11 	be  400034f4 <__muldf3+0x2b0>
400034b4:	9a 0e 61 00 	and  %i1, 0x100, %o5
400034b8:	82 10 20 03 	mov  3, %g1
400034bc:	f0 3c e0 10 	std  %i0, [ %l3 + 0x10 ]
400034c0:	c2 24 c0 00 	st  %g1, [ %l3 ]
400034c4:	10 80 00 15 	b  40003518 <__muldf3+0x2d4>
400034c8:	90 10 00 13 	mov  %l3, %o0
400034cc:	08 bf ff b3 	bleu  40003398 <__muldf3+0x154>
400034d0:	9a 85 00 17 	addcc  %l4, %l7, %o5
400034d4:	92 82 60 01 	inccc  %o1
400034d8:	10 bf ff af 	b  40003394 <__muldf3+0x150>
400034dc:	90 42 20 00 	addx  %o0, 0, %o0
400034e0:	08 bf ff a5 	bleu  40003374 <__muldf3+0x130>
400034e4:	a2 10 20 00 	clr  %l1
400034e8:	90 10 20 01 	mov  1, %o0
400034ec:	10 bf ff a1 	b  40003370 <__muldf3+0x12c>
400034f0:	92 10 20 00 	clr  %o1
400034f4:	80 93 00 0d 	orcc  %o4, %o5, %g0
400034f8:	32 80 00 06 	bne,a   40003510 <__muldf3+0x2cc>
400034fc:	b2 86 60 80 	addcc  %i1, 0x80, %i1
40003500:	80 94 00 11 	orcc  %l0, %l1, %g0
40003504:	02 bf ff ee 	be  400034bc <__muldf3+0x278>
40003508:	82 10 20 03 	mov  3, %g1
4000350c:	b2 86 60 80 	addcc  %i1, 0x80, %i1
40003510:	10 bf ff ea 	b  400034b8 <__muldf3+0x274>
40003514:	b0 46 20 00 	addx  %i0, 0, %i0
40003518:	40 00 01 78 	call  40003af8 <__pack_d>
4000351c:	01 00 00 00 	nop 
40003520:	b0 10 00 08 	mov  %o0, %i0
40003524:	81 c7 e0 08 	ret 
40003528:	93 e8 00 09 	restore  %g0, %o1, %o1

4000352c <__divdf3>:
4000352c:	9d e3 bf 58 	save  %sp, -168, %sp
40003530:	a4 07 bf e0 	add  %fp, -32, %l2
40003534:	f4 3f bf b8 	std  %i2, [ %fp + -72 ]
40003538:	90 07 bf c0 	add  %fp, -64, %o0
4000353c:	92 10 00 12 	mov  %l2, %o1
40003540:	40 00 01 ee 	call  40003cf8 <__unpack_d>
40003544:	f0 3f bf c0 	std  %i0, [ %fp + -64 ]
40003548:	b6 07 bf c8 	add  %fp, -56, %i3
4000354c:	90 07 bf b8 	add  %fp, -72, %o0
40003550:	40 00 01 ea 	call  40003cf8 <__unpack_d>
40003554:	92 10 00 1b 	mov  %i3, %o1
40003558:	d8 07 bf e0 	ld  [ %fp + -32 ], %o4
4000355c:	80 a3 20 01 	cmp  %o4, 1
40003560:	08 80 00 6e 	bleu  40003718 <__divdf3+0x1ec>
40003564:	90 10 00 12 	mov  %l2, %o0
40003568:	d6 07 bf c8 	ld  [ %fp + -56 ], %o3
4000356c:	80 a2 e0 01 	cmp  %o3, 1
40003570:	08 80 00 6a 	bleu  40003718 <__divdf3+0x1ec>
40003574:	90 10 00 1b 	mov  %i3, %o0
40003578:	c2 07 bf e4 	ld  [ %fp + -28 ], %g1
4000357c:	da 07 bf cc 	ld  [ %fp + -52 ], %o5
40003580:	82 18 40 0d 	xor  %g1, %o5, %g1
40003584:	80 a3 20 04 	cmp  %o4, 4
40003588:	02 80 00 0f 	be  400035c4 <__divdf3+0x98>
4000358c:	c2 27 bf e4 	st  %g1, [ %fp + -28 ]
40003590:	80 a3 20 02 	cmp  %o4, 2
40003594:	22 80 00 0d 	be,a   400035c8 <__divdf3+0x9c>
40003598:	03 10 00 32 	sethi  %hi(0x4000c800), %g1
4000359c:	80 a2 e0 04 	cmp  %o3, 4
400035a0:	22 80 00 0f 	be,a   400035dc <__divdf3+0xb0>
400035a4:	98 10 20 00 	clr  %o4
400035a8:	80 a2 e0 02 	cmp  %o3, 2
400035ac:	12 80 00 11 	bne  400035f0 <__divdf3+0xc4>
400035b0:	da 07 bf e8 	ld  [ %fp + -24 ], %o5
400035b4:	82 10 20 04 	mov  4, %g1
400035b8:	c2 27 bf e0 	st  %g1, [ %fp + -32 ]
400035bc:	10 80 00 57 	b  40003718 <__divdf3+0x1ec>
400035c0:	90 10 00 12 	mov  %l2, %o0
400035c4:	03 10 00 32 	sethi  %hi(0x4000c800), %g1
400035c8:	80 a3 00 0b 	cmp  %o4, %o3
400035cc:	02 80 00 53 	be  40003718 <__divdf3+0x1ec>
400035d0:	90 10 63 38 	or  %g1, 0x338, %o0
400035d4:	10 80 00 51 	b  40003718 <__divdf3+0x1ec>
400035d8:	90 10 00 12 	mov  %l2, %o0
400035dc:	9a 10 20 00 	clr  %o5
400035e0:	d8 3f bf f0 	std  %o4, [ %fp + -16 ]
400035e4:	c0 27 bf e8 	clr  [ %fp + -24 ]
400035e8:	10 80 00 4c 	b  40003718 <__divdf3+0x1ec>
400035ec:	90 10 00 12 	mov  %l2, %o0
400035f0:	c2 07 bf d0 	ld  [ %fp + -48 ], %g1
400035f4:	9a 23 40 01 	sub  %o5, %g1, %o5
400035f8:	d0 1f bf f0 	ldd  [ %fp + -16 ], %o0
400035fc:	e0 1f bf d8 	ldd  [ %fp + -40 ], %l0
40003600:	80 a4 00 08 	cmp  %l0, %o0
40003604:	18 80 00 3b 	bgu  400036f0 <__divdf3+0x1c4>
40003608:	da 27 bf e8 	st  %o5, [ %fp + -24 ]
4000360c:	80 a4 00 08 	cmp  %l0, %o0
40003610:	02 80 00 36 	be  400036e8 <__divdf3+0x1bc>
40003614:	80 a4 40 09 	cmp  %l1, %o1
40003618:	31 04 00 00 	sethi  %hi(0x10000000), %i0
4000361c:	b2 10 20 00 	clr  %i1
40003620:	a8 10 20 00 	clr  %l4
40003624:	10 80 00 0f 	b  40003660 <__divdf3+0x134>
40003628:	aa 10 20 00 	clr  %l5
4000362c:	90 62 00 10 	subx  %o0, %l0, %o0
40003630:	a8 15 00 18 	or  %l4, %i0, %l4
40003634:	aa 15 40 19 	or  %l5, %i1, %l5
40003638:	9b 32 60 1f 	srl  %o1, 0x1f, %o5
4000363c:	82 02 00 08 	add  %o0, %o0, %g1
40003640:	94 13 40 01 	or  %o5, %g1, %o2
40003644:	96 02 40 09 	add  %o1, %o1, %o3
40003648:	b0 10 00 1a 	mov  %i2, %i0
4000364c:	b2 10 00 1b 	mov  %i3, %i1
40003650:	90 10 00 0a 	mov  %o2, %o0
40003654:	80 96 80 1b 	orcc  %i2, %i3, %g0
40003658:	02 80 00 10 	be  40003698 <__divdf3+0x16c>
4000365c:	92 10 00 0b 	mov  %o3, %o1
40003660:	9b 2e 20 1f 	sll  %i0, 0x1f, %o5
40003664:	83 36 60 01 	srl  %i1, 1, %g1
40003668:	b6 13 40 01 	or  %o5, %g1, %i3
4000366c:	80 a4 00 08 	cmp  %l0, %o0
40003670:	18 bf ff f2 	bgu  40003638 <__divdf3+0x10c>
40003674:	b5 36 20 01 	srl  %i0, 1, %i2
40003678:	80 a4 00 08 	cmp  %l0, %o0
4000367c:	32 bf ff ec 	bne,a   4000362c <__divdf3+0x100>
40003680:	92 a2 40 11 	subcc  %o1, %l1, %o1
40003684:	80 a4 40 09 	cmp  %l1, %o1
40003688:	18 bf ff ed 	bgu  4000363c <__divdf3+0x110>
4000368c:	9b 32 60 1f 	srl  %o1, 0x1f, %o5
40003690:	10 bf ff e7 	b  4000362c <__divdf3+0x100>
40003694:	92 a2 40 11 	subcc  %o1, %l1, %o1
40003698:	98 0d 20 00 	and  %l4, 0, %o4
4000369c:	80 a3 20 00 	cmp  %o4, 0
400036a0:	12 80 00 05 	bne  400036b4 <__divdf3+0x188>
400036a4:	9a 0d 60 ff 	and  %l5, 0xff, %o5
400036a8:	80 a3 60 80 	cmp  %o5, 0x80
400036ac:	02 80 00 05 	be  400036c0 <__divdf3+0x194>
400036b0:	9a 0d 61 00 	and  %l5, 0x100, %o5
400036b4:	e8 3c a0 10 	std  %l4, [ %l2 + 0x10 ]
400036b8:	10 80 00 18 	b  40003718 <__divdf3+0x1ec>
400036bc:	90 10 00 12 	mov  %l2, %o0
400036c0:	80 93 00 0d 	orcc  %o4, %o5, %g0
400036c4:	32 80 00 06 	bne,a   400036dc <__divdf3+0x1b0>
400036c8:	aa 85 60 80 	addcc  %l5, 0x80, %l5
400036cc:	80 92 80 0b 	orcc  %o2, %o3, %g0
400036d0:	22 bf ff fa 	be,a   400036b8 <__divdf3+0x18c>
400036d4:	e8 3c a0 10 	std  %l4, [ %l2 + 0x10 ]
400036d8:	aa 85 60 80 	addcc  %l5, 0x80, %l5
400036dc:	a8 45 20 00 	addx  %l4, 0, %l4
400036e0:	10 bf ff f6 	b  400036b8 <__divdf3+0x18c>
400036e4:	e8 3c a0 10 	std  %l4, [ %l2 + 0x10 ]
400036e8:	28 bf ff cd 	bleu,a   4000361c <__divdf3+0xf0>
400036ec:	31 04 00 00 	sethi  %hi(0x10000000), %i0
400036f0:	95 32 60 1f 	srl  %o1, 0x1f, %o2
400036f4:	96 02 00 08 	add  %o0, %o0, %o3
400036f8:	c2 04 a0 08 	ld  [ %l2 + 8 ], %g1
400036fc:	98 12 80 0b 	or  %o2, %o3, %o4
40003700:	9a 02 40 09 	add  %o1, %o1, %o5
40003704:	82 00 7f ff 	add  %g1, -1, %g1
40003708:	c2 24 a0 08 	st  %g1, [ %l2 + 8 ]
4000370c:	90 10 00 0c 	mov  %o4, %o0
40003710:	10 bf ff c2 	b  40003618 <__divdf3+0xec>
40003714:	92 10 00 0d 	mov  %o5, %o1
40003718:	40 00 00 f8 	call  40003af8 <__pack_d>
4000371c:	01 00 00 00 	nop 
40003720:	b0 10 00 08 	mov  %o0, %i0
40003724:	81 c7 e0 08 	ret 
40003728:	93 e8 00 09 	restore  %g0, %o1, %o1

4000372c <__floatsidf>:
4000372c:	9d e3 bf 80 	save  %sp, -128, %sp
40003730:	9b 36 20 1f 	srl  %i0, 0x1f, %o5
40003734:	80 a6 20 00 	cmp  %i0, 0
40003738:	12 80 00 08 	bne  40003758 <__floatsidf+0x2c>
4000373c:	da 27 bf e4 	st  %o5, [ %fp + -28 ]
40003740:	82 10 20 02 	mov  2, %g1
40003744:	c2 27 bf e0 	st  %g1, [ %fp + -32 ]
40003748:	40 00 00 ec 	call  40003af8 <__pack_d>
4000374c:	90 07 bf e0 	add  %fp, -32, %o0
40003750:	10 80 00 36 	b  40003828 <__floatsidf+0xfc>
40003754:	b0 10 00 08 	mov  %o0, %i0
40003758:	82 10 20 03 	mov  3, %g1
4000375c:	c2 27 bf e0 	st  %g1, [ %fp + -32 ]
40003760:	80 a3 60 00 	cmp  %o5, 0
40003764:	94 10 20 3c 	mov  0x3c, %o2
40003768:	02 80 00 22 	be  400037f0 <__floatsidf+0xc4>
4000376c:	96 10 20 3c 	mov  0x3c, %o3
40003770:	03 20 00 00 	sethi  %hi(0x80000000), %g1
40003774:	80 a6 00 01 	cmp  %i0, %g1
40003778:	02 80 00 28 	be  40003818 <__floatsidf+0xec>
4000377c:	82 20 00 18 	neg  %i0, %g1
40003780:	9a 10 00 01 	mov  %g1, %o5
40003784:	99 38 60 1f 	sra  %g1, 0x1f, %o4
40003788:	92 10 00 0d 	mov  %o5, %o1
4000378c:	90 10 00 0c 	mov  %o4, %o0
40003790:	d0 3f bf f0 	std  %o0, [ %fp + -16 ]
40003794:	03 03 ff ff 	sethi  %hi(0xffffc00), %g1
40003798:	da 07 bf f0 	ld  [ %fp + -16 ], %o5
4000379c:	82 10 63 ff 	or  %g1, 0x3ff, %g1
400037a0:	80 a3 40 01 	cmp  %o5, %g1
400037a4:	38 bf ff e9 	bgu,a   40003748 <__floatsidf+0x1c>
400037a8:	d6 27 bf e8 	st  %o3, [ %fp + -24 ]
400037ac:	97 32 60 1f 	srl  %o1, 0x1f, %o3
400037b0:	82 02 00 08 	add  %o0, %o0, %g1
400037b4:	98 12 c0 01 	or  %o3, %g1, %o4
400037b8:	9a 02 40 09 	add  %o1, %o1, %o5
400037bc:	82 02 bf ff 	add  %o2, -1, %g1
400037c0:	92 10 00 0d 	mov  %o5, %o1
400037c4:	94 10 00 01 	mov  %g1, %o2
400037c8:	90 10 00 0c 	mov  %o4, %o0
400037cc:	d0 3f bf f0 	std  %o0, [ %fp + -16 ]
400037d0:	03 03 ff ff 	sethi  %hi(0xffffc00), %g1
400037d4:	da 07 bf f0 	ld  [ %fp + -16 ], %o5
400037d8:	82 10 63 ff 	or  %g1, 0x3ff, %g1
400037dc:	80 a3 40 01 	cmp  %o5, %g1
400037e0:	08 bf ff f3 	bleu  400037ac <__floatsidf+0x80>
400037e4:	96 10 00 0a 	mov  %o2, %o3
400037e8:	10 bf ff d8 	b  40003748 <__floatsidf+0x1c>
400037ec:	d6 27 bf e8 	st  %o3, [ %fp + -24 ]
400037f0:	9a 10 00 18 	mov  %i0, %o5
400037f4:	99 3e 20 1f 	sra  %i0, 0x1f, %o4
400037f8:	92 10 00 0d 	mov  %o5, %o1
400037fc:	90 10 00 0c 	mov  %o4, %o0
40003800:	d0 3f bf f0 	std  %o0, [ %fp + -16 ]
40003804:	03 03 ff ff 	sethi  %hi(0xffffc00), %g1
40003808:	da 07 bf f0 	ld  [ %fp + -16 ], %o5
4000380c:	82 10 63 ff 	or  %g1, 0x3ff, %g1
40003810:	10 bf ff e5 	b  400037a4 <__floatsidf+0x78>
40003814:	80 a3 40 01 	cmp  %o5, %g1
40003818:	03 10 00 32 	sethi  %hi(0x4000c800), %g1
4000381c:	d6 27 bf e8 	st  %o3, [ %fp + -24 ]
40003820:	d0 18 63 30 	ldd  [ %g1 + 0x330 ], %o0
40003824:	b0 10 00 08 	mov  %o0, %i0
40003828:	81 c7 e0 08 	ret 
4000382c:	93 e8 00 09 	restore  %g0, %o1, %o1

40003830 <__make_dp>:
40003830:	9d e3 bf 80 	save  %sp, -128, %sp
40003834:	98 10 00 1b 	mov  %i3, %o4
40003838:	9a 10 00 1c 	mov  %i4, %o5
4000383c:	f0 3f bf e0 	std  %i0, [ %fp + -32 ]
40003840:	f4 27 bf e8 	st  %i2, [ %fp + -24 ]
40003844:	d8 3f bf f0 	std  %o4, [ %fp + -16 ]
40003848:	40 00 00 ac 	call  40003af8 <__pack_d>
4000384c:	90 07 bf e0 	add  %fp, -32, %o0
40003850:	b0 10 00 08 	mov  %o0, %i0
40003854:	81 c7 e0 08 	ret 
40003858:	93 e8 00 09 	restore  %g0, %o1, %o1

4000385c <__truncdfsf2>:
4000385c:	9d e3 bf 78 	save  %sp, -136, %sp
40003860:	90 07 bf d8 	add  %fp, -40, %o0
40003864:	92 07 bf e0 	add  %fp, -32, %o1
40003868:	40 00 01 24 	call  40003cf8 <__unpack_d>
4000386c:	f0 3f bf d8 	std  %i0, [ %fp + -40 ]
40003870:	e0 1f bf f0 	ldd  [ %fp + -16 ], %l0
40003874:	97 2c 20 02 	sll  %l0, 2, %o3
40003878:	83 34 60 1e 	srl  %l1, 0x1e, %g1
4000387c:	9a 12 c0 01 	or  %o3, %g1, %o5
40003880:	17 0f ff ff 	sethi  %hi(0x3ffffc00), %o3
40003884:	94 10 20 00 	clr  %o2
40003888:	96 12 e3 ff 	or  %o3, 0x3ff, %o3
4000388c:	a0 0c 00 0a 	and  %l0, %o2, %l0
40003890:	a2 0c 40 0b 	and  %l1, %o3, %l1
40003894:	d0 1f bf e0 	ldd  [ %fp + -32 ], %o0
40003898:	d4 07 bf e8 	ld  [ %fp + -24 ], %o2
4000389c:	80 94 00 11 	orcc  %l0, %l1, %g0
400038a0:	02 80 00 03 	be  400038ac <__truncdfsf2+0x50>
400038a4:	96 10 00 0d 	mov  %o5, %o3
400038a8:	96 13 60 01 	or  %o5, 1, %o3
400038ac:	40 00 00 8c 	call  40003adc <__make_fp>
400038b0:	01 00 00 00 	nop 
400038b4:	81 c7 e0 08 	ret 
400038b8:	91 e8 00 08 	restore  %g0, %o0, %o0

400038bc <__pack_f>:
400038bc:	c2 02 00 00 	ld  [ %o0 ], %g1
400038c0:	80 a0 60 01 	cmp  %g1, 1
400038c4:	d6 02 20 0c 	ld  [ %o0 + 0xc ], %o3
400038c8:	d8 02 20 04 	ld  [ %o0 + 4 ], %o4
400038cc:	18 80 00 06 	bgu  400038e4 <__pack_f+0x28>
400038d0:	94 10 20 00 	clr  %o2
400038d4:	03 00 04 00 	sethi  %hi(0x100000), %g1
400038d8:	96 12 c0 01 	or  %o3, %g1, %o3
400038dc:	10 80 00 42 	b  400039e4 <__pack_f+0x128>
400038e0:	94 10 20 ff 	mov  0xff, %o2
400038e4:	80 a0 60 04 	cmp  %g1, 4
400038e8:	12 80 00 05 	bne  400038fc <__pack_f+0x40>
400038ec:	80 a0 60 02 	cmp  %g1, 2
400038f0:	94 10 20 ff 	mov  0xff, %o2
400038f4:	10 80 00 3c 	b  400039e4 <__pack_f+0x128>
400038f8:	96 10 20 00 	clr  %o3
400038fc:	22 80 00 3a 	be,a   400039e4 <__pack_f+0x128>
40003900:	96 10 20 00 	clr  %o3
40003904:	80 a2 e0 00 	cmp  %o3, 0
40003908:	02 80 00 38 	be  400039e8 <__pack_f+0x12c>
4000390c:	9a 0a a0 ff 	and  %o2, 0xff, %o5
40003910:	d0 02 20 08 	ld  [ %o0 + 8 ], %o0
40003914:	80 a2 3f 82 	cmp  %o0, -126
40003918:	16 80 00 14 	bge  40003968 <__pack_f+0xac>
4000391c:	80 a2 20 7f 	cmp  %o0, 0x7f
40003920:	82 10 3f 82 	mov  -126, %g1
40003924:	90 20 40 08 	sub  %g1, %o0, %o0
40003928:	80 a2 20 19 	cmp  %o0, 0x19
4000392c:	04 80 00 1d 	ble  400039a0 <__pack_f+0xe4>
40003930:	82 10 20 01 	mov  1, %g1
40003934:	96 10 20 00 	clr  %o3
40003938:	82 0a e0 7f 	and  %o3, 0x7f, %g1
4000393c:	80 a0 60 40 	cmp  %g1, 0x40
40003940:	02 80 00 20 	be  400039c0 <__pack_f+0x104>
40003944:	80 8a e0 80 	btst  0x80, %o3
40003948:	96 02 e0 3f 	add  %o3, 0x3f, %o3
4000394c:	03 0f ff ff 	sethi  %hi(0x3ffffc00), %g1
40003950:	82 10 63 ff 	or  %g1, 0x3ff, %g1	! 3fffffff <_trap_table-0x1>
40003954:	80 a2 c0 01 	cmp  %o3, %g1
40003958:	38 80 00 02 	bgu,a   40003960 <__pack_f+0xa4>
4000395c:	94 10 20 01 	mov  1, %o2
40003960:	10 80 00 21 	b  400039e4 <__pack_f+0x128>
40003964:	97 32 e0 07 	srl  %o3, 7, %o3
40003968:	14 bf ff e3 	bg  400038f4 <__pack_f+0x38>
4000396c:	94 10 20 ff 	mov  0xff, %o2
40003970:	82 0a e0 7f 	and  %o3, 0x7f, %g1
40003974:	80 a0 60 40 	cmp  %g1, 0x40
40003978:	02 80 00 16 	be  400039d0 <__pack_f+0x114>
4000397c:	94 02 20 7f 	add  %o0, 0x7f, %o2
40003980:	96 02 e0 3f 	add  %o3, 0x3f, %o3
40003984:	80 a2 e0 00 	cmp  %o3, 0
40003988:	36 80 00 17 	bge,a   400039e4 <__pack_f+0x128>
4000398c:	97 32 e0 07 	srl  %o3, 7, %o3
40003990:	97 32 e0 01 	srl  %o3, 1, %o3
40003994:	94 02 a0 01 	inc  %o2
40003998:	10 80 00 13 	b  400039e4 <__pack_f+0x128>
4000399c:	97 32 e0 07 	srl  %o3, 7, %o3
400039a0:	83 28 40 08 	sll  %g1, %o0, %g1
400039a4:	82 00 7f ff 	add  %g1, -1, %g1
400039a8:	82 08 40 0b 	and  %g1, %o3, %g1
400039ac:	80 a0 00 01 	cmp  %g0, %g1
400039b0:	9b 32 c0 08 	srl  %o3, %o0, %o5
400039b4:	82 40 20 00 	addx  %g0, 0, %g1
400039b8:	10 bf ff e0 	b  40003938 <__pack_f+0x7c>
400039bc:	96 13 40 01 	or  %o5, %g1, %o3
400039c0:	32 bf ff e3 	bne,a   4000394c <__pack_f+0x90>
400039c4:	96 02 e0 40 	add  %o3, 0x40, %o3
400039c8:	10 bf ff e2 	b  40003950 <__pack_f+0x94>
400039cc:	03 0f ff ff 	sethi  %hi(0x3ffffc00), %g1
400039d0:	80 8a e0 80 	btst  0x80, %o3
400039d4:	32 bf ff ec 	bne,a   40003984 <__pack_f+0xc8>
400039d8:	96 02 e0 40 	add  %o3, 0x40, %o3
400039dc:	10 bf ff eb 	b  40003988 <__pack_f+0xcc>
400039e0:	80 a2 e0 00 	cmp  %o3, 0
400039e4:	9a 0a a0 ff 	and  %o2, 0xff, %o5
400039e8:	03 3f e0 00 	sethi  %hi(0xff800000), %g1
400039ec:	82 2a c0 01 	andn  %o3, %g1, %g1
400039f0:	9b 2b 60 17 	sll  %o5, 0x17, %o5
400039f4:	82 10 40 0d 	or  %g1, %o5, %g1
400039f8:	99 2b 20 1f 	sll  %o4, 0x1f, %o4
400039fc:	81 c3 e0 08 	retl 
40003a00:	90 10 40 0c 	or  %g1, %o4, %o0

40003a04 <__unpack_f>:
40003a04:	da 02 00 00 	ld  [ %o0 ], %o5
40003a08:	99 33 60 1f 	srl  %o5, 0x1f, %o4
40003a0c:	97 33 60 17 	srl  %o5, 0x17, %o3
40003a10:	03 3f e0 00 	sethi  %hi(0xff800000), %g1
40003a14:	d8 22 60 04 	st  %o4, [ %o1 + 4 ]
40003a18:	96 8a e0 ff 	andcc  %o3, 0xff, %o3
40003a1c:	12 80 00 07 	bne  40003a38 <__unpack_f+0x34>
40003a20:	94 2b 40 01 	andn  %o5, %g1, %o2
40003a24:	80 a2 a0 00 	cmp  %o2, 0
40003a28:	12 80 00 0e 	bne  40003a60 <__unpack_f+0x5c>
40003a2c:	82 10 20 02 	mov  2, %g1
40003a30:	10 80 00 29 	b  40003ad4 <__unpack_f+0xd0>
40003a34:	c2 22 40 00 	st  %g1, [ %o1 ]
40003a38:	80 a2 e0 ff 	cmp  %o3, 0xff
40003a3c:	02 80 00 1a 	be  40003aa4 <__unpack_f+0xa0>
40003a40:	83 2a a0 07 	sll  %o2, 7, %g1
40003a44:	1b 10 00 00 	sethi  %hi(0x40000000), %o5
40003a48:	82 10 40 0d 	or  %g1, %o5, %g1
40003a4c:	98 02 ff 81 	add  %o3, -127, %o4
40003a50:	c2 22 60 0c 	st  %g1, [ %o1 + 0xc ]
40003a54:	d8 22 60 08 	st  %o4, [ %o1 + 8 ]
40003a58:	10 bf ff f6 	b  40003a30 <__unpack_f+0x2c>
40003a5c:	82 10 20 03 	mov  3, %g1
40003a60:	9a 10 20 03 	mov  3, %o5
40003a64:	03 0f ff ff 	sethi  %hi(0x3ffffc00), %g1
40003a68:	95 2a a0 07 	sll  %o2, 7, %o2
40003a6c:	82 10 63 ff 	or  %g1, 0x3ff, %g1
40003a70:	da 22 40 00 	st  %o5, [ %o1 ]
40003a74:	80 a2 80 01 	cmp  %o2, %g1
40003a78:	9a 10 3f 82 	mov  -126, %o5
40003a7c:	18 80 00 07 	bgu  40003a98 <__unpack_f+0x94>
40003a80:	98 10 3f 82 	mov  -126, %o4
40003a84:	94 02 80 0a 	add  %o2, %o2, %o2
40003a88:	9a 03 7f ff 	add  %o5, -1, %o5
40003a8c:	80 a2 80 01 	cmp  %o2, %g1
40003a90:	08 bf ff fd 	bleu  40003a84 <__unpack_f+0x80>
40003a94:	98 10 00 0d 	mov  %o5, %o4
40003a98:	d4 22 60 0c 	st  %o2, [ %o1 + 0xc ]
40003a9c:	10 80 00 0e 	b  40003ad4 <__unpack_f+0xd0>
40003aa0:	d8 22 60 08 	st  %o4, [ %o1 + 8 ]
40003aa4:	80 a2 a0 00 	cmp  %o2, 0
40003aa8:	02 bf ff e2 	be  40003a30 <__unpack_f+0x2c>
40003aac:	82 10 20 04 	mov  4, %g1
40003ab0:	03 00 04 00 	sethi  %hi(0x100000), %g1
40003ab4:	80 8a 80 01 	btst  %o2, %g1
40003ab8:	22 80 00 06 	be,a   40003ad0 <__unpack_f+0xcc>
40003abc:	c0 22 40 00 	clr  [ %o1 ]
40003ac0:	82 10 20 01 	mov  1, %g1
40003ac4:	c2 22 40 00 	st  %g1, [ %o1 ]
40003ac8:	10 80 00 03 	b  40003ad4 <__unpack_f+0xd0>
40003acc:	d4 22 60 0c 	st  %o2, [ %o1 + 0xc ]
40003ad0:	d4 22 60 0c 	st  %o2, [ %o1 + 0xc ]
40003ad4:	81 c3 e0 08 	retl 
40003ad8:	01 00 00 00 	nop 

40003adc <__make_fp>:
40003adc:	9d e3 bf 88 	save  %sp, -120, %sp
40003ae0:	f0 3f bf e8 	std  %i0, [ %fp + -24 ]
40003ae4:	f4 3f bf f0 	std  %i2, [ %fp + -16 ]
40003ae8:	7f ff ff 75 	call  400038bc <__pack_f>
40003aec:	90 07 bf e8 	add  %fp, -24, %o0
40003af0:	81 c7 e0 08 	ret 
40003af4:	91 e8 00 08 	restore  %g0, %o0, %o0

40003af8 <__pack_d>:
40003af8:	9d e3 bf 98 	save  %sp, -104, %sp
40003afc:	c2 06 00 00 	ld  [ %i0 ], %g1
40003b00:	80 a0 60 01 	cmp  %g1, 1
40003b04:	e0 1e 20 10 	ldd  [ %i0 + 0x10 ], %l0
40003b08:	e4 06 20 04 	ld  [ %i0 + 4 ], %l2
40003b0c:	18 80 00 08 	bgu  40003b2c <__pack_d+0x34>
40003b10:	b2 10 20 00 	clr  %i1
40003b14:	19 00 02 00 	sethi  %hi(0x80000), %o4
40003b18:	9a 10 20 00 	clr  %o5
40003b1c:	a0 14 00 0c 	or  %l0, %o4, %l0
40003b20:	a2 14 40 0d 	or  %l1, %o5, %l1
40003b24:	10 80 00 64 	b  40003cb4 <__pack_d+0x1bc>
40003b28:	b2 10 27 ff 	mov  0x7ff, %i1
40003b2c:	80 a0 60 04 	cmp  %g1, 4
40003b30:	12 80 00 06 	bne  40003b48 <__pack_d+0x50>
40003b34:	80 a0 60 02 	cmp  %g1, 2
40003b38:	b2 10 27 ff 	mov  0x7ff, %i1
40003b3c:	a0 10 20 00 	clr  %l0
40003b40:	10 80 00 5d 	b  40003cb4 <__pack_d+0x1bc>
40003b44:	a2 10 20 00 	clr  %l1
40003b48:	22 bf ff fe 	be,a   40003b40 <__pack_d+0x48>
40003b4c:	a0 10 20 00 	clr  %l0
40003b50:	80 94 00 11 	orcc  %l0, %l1, %g0
40003b54:	02 80 00 59 	be  40003cb8 <__pack_d+0x1c0>
40003b58:	92 0e 67 ff 	and  %i1, 0x7ff, %o1
40003b5c:	d4 06 20 08 	ld  [ %i0 + 8 ], %o2
40003b60:	80 a2 bc 02 	cmp  %o2, -1022
40003b64:	16 80 00 1e 	bge  40003bdc <__pack_d+0xe4>
40003b68:	80 a2 a3 ff 	cmp  %o2, 0x3ff
40003b6c:	82 10 3c 02 	mov  -1022, %g1
40003b70:	b0 20 40 0a 	sub  %g1, %o2, %i0
40003b74:	80 a6 20 38 	cmp  %i0, 0x38
40003b78:	04 80 00 3c 	ble  40003c68 <__pack_d+0x170>
40003b7c:	90 10 20 00 	clr  %o0
40003b80:	a0 10 20 00 	clr  %l0
40003b84:	a2 10 20 00 	clr  %l1
40003b88:	98 0c 20 00 	and  %l0, 0, %o4
40003b8c:	80 a3 20 00 	cmp  %o4, 0
40003b90:	12 80 00 05 	bne  40003ba4 <__pack_d+0xac>
40003b94:	9a 0c 60 ff 	and  %l1, 0xff, %o5
40003b98:	80 a3 60 80 	cmp  %o5, 0x80
40003b9c:	02 80 00 29 	be  40003c40 <__pack_d+0x148>
40003ba0:	9a 0c 61 00 	and  %l1, 0x100, %o5
40003ba4:	a2 84 60 7f 	addcc  %l1, 0x7f, %l1
40003ba8:	a0 44 20 00 	addx  %l0, 0, %l0
40003bac:	03 03 ff ff 	sethi  %hi(0xffffc00), %g1
40003bb0:	82 10 63 ff 	or  %g1, 0x3ff, %g1	! fffffff <_trap_table-0x30000001>
40003bb4:	80 a4 00 01 	cmp  %l0, %g1
40003bb8:	38 80 00 02 	bgu,a   40003bc0 <__pack_d+0xc8>
40003bbc:	b2 10 20 01 	mov  1, %i1
40003bc0:	97 2c 20 18 	sll  %l0, 0x18, %o3
40003bc4:	83 34 60 08 	srl  %l1, 8, %g1
40003bc8:	9a 12 c0 01 	or  %o3, %g1, %o5
40003bcc:	99 34 20 08 	srl  %l0, 8, %o4
40003bd0:	a0 10 00 0c 	mov  %o4, %l0
40003bd4:	10 80 00 38 	b  40003cb4 <__pack_d+0x1bc>
40003bd8:	a2 10 00 0d 	mov  %o5, %l1
40003bdc:	14 bf ff d8 	bg  40003b3c <__pack_d+0x44>
40003be0:	b2 10 27 ff 	mov  0x7ff, %i1
40003be4:	98 0c 20 00 	and  %l0, 0, %o4
40003be8:	9a 0c 60 ff 	and  %l1, 0xff, %o5
40003bec:	80 a3 20 00 	cmp  %o4, 0
40003bf0:	12 80 00 05 	bne  40003c04 <__pack_d+0x10c>
40003bf4:	b2 02 a3 ff 	add  %o2, 0x3ff, %i1
40003bf8:	80 a3 60 80 	cmp  %o5, 0x80
40003bfc:	02 80 00 16 	be  40003c54 <__pack_d+0x15c>
40003c00:	9a 0c 61 00 	and  %l1, 0x100, %o5
40003c04:	a2 84 60 7f 	addcc  %l1, 0x7f, %l1
40003c08:	a0 44 20 00 	addx  %l0, 0, %l0
40003c0c:	03 07 ff ff 	sethi  %hi(0x1ffffc00), %g1
40003c10:	82 10 63 ff 	or  %g1, 0x3ff, %g1	! 1fffffff <_trap_table-0x20000001>
40003c14:	80 a4 00 01 	cmp  %l0, %g1
40003c18:	08 bf ff eb 	bleu  40003bc4 <__pack_d+0xcc>
40003c1c:	97 2c 20 18 	sll  %l0, 0x18, %o3
40003c20:	97 2c 20 1f 	sll  %l0, 0x1f, %o3
40003c24:	83 34 60 01 	srl  %l1, 1, %g1
40003c28:	9a 12 c0 01 	or  %o3, %g1, %o5
40003c2c:	99 34 20 01 	srl  %l0, 1, %o4
40003c30:	a0 10 00 0c 	mov  %o4, %l0
40003c34:	a2 10 00 0d 	mov  %o5, %l1
40003c38:	10 bf ff e2 	b  40003bc0 <__pack_d+0xc8>
40003c3c:	b2 06 60 01 	inc  %i1
40003c40:	80 93 00 0d 	orcc  %o4, %o5, %g0
40003c44:	02 bf ff db 	be  40003bb0 <__pack_d+0xb8>
40003c48:	03 03 ff ff 	sethi  %hi(0xffffc00), %g1
40003c4c:	10 bf ff d7 	b  40003ba8 <__pack_d+0xb0>
40003c50:	a2 84 60 80 	addcc  %l1, 0x80, %l1
40003c54:	80 93 00 0d 	orcc  %o4, %o5, %g0
40003c58:	02 bf ff ee 	be  40003c10 <__pack_d+0x118>
40003c5c:	03 07 ff ff 	sethi  %hi(0x1ffffc00), %g1
40003c60:	10 bf ff ea 	b  40003c08 <__pack_d+0x110>
40003c64:	a2 84 60 80 	addcc  %l1, 0x80, %l1
40003c68:	92 10 20 01 	mov  1, %o1
40003c6c:	40 00 00 87 	call  40003e88 <__ashldi3>
40003c70:	94 10 00 18 	mov  %i0, %o2
40003c74:	92 82 7f ff 	addcc  %o1, -1, %o1
40003c78:	90 42 3f ff 	addx  %o0, -1, %o0
40003c7c:	90 0a 00 10 	and  %o0, %l0, %o0
40003c80:	92 0a 40 11 	and  %o1, %l1, %o1
40003c84:	80 92 00 09 	orcc  %o0, %o1, %g0
40003c88:	02 80 00 03 	be  40003c94 <__pack_d+0x19c>
40003c8c:	a6 10 20 00 	clr  %l3
40003c90:	a6 10 20 01 	mov  1, %l3
40003c94:	90 10 00 10 	mov  %l0, %o0
40003c98:	92 10 00 11 	mov  %l1, %o1
40003c9c:	40 00 00 64 	call  40003e2c <__lshrdi3>
40003ca0:	94 10 00 18 	mov  %i0, %o2
40003ca4:	98 10 20 00 	clr  %o4
40003ca8:	a0 12 00 0c 	or  %o0, %o4, %l0
40003cac:	10 bf ff b7 	b  40003b88 <__pack_d+0x90>
40003cb0:	a2 12 40 13 	or  %o1, %l3, %l1
40003cb4:	92 0e 67 ff 	and  %i1, 0x7ff, %o1
40003cb8:	19 00 03 ff 	sethi  %hi(0xffc00), %o4
40003cbc:	96 0c a0 01 	and  %l2, 1, %o3
40003cc0:	91 2a 60 14 	sll  %o1, 0x14, %o0
40003cc4:	98 13 23 ff 	or  %o4, 0x3ff, %o4
40003cc8:	9a 10 3f ff 	mov  -1, %o5
40003ccc:	95 2a e0 1f 	sll  %o3, 0x1f, %o2
40003cd0:	92 10 20 00 	clr  %o1
40003cd4:	98 0c 00 0c 	and  %l0, %o4, %o4
40003cd8:	9a 0c 40 0d 	and  %l1, %o5, %o5
40003cdc:	96 10 20 00 	clr  %o3
40003ce0:	98 13 00 08 	or  %o4, %o0, %o4
40003ce4:	9a 13 40 09 	or  %o5, %o1, %o5
40003ce8:	b0 13 00 0a 	or  %o4, %o2, %i0
40003cec:	b2 13 40 0b 	or  %o5, %o3, %i1
40003cf0:	81 c7 e0 08 	ret 
40003cf4:	81 e8 00 00 	restore 

40003cf8 <__unpack_d>:
40003cf8:	9d e3 bf 98 	save  %sp, -104, %sp
40003cfc:	d8 1e 00 00 	ldd  [ %i0 ], %o4
40003d00:	b7 33 20 1f 	srl  %o4, 0x1f, %i3
40003d04:	82 0e e0 01 	and  %i3, 1, %g1
40003d08:	35 00 03 ff 	sethi  %hi(0xffc00), %i2
40003d0c:	bb 33 20 14 	srl  %o4, 0x14, %i5
40003d10:	b0 10 00 19 	mov  %i1, %i0
40003d14:	c2 26 60 04 	st  %g1, [ %i1 + 4 ]
40003d18:	b4 16 a3 ff 	or  %i2, 0x3ff, %i2
40003d1c:	b6 10 3f ff 	mov  -1, %i3
40003d20:	98 0b 00 1a 	and  %o4, %i2, %o4
40003d24:	b2 8f 67 ff 	andcc  %i5, 0x7ff, %i1
40003d28:	12 80 00 07 	bne  40003d44 <__unpack_d+0x4c>
40003d2c:	9a 0b 40 1b 	and  %o5, %i3, %o5
40003d30:	80 93 00 0d 	orcc  %o4, %o5, %g0
40003d34:	12 80 00 13 	bne  40003d80 <__unpack_d+0x88>
40003d38:	82 10 20 02 	mov  2, %g1
40003d3c:	10 80 00 3a 	b  40003e24 <__unpack_d+0x12c>
40003d40:	c2 26 00 00 	st  %g1, [ %i0 ]
40003d44:	80 a6 67 ff 	cmp  %i1, 0x7ff
40003d48:	02 80 00 2b 	be  40003df4 <__unpack_d+0xfc>
40003d4c:	b7 33 60 18 	srl  %o5, 0x18, %i3
40003d50:	83 2b 20 08 	sll  %o4, 8, %g1
40003d54:	b8 16 c0 01 	or  %i3, %g1, %i4
40003d58:	bb 2b 60 08 	sll  %o5, 8, %i5
40003d5c:	35 04 00 00 	sethi  %hi(0x10000000), %i2
40003d60:	b6 10 20 00 	clr  %i3
40003d64:	b8 17 00 1a 	or  %i4, %i2, %i4
40003d68:	ba 17 40 1b 	or  %i5, %i3, %i5
40003d6c:	b2 06 7c 01 	add  %i1, -1023, %i1
40003d70:	f8 3e 20 10 	std  %i4, [ %i0 + 0x10 ]
40003d74:	f2 26 20 08 	st  %i1, [ %i0 + 8 ]
40003d78:	10 bf ff f1 	b  40003d3c <__unpack_d+0x44>
40003d7c:	82 10 20 03 	mov  3, %g1
40003d80:	b7 33 60 18 	srl  %o5, 0x18, %i3
40003d84:	83 2b 20 08 	sll  %o4, 8, %g1
40003d88:	b8 16 c0 01 	or  %i3, %g1, %i4
40003d8c:	03 03 ff ff 	sethi  %hi(0xffffc00), %g1
40003d90:	82 10 63 ff 	or  %g1, 0x3ff, %g1	! fffffff <_trap_table-0x30000001>
40003d94:	bb 2b 60 08 	sll  %o5, 8, %i5
40003d98:	b6 10 20 03 	mov  3, %i3
40003d9c:	80 a7 00 01 	cmp  %i4, %g1
40003da0:	98 10 00 1c 	mov  %i4, %o4
40003da4:	9a 10 00 1d 	mov  %i5, %o5
40003da8:	f6 26 00 00 	st  %i3, [ %i0 ]
40003dac:	b4 10 3c 02 	mov  -1022, %i2
40003db0:	18 80 00 0e 	bgu  40003de8 <__unpack_d+0xf0>
40003db4:	82 10 3c 02 	mov  -1022, %g1
40003db8:	82 03 00 0c 	add  %o4, %o4, %g1
40003dbc:	b7 33 60 1f 	srl  %o5, 0x1f, %i3
40003dc0:	b8 16 c0 01 	or  %i3, %g1, %i4
40003dc4:	03 03 ff ff 	sethi  %hi(0xffffc00), %g1
40003dc8:	82 10 63 ff 	or  %g1, 0x3ff, %g1	! fffffff <_trap_table-0x30000001>
40003dcc:	ba 03 40 0d 	add  %o5, %o5, %i5
40003dd0:	b4 06 bf ff 	add  %i2, -1, %i2
40003dd4:	80 a7 00 01 	cmp  %i4, %g1
40003dd8:	98 10 00 1c 	mov  %i4, %o4
40003ddc:	9a 10 00 1d 	mov  %i5, %o5
40003de0:	08 bf ff f6 	bleu  40003db8 <__unpack_d+0xc0>
40003de4:	82 10 00 1a 	mov  %i2, %g1
40003de8:	d8 3e 20 10 	std  %o4, [ %i0 + 0x10 ]
40003dec:	10 80 00 0e 	b  40003e24 <__unpack_d+0x12c>
40003df0:	c2 26 20 08 	st  %g1, [ %i0 + 8 ]
40003df4:	80 93 00 0d 	orcc  %o4, %o5, %g0
40003df8:	02 bf ff d1 	be  40003d3c <__unpack_d+0x44>
40003dfc:	82 10 20 04 	mov  4, %g1
40003e00:	bb 33 20 13 	srl  %o4, 0x13, %i5
40003e04:	80 8f 60 01 	btst  1, %i5
40003e08:	22 80 00 06 	be,a   40003e20 <__unpack_d+0x128>
40003e0c:	c0 26 00 00 	clr  [ %i0 ]
40003e10:	82 10 20 01 	mov  1, %g1
40003e14:	c2 26 00 00 	st  %g1, [ %i0 ]
40003e18:	10 80 00 03 	b  40003e24 <__unpack_d+0x12c>
40003e1c:	d8 3e 20 10 	std  %o4, [ %i0 + 0x10 ]
40003e20:	d8 3e 20 10 	std  %o4, [ %i0 + 0x10 ]
40003e24:	81 c7 e0 08 	ret 
40003e28:	81 e8 00 00 	restore 

40003e2c <__lshrdi3>:
40003e2c:	9d e3 bf 98 	save  %sp, -104, %sp
40003e30:	82 10 20 20 	mov  0x20, %g1
40003e34:	b8 10 00 18 	mov  %i0, %i4
40003e38:	ba 10 00 19 	mov  %i1, %i5
40003e3c:	80 a6 a0 00 	cmp  %i2, 0
40003e40:	02 80 00 10 	be  40003e80 <__lshrdi3+0x54>
40003e44:	82 20 40 1a 	sub  %g1, %i2, %g1
40003e48:	b0 20 00 01 	neg  %g1, %i0
40003e4c:	80 a0 60 00 	cmp  %g1, 0
40003e50:	b3 37 40 1a 	srl  %i5, %i2, %i1
40003e54:	04 80 00 07 	ble  40003e70 <__lshrdi3+0x44>
40003e58:	83 2f 00 01 	sll  %i4, %g1, %g1
40003e5c:	b5 37 00 1a 	srl  %i4, %i2, %i2
40003e60:	b6 16 40 01 	or  %i1, %g1, %i3
40003e64:	b0 10 00 1a 	mov  %i2, %i0
40003e68:	10 80 00 06 	b  40003e80 <__lshrdi3+0x54>
40003e6c:	b2 10 00 1b 	mov  %i3, %i1
40003e70:	b7 37 00 18 	srl  %i4, %i0, %i3
40003e74:	b4 10 20 00 	clr  %i2
40003e78:	b0 10 00 1a 	mov  %i2, %i0
40003e7c:	b2 10 00 1b 	mov  %i3, %i1
40003e80:	81 c7 e0 08 	ret 
40003e84:	81 e8 00 00 	restore 

40003e88 <__ashldi3>:
40003e88:	9d e3 bf 98 	save  %sp, -104, %sp
40003e8c:	82 10 20 20 	mov  0x20, %g1
40003e90:	b8 10 00 18 	mov  %i0, %i4
40003e94:	ba 10 00 19 	mov  %i1, %i5
40003e98:	80 a6 a0 00 	cmp  %i2, 0
40003e9c:	02 80 00 10 	be  40003edc <__ashldi3+0x54>
40003ea0:	82 20 40 1a 	sub  %g1, %i2, %g1
40003ea4:	b0 20 00 01 	neg  %g1, %i0
40003ea8:	80 a0 60 00 	cmp  %g1, 0
40003eac:	b3 2f 00 1a 	sll  %i4, %i2, %i1
40003eb0:	04 80 00 07 	ble  40003ecc <__ashldi3+0x44>
40003eb4:	83 37 40 01 	srl  %i5, %g1, %g1
40003eb8:	b7 2f 40 1a 	sll  %i5, %i2, %i3
40003ebc:	b4 16 40 01 	or  %i1, %g1, %i2
40003ec0:	b0 10 00 1a 	mov  %i2, %i0
40003ec4:	10 80 00 06 	b  40003edc <__ashldi3+0x54>
40003ec8:	b2 10 00 1b 	mov  %i3, %i1
40003ecc:	b6 10 20 00 	clr  %i3
40003ed0:	b5 2f 40 18 	sll  %i5, %i0, %i2
40003ed4:	b0 10 00 1a 	mov  %i2, %i0
40003ed8:	b2 10 00 1b 	mov  %i3, %i1
40003edc:	81 c7 e0 08 	ret 
40003ee0:	81 e8 00 00 	restore 

40003ee4 <_atexit>:
40003ee4:	92 10 00 08 	mov  %o0, %o1
40003ee8:	90 10 20 00 	clr  %o0
40003eec:	94 10 20 00 	clr  %o2
40003ef0:	96 10 20 00 	clr  %o3
40003ef4:	82 13 c0 00 	mov  %o7, %g1
40003ef8:	40 00 0b e3 	call  40006e84 <__register_exitproc>
40003efc:	9e 10 40 00 	mov  %g1, %o7
40003f00:	01 00 00 00 	nop 

40003f04 <malloc>:
40003f04:	92 10 00 08 	mov  %o0, %o1
40003f08:	03 10 00 36 	sethi  %hi(0x4000d800), %g1
40003f0c:	d0 00 61 a8 	ld  [ %g1 + 0x1a8 ], %o0	! 4000d9a8 <_impure_ptr>
40003f10:	82 13 c0 00 	mov  %o7, %g1
40003f14:	40 00 00 0a 	call  40003f3c <_malloc_r>
40003f18:	9e 10 40 00 	mov  %g1, %o7
40003f1c:	01 00 00 00 	nop 

40003f20 <free>:
40003f20:	92 10 00 08 	mov  %o0, %o1
40003f24:	03 10 00 36 	sethi  %hi(0x4000d800), %g1
40003f28:	d0 00 61 a8 	ld  [ %g1 + 0x1a8 ], %o0	! 4000d9a8 <_impure_ptr>
40003f2c:	82 13 c0 00 	mov  %o7, %g1
40003f30:	40 00 12 b2 	call  400089f8 <_free_r>
40003f34:	9e 10 40 00 	mov  %g1, %o7
40003f38:	01 00 00 00 	nop 

40003f3c <_malloc_r>:
40003f3c:	9d e3 bf 98 	save  %sp, -104, %sp
40003f40:	82 06 60 0b 	add  %i1, 0xb, %g1
40003f44:	80 a0 60 16 	cmp  %g1, 0x16
40003f48:	a6 10 00 18 	mov  %i0, %l3
40003f4c:	18 80 00 03 	bgu  40003f58 <_malloc_r+0x1c>
40003f50:	a0 08 7f f8 	and  %g1, -8, %l0
40003f54:	a0 10 20 10 	mov  0x10, %l0
40003f58:	80 a4 00 19 	cmp  %l0, %i1
40003f5c:	9a 40 20 00 	addx  %g0, 0, %o5
40003f60:	83 34 20 1f 	srl  %l0, 0x1f, %g1
40003f64:	80 90 40 0d 	orcc  %g1, %o5, %g0
40003f68:	12 80 01 b0 	bne  40004628 <_malloc_r+0x6ec>
40003f6c:	b0 10 20 00 	clr  %i0
40003f70:	40 00 01 b0 	call  40004630 <__malloc_lock>
40003f74:	90 10 00 13 	mov  %l3, %o0
40003f78:	80 a4 21 f7 	cmp  %l0, 0x1f7
40003f7c:	18 80 00 17 	bgu  40003fd8 <_malloc_r+0x9c>
40003f80:	99 34 20 09 	srl  %l0, 9, %o4
40003f84:	39 10 00 33 	sethi  %hi(0x4000cc00), %i4
40003f88:	82 17 23 68 	or  %i4, 0x368, %g1	! 4000cf68 <__malloc_av_>
40003f8c:	98 04 00 01 	add  %l0, %g1, %o4
40003f90:	f0 03 20 0c 	ld  [ %o4 + 0xc ], %i0
40003f94:	80 a6 00 0c 	cmp  %i0, %o4
40003f98:	02 80 00 4e 	be  400040d0 <_malloc_r+0x194>
40003f9c:	9f 34 20 03 	srl  %l0, 3, %o7
40003fa0:	c2 06 20 04 	ld  [ %i0 + 4 ], %g1
40003fa4:	94 08 7f fc 	and  %g1, -4, %o2
40003fa8:	9a 06 00 0a 	add  %i0, %o2, %o5
40003fac:	c2 03 60 04 	ld  [ %o5 + 4 ], %g1
40003fb0:	82 10 60 01 	or  %g1, 1, %g1
40003fb4:	d0 06 20 0c 	ld  [ %i0 + 0xc ], %o0
40003fb8:	d2 06 20 08 	ld  [ %i0 + 8 ], %o1
40003fbc:	d2 22 20 08 	st  %o1, [ %o0 + 8 ]
40003fc0:	c2 23 60 04 	st  %g1, [ %o5 + 4 ]
40003fc4:	d0 22 60 0c 	st  %o0, [ %o1 + 0xc ]
40003fc8:	40 00 01 a0 	call  40004648 <__malloc_unlock>
40003fcc:	90 10 00 13 	mov  %l3, %o0
40003fd0:	10 80 01 96 	b  40004628 <_malloc_r+0x6ec>
40003fd4:	b0 06 20 08 	add  %i0, 8, %i0
40003fd8:	80 a3 20 00 	cmp  %o4, 0
40003fdc:	12 80 00 28 	bne  4000407c <_malloc_r+0x140>
40003fe0:	9f 34 20 03 	srl  %l0, 3, %o7
40003fe4:	39 10 00 33 	sethi  %hi(0x4000cc00), %i4
40003fe8:	9b 2b e0 03 	sll  %o7, 3, %o5
40003fec:	82 17 23 68 	or  %i4, 0x368, %g1
40003ff0:	9a 03 40 01 	add  %o5, %g1, %o5
40003ff4:	10 80 00 0a 	b  4000401c <_malloc_r+0xe0>
40003ff8:	f0 03 60 0c 	ld  [ %o5 + 0xc ], %i0
40003ffc:	94 08 7f fc 	and  %g1, -4, %o2
40004000:	96 22 80 10 	sub  %o2, %l0, %o3
40004004:	80 a2 e0 0f 	cmp  %o3, 0xf
40004008:	14 80 01 09 	bg  4000442c <_malloc_r+0x4f0>
4000400c:	80 a2 e0 00 	cmp  %o3, 0
40004010:	36 bf ff e7 	bge,a   40003fac <_malloc_r+0x70>
40004014:	9a 06 00 0a 	add  %i0, %o2, %o5
40004018:	f0 06 20 0c 	ld  [ %i0 + 0xc ], %i0
4000401c:	80 a6 00 0d 	cmp  %i0, %o5
40004020:	32 bf ff f7 	bne,a   40003ffc <_malloc_r+0xc0>
40004024:	c2 06 20 04 	ld  [ %i0 + 4 ], %g1
40004028:	9e 03 e0 01 	inc  %o7
4000402c:	25 10 00 33 	sethi  %hi(0x4000cc00), %l2
40004030:	98 14 a3 70 	or  %l2, 0x370, %o4	! 4000cf70 <__malloc_av_+0x8>
40004034:	f0 03 20 08 	ld  [ %o4 + 8 ], %i0
40004038:	80 a6 00 0c 	cmp  %i0, %o4
4000403c:	02 80 00 5d 	be  400041b0 <_malloc_r+0x274>
40004040:	83 3b e0 1f 	sra  %o7, 0x1f, %g1
40004044:	c2 06 20 04 	ld  [ %i0 + 4 ], %g1
40004048:	94 08 7f fc 	and  %g1, -4, %o2
4000404c:	96 22 80 10 	sub  %o2, %l0, %o3
40004050:	80 a2 e0 0f 	cmp  %o3, 0xf
40004054:	14 80 00 9f 	bg  400042d0 <_malloc_r+0x394>
40004058:	80 a2 e0 00 	cmp  %o3, 0
4000405c:	d8 23 20 0c 	st  %o4, [ %o4 + 0xc ]
40004060:	06 80 00 23 	bl  400040ec <_malloc_r+0x1b0>
40004064:	d8 23 20 08 	st  %o4, [ %o4 + 8 ]
40004068:	9a 06 00 0a 	add  %i0, %o2, %o5
4000406c:	c2 03 60 04 	ld  [ %o5 + 4 ], %g1
40004070:	82 10 60 01 	or  %g1, 1, %g1
40004074:	10 bf ff d5 	b  40003fc8 <_malloc_r+0x8c>
40004078:	c2 23 60 04 	st  %g1, [ %o5 + 4 ]
4000407c:	83 34 20 06 	srl  %l0, 6, %g1
40004080:	80 a3 20 04 	cmp  %o4, 4
40004084:	08 bf ff d8 	bleu  40003fe4 <_malloc_r+0xa8>
40004088:	9e 00 60 38 	add  %g1, 0x38, %o7
4000408c:	80 a3 20 14 	cmp  %o4, 0x14
40004090:	08 bf ff d5 	bleu  40003fe4 <_malloc_r+0xa8>
40004094:	9e 03 20 5b 	add  %o4, 0x5b, %o7
40004098:	83 34 20 0c 	srl  %l0, 0xc, %g1
4000409c:	80 a3 20 54 	cmp  %o4, 0x54
400040a0:	08 bf ff d1 	bleu  40003fe4 <_malloc_r+0xa8>
400040a4:	9e 00 60 6e 	add  %g1, 0x6e, %o7
400040a8:	83 34 20 0f 	srl  %l0, 0xf, %g1
400040ac:	80 a3 21 54 	cmp  %o4, 0x154
400040b0:	08 bf ff cd 	bleu  40003fe4 <_malloc_r+0xa8>
400040b4:	9e 00 60 77 	add  %g1, 0x77, %o7
400040b8:	83 34 20 12 	srl  %l0, 0x12, %g1
400040bc:	80 a3 25 54 	cmp  %o4, 0x554
400040c0:	08 bf ff c9 	bleu  40003fe4 <_malloc_r+0xa8>
400040c4:	9e 00 60 7c 	add  %g1, 0x7c, %o7
400040c8:	10 bf ff c7 	b  40003fe4 <_malloc_r+0xa8>
400040cc:	9e 10 20 7e 	mov  0x7e, %o7
400040d0:	98 06 20 08 	add  %i0, 8, %o4
400040d4:	f0 03 20 0c 	ld  [ %o4 + 0xc ], %i0
400040d8:	80 a6 00 0c 	cmp  %i0, %o4
400040dc:	32 bf ff b2 	bne,a   40003fa4 <_malloc_r+0x68>
400040e0:	c2 06 20 04 	ld  [ %i0 + 4 ], %g1
400040e4:	10 bf ff d2 	b  4000402c <_malloc_r+0xf0>
400040e8:	9e 03 e0 02 	add  %o7, 2, %o7
400040ec:	80 a2 a1 ff 	cmp  %o2, 0x1ff
400040f0:	08 80 00 be 	bleu  400043e8 <_malloc_r+0x4ac>
400040f4:	9b 32 a0 03 	srl  %o2, 3, %o5
400040f8:	97 32 a0 09 	srl  %o2, 9, %o3
400040fc:	80 a2 e0 00 	cmp  %o3, 0
40004100:	22 80 00 17 	be,a   4000415c <_malloc_r+0x220>
40004104:	96 17 23 68 	or  %i4, 0x368, %o3
40004108:	83 32 a0 06 	srl  %o2, 6, %g1
4000410c:	80 a2 e0 04 	cmp  %o3, 4
40004110:	08 80 00 12 	bleu  40004158 <_malloc_r+0x21c>
40004114:	9a 00 60 38 	add  %g1, 0x38, %o5
40004118:	80 a2 e0 14 	cmp  %o3, 0x14
4000411c:	08 80 00 0f 	bleu  40004158 <_malloc_r+0x21c>
40004120:	9a 02 e0 5b 	add  %o3, 0x5b, %o5
40004124:	83 32 a0 0c 	srl  %o2, 0xc, %g1
40004128:	80 a2 e0 54 	cmp  %o3, 0x54
4000412c:	08 80 00 0b 	bleu  40004158 <_malloc_r+0x21c>
40004130:	9a 00 60 6e 	add  %g1, 0x6e, %o5
40004134:	83 32 a0 0f 	srl  %o2, 0xf, %g1
40004138:	80 a2 e1 54 	cmp  %o3, 0x154
4000413c:	08 80 00 07 	bleu  40004158 <_malloc_r+0x21c>
40004140:	9a 00 60 77 	add  %g1, 0x77, %o5
40004144:	83 32 a0 12 	srl  %o2, 0x12, %g1
40004148:	80 a2 e5 54 	cmp  %o3, 0x554
4000414c:	08 80 00 03 	bleu  40004158 <_malloc_r+0x21c>
40004150:	9a 00 60 7c 	add  %g1, 0x7c, %o5
40004154:	9a 10 20 7e 	mov  0x7e, %o5
40004158:	96 17 23 68 	or  %i4, 0x368, %o3
4000415c:	83 2b 60 03 	sll  %o5, 3, %g1
40004160:	90 00 40 0b 	add  %g1, %o3, %o0
40004164:	d2 02 20 08 	ld  [ %o0 + 8 ], %o1
40004168:	80 a2 40 08 	cmp  %o1, %o0
4000416c:	22 80 01 0f 	be,a   400045a8 <_malloc_r+0x66c>
40004170:	99 33 60 02 	srl  %o5, 2, %o4
40004174:	c2 02 60 04 	ld  [ %o1 + 4 ], %g1
40004178:	82 08 7f fc 	and  %g1, -4, %g1
4000417c:	80 a0 40 0a 	cmp  %g1, %o2
40004180:	28 80 00 07 	bleu,a   4000419c <_malloc_r+0x260>
40004184:	d0 02 60 0c 	ld  [ %o1 + 0xc ], %o0
40004188:	d2 02 60 08 	ld  [ %o1 + 8 ], %o1
4000418c:	80 a2 40 08 	cmp  %o1, %o0
40004190:	32 bf ff fa 	bne,a   40004178 <_malloc_r+0x23c>
40004194:	c2 02 60 04 	ld  [ %o1 + 4 ], %g1
40004198:	d0 02 60 0c 	ld  [ %o1 + 0xc ], %o0
4000419c:	d0 26 20 0c 	st  %o0, [ %i0 + 0xc ]
400041a0:	d2 26 20 08 	st  %o1, [ %i0 + 8 ]
400041a4:	f0 22 60 0c 	st  %i0, [ %o1 + 0xc ]
400041a8:	f0 22 20 08 	st  %i0, [ %o0 + 8 ]
400041ac:	83 3b e0 1f 	sra  %o7, 0x1f, %g1
400041b0:	83 30 60 1e 	srl  %g1, 0x1e, %g1
400041b4:	82 03 c0 01 	add  %o7, %g1, %g1
400041b8:	39 10 00 33 	sethi  %hi(0x4000cc00), %i4
400041bc:	83 38 60 02 	sra  %g1, 2, %g1
400041c0:	98 17 23 68 	or  %i4, 0x368, %o4
400041c4:	9a 10 20 01 	mov  1, %o5
400041c8:	93 2b 40 01 	sll  %o5, %g1, %o1
400041cc:	d8 03 20 04 	ld  [ %o4 + 4 ], %o4
400041d0:	80 a2 40 0c 	cmp  %o1, %o4
400041d4:	18 80 00 4b 	bgu  40004300 <_malloc_r+0x3c4>
400041d8:	ae 17 23 68 	or  %i4, 0x368, %l7
400041dc:	80 8b 00 09 	btst  %o4, %o1
400041e0:	12 80 00 0d 	bne  40004214 <_malloc_r+0x2d8>
400041e4:	03 10 00 33 	sethi  %hi(0x4000cc00), %g1
400041e8:	82 0b ff fc 	and  %o7, -4, %g1
400041ec:	92 02 40 09 	add  %o1, %o1, %o1
400041f0:	80 8b 00 09 	btst  %o4, %o1
400041f4:	12 80 00 07 	bne  40004210 <_malloc_r+0x2d4>
400041f8:	9e 00 60 04 	add  %g1, 4, %o7
400041fc:	82 10 00 0c 	mov  %o4, %g1
40004200:	92 02 40 09 	add  %o1, %o1, %o1
40004204:	80 88 40 09 	btst  %g1, %o1
40004208:	02 bf ff fe 	be  40004200 <_malloc_r+0x2c4>
4000420c:	9e 03 e0 04 	add  %o7, 4, %o7
40004210:	03 10 00 33 	sethi  %hi(0x4000cc00), %g1
40004214:	a2 10 63 68 	or  %g1, 0x368, %l1	! 4000cf68 <__malloc_av_>
40004218:	a8 10 00 11 	mov  %l1, %l4
4000421c:	83 2b e0 03 	sll  %o7, 3, %g1
40004220:	98 00 40 11 	add  %g1, %l1, %o4
40004224:	90 10 00 0f 	mov  %o7, %o0
40004228:	9a 10 00 0c 	mov  %o4, %o5
4000422c:	10 80 00 0a 	b  40004254 <_malloc_r+0x318>
40004230:	f0 03 60 0c 	ld  [ %o5 + 0xc ], %i0
40004234:	94 08 7f fc 	and  %g1, -4, %o2
40004238:	96 22 80 10 	sub  %o2, %l0, %o3
4000423c:	80 a2 e0 0f 	cmp  %o3, 0xf
40004240:	14 80 00 7d 	bg  40004434 <_malloc_r+0x4f8>
40004244:	80 a2 e0 00 	cmp  %o3, 0
40004248:	36 80 00 8b 	bge,a   40004474 <_malloc_r+0x538>
4000424c:	9a 06 00 0a 	add  %i0, %o2, %o5
40004250:	f0 06 20 0c 	ld  [ %i0 + 0xc ], %i0
40004254:	80 a6 00 0d 	cmp  %i0, %o5
40004258:	32 bf ff f7 	bne,a   40004234 <_malloc_r+0x2f8>
4000425c:	c2 06 20 04 	ld  [ %i0 + 4 ], %g1
40004260:	9e 03 e0 01 	inc  %o7
40004264:	80 8b e0 03 	btst  3, %o7
40004268:	12 bf ff f1 	bne  4000422c <_malloc_r+0x2f0>
4000426c:	9a 03 60 08 	add  %o5, 8, %o5
40004270:	80 8a 20 03 	btst  3, %o0
40004274:	98 03 3f f8 	add  %o4, -8, %o4
40004278:	02 80 00 d4 	be  400045c8 <_malloc_r+0x68c>
4000427c:	90 02 3f ff 	add  %o0, -1, %o0
40004280:	c2 03 20 08 	ld  [ %o4 + 8 ], %g1
40004284:	80 a0 40 0c 	cmp  %g1, %o4
40004288:	02 bf ff fb 	be  40004274 <_malloc_r+0x338>
4000428c:	80 8a 20 03 	btst  3, %o0
40004290:	92 02 40 09 	add  %o1, %o1, %o1
40004294:	c2 05 20 04 	ld  [ %l4 + 4 ], %g1
40004298:	80 a2 40 01 	cmp  %o1, %g1
4000429c:	18 80 00 18 	bgu  400042fc <_malloc_r+0x3c0>
400042a0:	39 10 00 33 	sethi  %hi(0x4000cc00), %i4
400042a4:	80 a2 60 00 	cmp  %o1, 0
400042a8:	12 80 00 06 	bne  400042c0 <_malloc_r+0x384>
400042ac:	80 88 40 09 	btst  %g1, %o1
400042b0:	10 80 00 14 	b  40004300 <_malloc_r+0x3c4>
400042b4:	ae 17 23 68 	or  %i4, 0x368, %l7
400042b8:	9e 03 e0 04 	add  %o7, 4, %o7
400042bc:	80 88 40 09 	btst  %g1, %o1
400042c0:	22 bf ff fe 	be,a   400042b8 <_malloc_r+0x37c>
400042c4:	92 02 40 09 	add  %o1, %o1, %o1
400042c8:	10 bf ff d6 	b  40004220 <_malloc_r+0x2e4>
400042cc:	83 2b e0 03 	sll  %o7, 3, %g1
400042d0:	82 14 20 01 	or  %l0, 1, %g1
400042d4:	94 06 00 10 	add  %i0, %l0, %o2
400042d8:	c2 26 20 04 	st  %g1, [ %i0 + 4 ]
400042dc:	d4 23 20 0c 	st  %o2, [ %o4 + 0xc ]
400042e0:	d4 23 20 08 	st  %o2, [ %o4 + 8 ]
400042e4:	82 12 e0 01 	or  %o3, 1, %g1
400042e8:	d6 22 80 0b 	st  %o3, [ %o2 + %o3 ]
400042ec:	d8 22 a0 08 	st  %o4, [ %o2 + 8 ]
400042f0:	c2 22 a0 04 	st  %g1, [ %o2 + 4 ]
400042f4:	10 bf ff 35 	b  40003fc8 <_malloc_r+0x8c>
400042f8:	d8 22 a0 0c 	st  %o4, [ %o2 + 0xc ]
400042fc:	ae 17 23 68 	or  %i4, 0x368, %l7
40004300:	f0 05 e0 08 	ld  [ %l7 + 8 ], %i0
40004304:	c2 06 20 04 	ld  [ %i0 + 4 ], %g1
40004308:	aa 08 7f fc 	and  %g1, -4, %l5
4000430c:	80 a5 40 10 	cmp  %l5, %l0
40004310:	9a 40 20 00 	addx  %g0, 0, %o5
40004314:	96 25 40 10 	sub  %l5, %l0, %o3
40004318:	80 a2 e0 0f 	cmp  %o3, 0xf
4000431c:	14 80 00 42 	bg  40004424 <_malloc_r+0x4e8>
40004320:	82 10 20 01 	mov  1, %g1
40004324:	80 93 40 01 	orcc  %o5, %g1, %g0
40004328:	02 80 00 27 	be  400043c4 <_malloc_r+0x488>
4000432c:	03 10 00 36 	sethi  %hi(0x4000d800), %g1
40004330:	da 00 62 6c 	ld  [ %g1 + 0x26c ], %o5	! 4000da6c <__malloc_top_pad>
40004334:	2d 10 00 33 	sethi  %hi(0x4000cc00), %l6
40004338:	9a 04 00 0d 	add  %l0, %o5, %o5
4000433c:	c2 05 a3 60 	ld  [ %l6 + 0x360 ], %g1
40004340:	a8 10 00 15 	mov  %l5, %l4
40004344:	80 a0 7f ff 	cmp  %g1, -1
40004348:	a2 03 60 10 	add  %o5, 0x10, %l1
4000434c:	02 80 00 04 	be  4000435c <_malloc_r+0x420>
40004350:	a4 06 00 15 	add  %i0, %l5, %l2
40004354:	82 04 6f ff 	add  %l1, 0xfff, %g1
40004358:	a2 08 70 00 	and  %g1, -4096, %l1
4000435c:	90 10 00 13 	mov  %l3, %o0
40004360:	40 00 01 26 	call  400047f8 <_sbrk_r>
40004364:	92 10 00 11 	mov  %l1, %o1
40004368:	80 a2 3f ff 	cmp  %o0, -1
4000436c:	02 80 00 08 	be  4000438c <_malloc_r+0x450>
40004370:	b2 10 00 08 	mov  %o0, %i1
40004374:	80 a2 00 12 	cmp  %o0, %l2
40004378:	1a 80 00 46 	bcc  40004490 <_malloc_r+0x554>
4000437c:	3b 10 00 36 	sethi  %hi(0x4000d800), %i5
40004380:	80 a6 00 17 	cmp  %i0, %l7
40004384:	22 80 00 44 	be,a   40004494 <_malloc_r+0x558>
40004388:	c2 07 62 3c 	ld  [ %i5 + 0x23c ], %g1
4000438c:	82 17 23 68 	or  %i4, 0x368, %g1
40004390:	d8 00 60 08 	ld  [ %g1 + 8 ], %o4
40004394:	da 03 20 04 	ld  [ %o4 + 4 ], %o5
40004398:	9a 0b 7f fc 	and  %o5, -4, %o5
4000439c:	80 a3 40 10 	cmp  %o5, %l0
400043a0:	98 40 20 00 	addx  %g0, 0, %o4
400043a4:	96 23 40 10 	sub  %o5, %l0, %o3
400043a8:	80 a2 e0 0f 	cmp  %o3, 0xf
400043ac:	04 80 00 03 	ble  400043b8 <_malloc_r+0x47c>
400043b0:	82 10 20 01 	mov  1, %g1
400043b4:	82 10 20 00 	clr  %g1
400043b8:	80 93 00 01 	orcc  %o4, %g1, %g0
400043bc:	12 80 00 98 	bne  4000461c <_malloc_r+0x6e0>
400043c0:	01 00 00 00 	nop 
400043c4:	98 17 23 68 	or  %i4, 0x368, %o4
400043c8:	f0 03 20 08 	ld  [ %o4 + 8 ], %i0
400043cc:	82 14 20 01 	or  %l0, 1, %g1
400043d0:	c2 26 20 04 	st  %g1, [ %i0 + 4 ]
400043d4:	9a 06 00 10 	add  %i0, %l0, %o5
400043d8:	82 12 e0 01 	or  %o3, 1, %g1
400043dc:	c2 23 60 04 	st  %g1, [ %o5 + 4 ]
400043e0:	10 bf fe fa 	b  40003fc8 <_malloc_r+0x8c>
400043e4:	da 23 20 08 	st  %o5, [ %o4 + 8 ]
400043e8:	98 03 3f f8 	add  %o4, -8, %o4
400043ec:	83 2b 60 03 	sll  %o5, 3, %g1
400043f0:	90 00 40 0c 	add  %g1, %o4, %o0
400043f4:	9b 33 60 02 	srl  %o5, 2, %o5
400043f8:	82 10 20 01 	mov  1, %g1
400043fc:	83 28 40 0d 	sll  %g1, %o5, %g1
40004400:	d2 02 20 08 	ld  [ %o0 + 8 ], %o1
40004404:	da 03 20 04 	ld  [ %o4 + 4 ], %o5
40004408:	9a 13 40 01 	or  %o5, %g1, %o5
4000440c:	d0 26 20 0c 	st  %o0, [ %i0 + 0xc ]
40004410:	d2 26 20 08 	st  %o1, [ %i0 + 8 ]
40004414:	f0 22 60 0c 	st  %i0, [ %o1 + 0xc ]
40004418:	da 23 20 04 	st  %o5, [ %o4 + 4 ]
4000441c:	10 bf ff 64 	b  400041ac <_malloc_r+0x270>
40004420:	f0 22 20 08 	st  %i0, [ %o0 + 8 ]
40004424:	10 bf ff c0 	b  40004324 <_malloc_r+0x3e8>
40004428:	82 10 20 00 	clr  %g1
4000442c:	10 bf fe ff 	b  40004028 <_malloc_r+0xec>
40004430:	9e 03 ff ff 	add  %o7, -1, %o7
40004434:	d0 06 20 0c 	ld  [ %i0 + 0xc ], %o0
40004438:	d2 06 20 08 	ld  [ %i0 + 8 ], %o1
4000443c:	9a 14 20 01 	or  %l0, 1, %o5
40004440:	94 06 00 10 	add  %i0, %l0, %o2
40004444:	82 14 a3 70 	or  %l2, 0x370, %g1
40004448:	d2 22 20 08 	st  %o1, [ %o0 + 8 ]
4000444c:	d0 22 60 0c 	st  %o0, [ %o1 + 0xc ]
40004450:	da 26 20 04 	st  %o5, [ %i0 + 4 ]
40004454:	d4 20 60 0c 	st  %o2, [ %g1 + 0xc ]
40004458:	d4 20 60 08 	st  %o2, [ %g1 + 8 ]
4000445c:	9a 12 e0 01 	or  %o3, 1, %o5
40004460:	d6 22 80 0b 	st  %o3, [ %o2 + %o3 ]
40004464:	c2 22 a0 08 	st  %g1, [ %o2 + 8 ]
40004468:	da 22 a0 04 	st  %o5, [ %o2 + 4 ]
4000446c:	10 bf fe d7 	b  40003fc8 <_malloc_r+0x8c>
40004470:	c2 22 a0 0c 	st  %g1, [ %o2 + 0xc ]
40004474:	c2 03 60 04 	ld  [ %o5 + 4 ], %g1
40004478:	82 10 60 01 	or  %g1, 1, %g1
4000447c:	d0 06 20 0c 	ld  [ %i0 + 0xc ], %o0
40004480:	d2 06 20 08 	ld  [ %i0 + 8 ], %o1
40004484:	c2 23 60 04 	st  %g1, [ %o5 + 4 ]
40004488:	10 bf fe cf 	b  40003fc4 <_malloc_r+0x88>
4000448c:	d2 22 20 08 	st  %o1, [ %o0 + 8 ]
40004490:	c2 07 62 3c 	ld  [ %i5 + 0x23c ], %g1
40004494:	82 00 40 11 	add  %g1, %l1, %g1
40004498:	80 a6 40 12 	cmp  %i1, %l2
4000449c:	02 80 00 4f 	be  400045d8 <_malloc_r+0x69c>
400044a0:	c2 27 62 3c 	st  %g1, [ %i5 + 0x23c ]
400044a4:	c2 05 a3 60 	ld  [ %l6 + 0x360 ], %g1
400044a8:	80 a0 7f ff 	cmp  %g1, -1
400044ac:	02 80 00 45 	be  400045c0 <_malloc_r+0x684>
400044b0:	c2 07 62 3c 	ld  [ %i5 + 0x23c ], %g1
400044b4:	9a 26 40 12 	sub  %i1, %l2, %o5
400044b8:	82 00 40 0d 	add  %g1, %o5, %g1
400044bc:	c2 27 62 3c 	st  %g1, [ %i5 + 0x23c ]
400044c0:	9a 8e 60 07 	andcc  %i1, 7, %o5
400044c4:	02 80 00 05 	be  400044d8 <_malloc_r+0x59c>
400044c8:	a4 10 20 00 	clr  %l2
400044cc:	82 10 20 08 	mov  8, %g1
400044d0:	a4 20 40 0d 	sub  %g1, %o5, %l2
400044d4:	b2 06 40 12 	add  %i1, %l2, %i1
400044d8:	9a 06 40 11 	add  %i1, %l1, %o5
400044dc:	9a 0b 6f ff 	and  %o5, 0xfff, %o5
400044e0:	03 00 00 04 	sethi  %hi(0x1000), %g1
400044e4:	82 20 40 0d 	sub  %g1, %o5, %g1
400044e8:	a4 04 80 01 	add  %l2, %g1, %l2
400044ec:	90 10 00 13 	mov  %l3, %o0
400044f0:	40 00 00 c2 	call  400047f8 <_sbrk_r>
400044f4:	92 10 00 12 	mov  %l2, %o1
400044f8:	80 a2 3f ff 	cmp  %o0, -1
400044fc:	22 80 00 3f 	be,a   400045f8 <_malloc_r+0x6bc>
40004500:	a4 10 20 00 	clr  %l2
40004504:	82 22 00 19 	sub  %o0, %i1, %g1
40004508:	90 00 40 12 	add  %g1, %l2, %o0
4000450c:	82 17 23 68 	or  %i4, 0x368, %g1
40004510:	da 07 62 3c 	ld  [ %i5 + 0x23c ], %o5
40004514:	9a 03 40 12 	add  %o5, %l2, %o5
40004518:	80 a6 00 01 	cmp  %i0, %g1
4000451c:	f2 20 60 08 	st  %i1, [ %g1 + 8 ]
40004520:	da 27 62 3c 	st  %o5, [ %i5 + 0x23c ]
40004524:	02 80 00 37 	be  40004600 <_malloc_r+0x6c4>
40004528:	82 12 20 01 	or  %o0, 1, %g1
4000452c:	80 a5 60 0f 	cmp  %l5, 0xf
40004530:	38 80 00 05 	bgu,a   40004544 <_malloc_r+0x608>
40004534:	c2 26 60 04 	st  %g1, [ %i1 + 4 ]
40004538:	82 10 20 01 	mov  1, %g1
4000453c:	10 bf ff 94 	b  4000438c <_malloc_r+0x450>
40004540:	c2 26 60 04 	st  %g1, [ %i1 + 4 ]
40004544:	c2 06 20 04 	ld  [ %i0 + 4 ], %g1
40004548:	9a 05 7f f4 	add  %l5, -12, %o5
4000454c:	a8 0b 7f f8 	and  %o5, -8, %l4
40004550:	82 08 60 01 	and  %g1, 1, %g1
40004554:	82 10 40 14 	or  %g1, %l4, %g1
40004558:	c2 26 20 04 	st  %g1, [ %i0 + 4 ]
4000455c:	9a 06 00 14 	add  %i0, %l4, %o5
40004560:	82 10 20 05 	mov  5, %g1
40004564:	c2 23 60 08 	st  %g1, [ %o5 + 8 ]
40004568:	80 a5 20 0f 	cmp  %l4, 0xf
4000456c:	18 80 00 27 	bgu  40004608 <_malloc_r+0x6cc>
40004570:	c2 23 60 04 	st  %g1, [ %o5 + 4 ]
40004574:	19 10 00 36 	sethi  %hi(0x4000d800), %o4
40004578:	da 07 62 3c 	ld  [ %i5 + 0x23c ], %o5
4000457c:	c2 03 22 68 	ld  [ %o4 + 0x268 ], %g1
40004580:	80 a3 40 01 	cmp  %o5, %g1
40004584:	38 80 00 02 	bgu,a   4000458c <_malloc_r+0x650>
40004588:	da 23 22 68 	st  %o5, [ %o4 + 0x268 ]
4000458c:	19 10 00 36 	sethi  %hi(0x4000d800), %o4
40004590:	c2 03 22 64 	ld  [ %o4 + 0x264 ], %g1	! 4000da64 <__malloc_max_total_mem>
40004594:	80 a3 40 01 	cmp  %o5, %g1
40004598:	38 bf ff 7d 	bgu,a   4000438c <_malloc_r+0x450>
4000459c:	da 23 22 64 	st  %o5, [ %o4 + 0x264 ]
400045a0:	10 bf ff 7c 	b  40004390 <_malloc_r+0x454>
400045a4:	82 17 23 68 	or  %i4, 0x368, %g1
400045a8:	9a 10 20 01 	mov  1, %o5
400045ac:	c2 02 e0 04 	ld  [ %o3 + 4 ], %g1
400045b0:	9b 2b 40 0c 	sll  %o5, %o4, %o5
400045b4:	82 10 40 0d 	or  %g1, %o5, %g1
400045b8:	10 bf fe f9 	b  4000419c <_malloc_r+0x260>
400045bc:	c2 22 e0 04 	st  %g1, [ %o3 + 4 ]
400045c0:	10 bf ff c0 	b  400044c0 <_malloc_r+0x584>
400045c4:	f2 25 a3 60 	st  %i1, [ %l6 + 0x360 ]
400045c8:	c2 04 60 04 	ld  [ %l1 + 4 ], %g1
400045cc:	82 28 40 09 	andn  %g1, %o1, %g1
400045d0:	10 bf ff 30 	b  40004290 <_malloc_r+0x354>
400045d4:	c2 24 60 04 	st  %g1, [ %l1 + 4 ]
400045d8:	80 8e 6f ff 	btst  0xfff, %i1
400045dc:	12 bf ff b3 	bne  400044a8 <_malloc_r+0x56c>
400045e0:	c2 05 a3 60 	ld  [ %l6 + 0x360 ], %g1
400045e4:	90 04 40 14 	add  %l1, %l4, %o0
400045e8:	da 05 e0 08 	ld  [ %l7 + 8 ], %o5
400045ec:	82 12 20 01 	or  %o0, 1, %g1
400045f0:	10 bf ff e1 	b  40004574 <_malloc_r+0x638>
400045f4:	c2 23 60 04 	st  %g1, [ %o5 + 4 ]
400045f8:	10 bf ff c3 	b  40004504 <_malloc_r+0x5c8>
400045fc:	90 10 00 19 	mov  %i1, %o0
40004600:	10 bf ff dd 	b  40004574 <_malloc_r+0x638>
40004604:	c2 26 60 04 	st  %g1, [ %i1 + 4 ]
40004608:	92 06 20 08 	add  %i0, 8, %o1
4000460c:	40 00 10 fb 	call  400089f8 <_free_r>
40004610:	90 10 00 13 	mov  %l3, %o0
40004614:	10 bf ff d9 	b  40004578 <_malloc_r+0x63c>
40004618:	19 10 00 36 	sethi  %hi(0x4000d800), %o4
4000461c:	40 00 00 0b 	call  40004648 <__malloc_unlock>
40004620:	90 10 00 13 	mov  %l3, %o0
40004624:	b0 10 20 00 	clr  %i0
40004628:	81 c7 e0 08 	ret 
4000462c:	81 e8 00 00 	restore 

40004630 <__malloc_lock>:
40004630:	11 10 00 34 	sethi  %hi(0x4000d000), %o0
40004634:	90 12 23 70 	or  %o0, 0x370, %o0	! 4000d370 <__malloc_lock_object>
40004638:	82 13 c0 00 	mov  %o7, %g1
4000463c:	40 00 1c ae 	call  4000b8f4 <___st_pthread_mutex_lock>
40004640:	9e 10 40 00 	mov  %g1, %o7
40004644:	01 00 00 00 	nop 

40004648 <__malloc_unlock>:
40004648:	11 10 00 34 	sethi  %hi(0x4000d000), %o0
4000464c:	90 12 23 70 	or  %o0, 0x370, %o0	! 4000d370 <__malloc_lock_object>
40004650:	82 13 c0 00 	mov  %o7, %g1
40004654:	40 00 1c c0 	call  4000b954 <___st_pthread_mutex_unlock>
40004658:	9e 10 40 00 	mov  %g1, %o7
4000465c:	01 00 00 00 	nop 

40004660 <_printf_r>:
40004660:	9d e3 bf 98 	save  %sp, -104, %sp
40004664:	f4 27 a0 4c 	st  %i2, [ %fp + 0x4c ]
40004668:	f6 27 a0 50 	st  %i3, [ %fp + 0x50 ]
4000466c:	f8 27 a0 54 	st  %i4, [ %fp + 0x54 ]
40004670:	fa 27 a0 58 	st  %i5, [ %fp + 0x58 ]
40004674:	90 10 00 18 	mov  %i0, %o0
40004678:	d2 06 20 08 	ld  [ %i0 + 8 ], %o1
4000467c:	94 10 00 19 	mov  %i1, %o2
40004680:	40 00 00 ee 	call  40004a38 <_vfprintf_r>
40004684:	96 07 a0 4c 	add  %fp, 0x4c, %o3
40004688:	81 c7 e0 08 	ret 
4000468c:	91 e8 00 08 	restore  %g0, %o0, %o0

40004690 <printf>:
40004690:	9d e3 bf 98 	save  %sp, -104, %sp
40004694:	03 10 00 36 	sethi  %hi(0x4000d800), %g1
40004698:	f2 27 a0 48 	st  %i1, [ %fp + 0x48 ]
4000469c:	f4 27 a0 4c 	st  %i2, [ %fp + 0x4c ]
400046a0:	f6 27 a0 50 	st  %i3, [ %fp + 0x50 ]
400046a4:	f8 27 a0 54 	st  %i4, [ %fp + 0x54 ]
400046a8:	fa 27 a0 58 	st  %i5, [ %fp + 0x58 ]
400046ac:	da 00 61 a8 	ld  [ %g1 + 0x1a8 ], %o5
400046b0:	92 10 00 18 	mov  %i0, %o1
400046b4:	d0 03 60 08 	ld  [ %o5 + 8 ], %o0
400046b8:	40 00 07 c1 	call  400065bc <vfprintf>
400046bc:	94 07 a0 48 	add  %fp, 0x48, %o2
400046c0:	81 c7 e0 08 	ret 
400046c4:	91 e8 00 08 	restore  %g0, %o0, %o0

400046c8 <_putchar_r>:
400046c8:	9d e3 bf 98 	save  %sp, -104, %sp
400046cc:	d6 06 20 08 	ld  [ %i0 + 8 ], %o3
400046d0:	c2 02 e0 08 	ld  [ %o3 + 8 ], %g1
400046d4:	98 00 7f ff 	add  %g1, -1, %o4
400046d8:	80 a3 20 00 	cmp  %o4, 0
400046dc:	06 80 00 0a 	bl  40004704 <_putchar_r+0x3c>
400046e0:	d8 22 e0 08 	st  %o4, [ %o3 + 8 ]
400046e4:	c2 02 c0 00 	ld  [ %o3 ], %g1
400046e8:	f2 28 40 00 	stb  %i1, [ %g1 ]
400046ec:	da 06 20 08 	ld  [ %i0 + 8 ], %o5
400046f0:	c2 03 40 00 	ld  [ %o5 ], %g1
400046f4:	f0 08 40 00 	ldub  [ %g1 ], %i0
400046f8:	82 00 60 01 	inc  %g1
400046fc:	10 80 00 17 	b  40004758 <_putchar_r+0x90>
40004700:	c2 23 40 00 	st  %g1, [ %o5 ]
40004704:	c2 02 e0 18 	ld  [ %o3 + 0x18 ], %g1
40004708:	90 10 00 19 	mov  %i1, %o0
4000470c:	80 a3 00 01 	cmp  %o4, %g1
40004710:	06 80 00 0f 	bl  4000474c <_putchar_r+0x84>
40004714:	92 10 00 0b 	mov  %o3, %o1
40004718:	c2 02 c0 00 	ld  [ %o3 ], %g1
4000471c:	f2 28 40 00 	stb  %i1, [ %g1 ]
40004720:	d8 06 20 08 	ld  [ %i0 + 8 ], %o4
40004724:	da 03 00 00 	ld  [ %o4 ], %o5
40004728:	c2 0b 40 00 	ldub  [ %o5 ], %g1
4000472c:	92 10 00 0c 	mov  %o4, %o1
40004730:	90 10 20 0a 	mov  0xa, %o0
40004734:	96 03 60 01 	add  %o5, 1, %o3
40004738:	80 a0 60 0a 	cmp  %g1, 0xa
4000473c:	02 80 00 04 	be  4000474c <_putchar_r+0x84>
40004740:	b0 10 00 01 	mov  %g1, %i0
40004744:	10 80 00 05 	b  40004758 <_putchar_r+0x90>
40004748:	d6 23 00 00 	st  %o3, [ %o4 ]
4000474c:	40 00 07 a7 	call  400065e8 <__swbuf>
40004750:	01 00 00 00 	nop 
40004754:	b0 10 00 08 	mov  %o0, %i0
40004758:	81 c7 e0 08 	ret 
4000475c:	81 e8 00 00 	restore 

40004760 <putchar>:
40004760:	92 10 00 08 	mov  %o0, %o1
40004764:	03 10 00 36 	sethi  %hi(0x4000d800), %g1
40004768:	d0 00 61 a8 	ld  [ %g1 + 0x1a8 ], %o0	! 4000d9a8 <_impure_ptr>
4000476c:	82 13 c0 00 	mov  %o7, %g1
40004770:	7f ff ff d6 	call  400046c8 <_putchar_r>
40004774:	9e 10 40 00 	mov  %g1, %o7
40004778:	01 00 00 00 	nop 

4000477c <_puts_r>:
4000477c:	9d e3 bf 78 	save  %sp, -136, %sp
40004780:	40 00 00 2c 	call  40004830 <strlen>
40004784:	90 10 00 19 	mov  %i1, %o0
40004788:	03 10 00 32 	sethi  %hi(0x4000c800), %g1
4000478c:	82 10 63 50 	or  %g1, 0x350, %g1	! 4000cb50 <__thenan_df+0x18>
40004790:	9a 10 20 01 	mov  1, %o5
40004794:	c2 27 bf e0 	st  %g1, [ %fp + -32 ]
40004798:	da 27 bf e4 	st  %o5, [ %fp + -28 ]
4000479c:	98 02 20 01 	add  %o0, 1, %o4
400047a0:	82 07 bf d8 	add  %fp, -40, %g1
400047a4:	9a 10 20 02 	mov  2, %o5
400047a8:	d0 27 bf dc 	st  %o0, [ %fp + -36 ]
400047ac:	d0 06 20 08 	ld  [ %i0 + 8 ], %o0
400047b0:	f2 27 bf d8 	st  %i1, [ %fp + -40 ]
400047b4:	d8 27 bf f0 	st  %o4, [ %fp + -16 ]
400047b8:	c2 27 bf e8 	st  %g1, [ %fp + -24 ]
400047bc:	da 27 bf ec 	st  %o5, [ %fp + -20 ]
400047c0:	40 00 11 2f 	call  40008c7c <__sfvwrite>
400047c4:	92 07 bf e8 	add  %fp, -24, %o1
400047c8:	80 a0 00 08 	cmp  %g0, %o0
400047cc:	b0 60 20 00 	subx  %g0, 0, %i0
400047d0:	b0 16 20 0a 	or  %i0, 0xa, %i0
400047d4:	81 c7 e0 08 	ret 
400047d8:	81 e8 00 00 	restore 

400047dc <puts>:
400047dc:	92 10 00 08 	mov  %o0, %o1
400047e0:	03 10 00 36 	sethi  %hi(0x4000d800), %g1
400047e4:	d0 00 61 a8 	ld  [ %g1 + 0x1a8 ], %o0	! 4000d9a8 <_impure_ptr>
400047e8:	82 13 c0 00 	mov  %o7, %g1
400047ec:	7f ff ff e4 	call  4000477c <_puts_r>
400047f0:	9e 10 40 00 	mov  %g1, %o7
400047f4:	01 00 00 00 	nop 

400047f8 <_sbrk_r>:
400047f8:	9d e3 bf 98 	save  %sp, -104, %sp
400047fc:	21 10 00 93 	sethi  %hi(0x40024c00), %l0
40004800:	c0 24 23 30 	clr  [ %l0 + 0x330 ]	! 40024f30 <errno>
40004804:	40 00 1b a9 	call  4000b6a8 <sbrk>
40004808:	90 10 00 19 	mov  %i1, %o0
4000480c:	80 a2 3f ff 	cmp  %o0, -1
40004810:	12 80 00 06 	bne  40004828 <_sbrk_r+0x30>
40004814:	c2 04 23 30 	ld  [ %l0 + 0x330 ], %g1
40004818:	80 a0 60 00 	cmp  %g1, 0
4000481c:	02 80 00 03 	be  40004828 <_sbrk_r+0x30>
40004820:	01 00 00 00 	nop 
40004824:	c2 26 00 00 	st  %g1, [ %i0 ]
40004828:	81 c7 e0 08 	ret 
4000482c:	91 e8 00 08 	restore  %g0, %o0, %o0

40004830 <strlen>:
40004830:	80 8a 20 03 	btst  3, %o0
40004834:	12 80 00 12 	bne  4000487c <strlen+0x4c>
40004838:	94 10 00 08 	mov  %o0, %o2
4000483c:	03 3f bf bf 	sethi  %hi(0xfefefc00), %g1
40004840:	da 02 00 00 	ld  [ %o0 ], %o5
40004844:	96 10 62 ff 	or  %g1, 0x2ff, %o3
40004848:	82 03 40 0b 	add  %o5, %o3, %g1
4000484c:	19 20 20 20 	sethi  %hi(0x80808000), %o4
40004850:	9a 28 40 0d 	andn  %g1, %o5, %o5
40004854:	98 13 20 80 	or  %o4, 0x80, %o4
40004858:	80 8b 40 0c 	btst  %o5, %o4
4000485c:	32 80 00 09 	bne,a   40004880 <strlen+0x50>
40004860:	c2 4a 00 00 	ldsb  [ %o0 ], %g1
40004864:	90 02 20 04 	add  %o0, 4, %o0
40004868:	c2 02 00 00 	ld  [ %o0 ], %g1
4000486c:	9a 00 40 0b 	add  %g1, %o3, %o5
40004870:	82 2b 40 01 	andn  %o5, %g1, %g1
40004874:	10 bf ff fa 	b  4000485c <strlen+0x2c>
40004878:	80 88 40 0c 	btst  %g1, %o4
4000487c:	c2 4a 00 00 	ldsb  [ %o0 ], %g1
40004880:	80 a0 60 00 	cmp  %g1, 0
40004884:	32 bf ff fe 	bne,a   4000487c <strlen+0x4c>
40004888:	90 02 20 01 	inc  %o0
4000488c:	81 c3 e0 08 	retl 
40004890:	90 22 00 0a 	sub  %o0, %o2, %o0
40004894:	40 00 55 7c 	call  40019e84 <sortlist+0x12e8>
40004898:	40 00 51 e8 	call  40019038 <sortlist+0x49c>
4000489c:	40 00 51 e8 	call  4001903c <sortlist+0x4a0>
400048a0:	40 00 55 74 	call  40019e70 <sortlist+0x12d4>
400048a4:	40 00 51 e8 	call  40019044 <sortlist+0x4a8>
400048a8:	40 00 51 e8 	call  40019048 <sortlist+0x4ac>
400048ac:	40 00 51 e8 	call  4001904c <sortlist+0x4b0>
400048b0:	40 00 51 e8 	call  40019050 <sortlist+0x4b4>
400048b4:	40 00 51 e8 	call  40019054 <sortlist+0x4b8>
400048b8:	40 00 51 e8 	call  40019058 <sortlist+0x4bc>
400048bc:	40 00 51 b8 	call  40018f9c <sortlist+0x400>
400048c0:	40 00 54 3c 	call  400199b0 <sortlist+0xe14>
400048c4:	40 00 51 e8 	call  40019064 <sortlist+0x4c8>
400048c8:	40 00 51 d4 	call  40019018 <sortlist+0x47c>
400048cc:	40 00 52 98 	call  4001932c <sortlist+0x790>
400048d0:	40 00 51 e8 	call  40019070 <sortlist+0x4d4>
400048d4:	40 00 55 6c 	call  40019e84 <sortlist+0x12e8>
400048d8:	40 00 52 64 	call  40019268 <sortlist+0x6cc>
400048dc:	40 00 52 64 	call  4001926c <sortlist+0x6d0>
400048e0:	40 00 52 64 	call  40019270 <sortlist+0x6d4>
400048e4:	40 00 52 64 	call  40019274 <sortlist+0x6d8>
400048e8:	40 00 52 64 	call  40019278 <sortlist+0x6dc>
400048ec:	40 00 52 64 	call  4001927c <sortlist+0x6e0>
400048f0:	40 00 52 64 	call  40019280 <sortlist+0x6e4>
400048f4:	40 00 52 64 	call  40019284 <sortlist+0x6e8>
400048f8:	40 00 52 64 	call  40019288 <sortlist+0x6ec>
400048fc:	40 00 51 e8 	call  4001909c <sortlist+0x500>
40004900:	40 00 51 e8 	call  400190a0 <sortlist+0x504>
40004904:	40 00 51 e8 	call  400190a4 <sortlist+0x508>
40004908:	40 00 51 e8 	call  400190a8 <sortlist+0x50c>
4000490c:	40 00 51 e8 	call  400190ac <sortlist+0x510>
40004910:	40 00 51 e8 	call  400190b0 <sortlist+0x514>
40004914:	40 00 51 e8 	call  400190b4 <sortlist+0x518>
40004918:	40 00 51 e8 	call  400190b8 <sortlist+0x51c>
4000491c:	40 00 51 e8 	call  400190bc <sortlist+0x520>
40004920:	40 00 54 e8 	call  40019cc0 <sortlist+0x1124>
40004924:	40 00 4d 80 	call  40017f24 <w+0x488>
40004928:	40 00 54 50 	call  40019a68 <sortlist+0xecc>
4000492c:	40 00 51 e8 	call  400190cc <sortlist+0x530>
40004930:	40 00 54 50 	call  40019a70 <sortlist+0xed4>
40004934:	40 00 51 e8 	call  400190d4 <sortlist+0x538>
40004938:	40 00 51 e8 	call  400190d8 <sortlist+0x53c>
4000493c:	40 00 51 e8 	call  400190dc <sortlist+0x540>
40004940:	40 00 51 e8 	call  400190e0 <sortlist+0x544>
40004944:	40 00 55 64 	call  40019ed4 <sortlist+0x1338>
40004948:	40 00 51 e8 	call  400190e8 <sortlist+0x54c>
4000494c:	40 00 51 e8 	call  400190ec <sortlist+0x550>
40004950:	40 00 4d 4c 	call  40017e80 <w+0x3e4>
40004954:	40 00 51 e8 	call  400190f4 <sortlist+0x558>
40004958:	40 00 51 e8 	call  400190f8 <sortlist+0x55c>
4000495c:	40 00 51 e8 	call  400190fc <sortlist+0x560>
40004960:	40 00 53 20 	call  400195e0 <sortlist+0xa44>
40004964:	40 00 51 e8 	call  40019104 <sortlist+0x568>
40004968:	40 00 4d 18 	call  40017dc8 <w+0x32c>
4000496c:	40 00 51 e8 	call  4001910c <sortlist+0x570>
40004970:	40 00 51 e8 	call  40019110 <sortlist+0x574>
40004974:	40 00 55 40 	call  40019e74 <sortlist+0x12d8>
40004978:	40 00 51 e8 	call  40019118 <sortlist+0x57c>
4000497c:	40 00 51 e8 	call  4001911c <sortlist+0x580>
40004980:	40 00 51 e8 	call  40019120 <sortlist+0x584>
40004984:	40 00 51 e8 	call  40019124 <sortlist+0x588>
40004988:	40 00 51 e8 	call  40019128 <sortlist+0x58c>
4000498c:	40 00 51 e8 	call  4001912c <sortlist+0x590>
40004990:	40 00 51 e8 	call  40019130 <sortlist+0x594>
40004994:	40 00 51 e8 	call  40019134 <sortlist+0x598>
40004998:	40 00 51 e8 	call  40019138 <sortlist+0x59c>
4000499c:	40 00 51 e8 	call  4001913c <sortlist+0x5a0>
400049a0:	40 00 54 e8 	call  40019d40 <sortlist+0x11a4>
400049a4:	40 00 4d 84 	call  40017fb4 <w+0x518>
400049a8:	40 00 54 50 	call  40019ae8 <sortlist+0xf4c>
400049ac:	40 00 54 50 	call  40019aec <sortlist+0xf50>
400049b0:	40 00 54 50 	call  40019af0 <sortlist+0xf54>
400049b4:	40 00 54 48 	call  40019ad4 <sortlist+0xf38>
400049b8:	40 00 4d 84 	call  40017fc8 <w+0x52c>
400049bc:	40 00 51 e8 	call  4001915c <sortlist+0x5c0>
400049c0:	40 00 51 e8 	call  40019160 <sortlist+0x5c4>
400049c4:	40 00 52 4c 	call  400192f4 <sortlist+0x758>
400049c8:	40 00 51 e8 	call  40019168 <sortlist+0x5cc>
400049cc:	40 00 54 1c 	call  40019a3c <sortlist+0xea0>
400049d0:	40 00 4d 50 	call  40017f10 <w+0x474>
400049d4:	40 00 52 f4 	call  400195a4 <sortlist+0xa08>
400049d8:	40 00 51 e0 	call  40019158 <sortlist+0x5bc>
400049dc:	40 00 51 e8 	call  4001917c <sortlist+0x5e0>
400049e0:	40 00 53 20 	call  40019660 <sortlist+0xac4>
400049e4:	40 00 51 e8 	call  40019184 <sortlist+0x5e8>
400049e8:	40 00 4d 1c 	call  40017e58 <w+0x3bc>
400049ec:	40 00 51 e8 	call  4001918c <sortlist+0x5f0>
400049f0:	40 00 51 e8 	call  40019190 <sortlist+0x5f4>
400049f4:	40 00 52 04 	call  40019204 <sortlist+0x668>

400049f8 <__sprint>:
400049f8:	9d e3 bf 98 	save  %sp, -104, %sp
400049fc:	c2 06 60 08 	ld  [ %i1 + 8 ], %g1
40004a00:	90 10 00 18 	mov  %i0, %o0
40004a04:	92 10 00 19 	mov  %i1, %o1
40004a08:	80 a0 60 00 	cmp  %g1, 0
40004a0c:	12 80 00 04 	bne  40004a1c <__sprint+0x24>
40004a10:	b0 10 20 00 	clr  %i0
40004a14:	10 80 00 07 	b  40004a30 <__sprint+0x38>
40004a18:	c0 26 60 04 	clr  [ %i1 + 4 ]
40004a1c:	40 00 10 98 	call  40008c7c <__sfvwrite>
40004a20:	01 00 00 00 	nop 
40004a24:	c0 26 60 04 	clr  [ %i1 + 4 ]
40004a28:	c0 26 60 08 	clr  [ %i1 + 8 ]
40004a2c:	b0 10 00 08 	mov  %o0, %i0
40004a30:	81 c7 e0 08 	ret 
40004a34:	81 e8 00 00 	restore 

40004a38 <_vfprintf_r>:
40004a38:	9d e3 b8 58 	save  %sp, -1960, %sp
40004a3c:	40 00 12 38 	call  4000931c <localeconv>
40004a40:	01 00 00 00 	nop 
40004a44:	c2 16 60 0c 	lduh  [ %i1 + 0xc ], %g1
40004a48:	d0 02 00 00 	ld  [ %o0 ], %o0
40004a4c:	80 88 62 00 	btst  0x200, %g1
40004a50:	f0 27 a0 44 	st  %i0, [ %fp + 0x44 ]
40004a54:	d0 27 b8 e8 	st  %o0, [ %fp + -1816 ]
40004a58:	c0 27 b8 e0 	clr  [ %fp + -1824 ]
40004a5c:	c0 27 b8 e4 	clr  [ %fp + -1820 ]
40004a60:	c0 27 b8 dc 	clr  [ %fp + -1828 ]
40004a64:	c0 27 b8 d8 	clr  [ %fp + -1832 ]
40004a68:	02 80 00 a8 	be  40004d08 <_vfprintf_r+0x2d0>
40004a6c:	c0 27 b8 d4 	clr  [ %fp + -1836 ]
40004a70:	03 10 00 36 	sethi  %hi(0x4000d800), %g1
40004a74:	d0 00 61 a8 	ld  [ %g1 + 0x1a8 ], %o0	! 4000d9a8 <_impure_ptr>
40004a78:	80 a2 20 00 	cmp  %o0, 0
40004a7c:	22 80 00 07 	be,a   40004a98 <_vfprintf_r+0x60>
40004a80:	c2 16 60 0c 	lduh  [ %i1 + 0xc ], %g1
40004a84:	c2 02 20 38 	ld  [ %o0 + 0x38 ], %g1
40004a88:	80 a0 60 00 	cmp  %g1, 0
40004a8c:	02 80 02 c6 	be  400055a4 <_vfprintf_r+0xb6c>
40004a90:	01 00 00 00 	nop 
40004a94:	c2 16 60 0c 	lduh  [ %i1 + 0xc ], %g1
40004a98:	80 88 60 08 	btst  8, %g1
40004a9c:	02 80 00 4d 	be  40004bd0 <_vfprintf_r+0x198>
40004aa0:	98 10 00 01 	mov  %g1, %o4
40004aa4:	c2 06 60 10 	ld  [ %i1 + 0x10 ], %g1
40004aa8:	80 a0 60 00 	cmp  %g1, 0
40004aac:	02 80 00 49 	be  40004bd0 <_vfprintf_r+0x198>
40004ab0:	83 2b 20 10 	sll  %o4, 0x10, %g1
40004ab4:	97 30 60 10 	srl  %g1, 0x10, %o3
40004ab8:	9a 0a e0 1a 	and  %o3, 0x1a, %o5
40004abc:	80 a3 60 0a 	cmp  %o5, 0xa
40004ac0:	22 80 00 51 	be,a   40004c04 <_vfprintf_r+0x1cc>
40004ac4:	c2 56 60 0e 	ldsh  [ %i1 + 0xe ], %g1
40004ac8:	b8 07 bf a0 	add  %fp, -96, %i4
40004acc:	f8 27 bf e0 	st  %i4, [ %fp + -32 ]
40004ad0:	c0 27 bf e8 	clr  [ %fp + -24 ]
40004ad4:	c0 27 bf e4 	clr  [ %fp + -28 ]
40004ad8:	a4 10 00 1c 	mov  %i4, %l2
40004adc:	c0 27 b8 f0 	clr  [ %fp + -1808 ]
40004ae0:	c2 4e 80 00 	ldsb  [ %i2 ], %g1
40004ae4:	80 a0 00 01 	cmp  %g0, %g1
40004ae8:	98 40 20 00 	addx  %g0, 0, %o4
40004aec:	82 18 60 25 	xor  %g1, 0x25, %g1
40004af0:	80 a0 00 01 	cmp  %g0, %g1
40004af4:	9a 40 20 00 	addx  %g0, 0, %o5
40004af8:	a6 10 00 1a 	mov  %i2, %l3
40004afc:	80 8b 00 0d 	btst  %o4, %o5
40004b00:	02 80 00 0c 	be  40004b30 <_vfprintf_r+0xf8>
40004b04:	c2 0e 80 00 	ldub  [ %i2 ], %g1
40004b08:	b4 06 a0 01 	inc  %i2
40004b0c:	c2 4e 80 00 	ldsb  [ %i2 ], %g1
40004b10:	80 a0 00 01 	cmp  %g0, %g1
40004b14:	98 40 20 00 	addx  %g0, 0, %o4
40004b18:	82 18 60 25 	xor  %g1, 0x25, %g1
40004b1c:	80 a0 00 01 	cmp  %g0, %g1
40004b20:	9a 40 20 00 	addx  %g0, 0, %o5
40004b24:	80 8b 00 0d 	btst  %o4, %o5
40004b28:	12 bf ff f8 	bne  40004b08 <_vfprintf_r+0xd0>
40004b2c:	c2 0e 80 00 	ldub  [ %i2 ], %g1
40004b30:	a2 a6 80 13 	subcc  %i2, %l3, %l1
40004b34:	02 80 00 12 	be  40004b7c <_vfprintf_r+0x144>
40004b38:	83 28 60 18 	sll  %g1, 0x18, %g1
40004b3c:	e2 24 a0 04 	st  %l1, [ %l2 + 4 ]
40004b40:	da 07 bf e4 	ld  [ %fp + -28 ], %o5
40004b44:	c2 07 bf e8 	ld  [ %fp + -24 ], %g1
40004b48:	9a 03 60 01 	inc  %o5
40004b4c:	e6 24 80 00 	st  %l3, [ %l2 ]
40004b50:	82 00 40 11 	add  %g1, %l1, %g1
40004b54:	c2 27 bf e8 	st  %g1, [ %fp + -24 ]
40004b58:	80 a3 60 07 	cmp  %o5, 7
40004b5c:	a4 04 a0 08 	add  %l2, 8, %l2
40004b60:	14 80 00 62 	bg  40004ce8 <_vfprintf_r+0x2b0>
40004b64:	da 27 bf e4 	st  %o5, [ %fp + -28 ]
40004b68:	c2 07 b8 f0 	ld  [ %fp + -1808 ], %g1
40004b6c:	82 00 40 11 	add  %g1, %l1, %g1
40004b70:	c2 27 b8 f0 	st  %g1, [ %fp + -1808 ]
40004b74:	c2 0e 80 00 	ldub  [ %i2 ], %g1
40004b78:	83 28 60 18 	sll  %g1, 0x18, %g1
40004b7c:	80 a0 60 00 	cmp  %g1, 0
40004b80:	02 80 06 50 	be  400064c0 <_vfprintf_r+0x1a88>
40004b84:	b4 06 a0 01 	inc  %i2
40004b88:	c0 2f b8 f7 	clrb  [ %fp + -1801 ]
40004b8c:	ba 10 20 00 	clr  %i5
40004b90:	b0 10 20 00 	clr  %i0
40004b94:	c0 27 b8 ec 	clr  [ %fp + -1812 ]
40004b98:	ac 10 3f ff 	mov  -1, %l6
40004b9c:	c2 0e 80 00 	ldub  [ %i2 ], %g1
40004ba0:	83 28 60 18 	sll  %g1, 0x18, %g1
40004ba4:	ab 38 60 18 	sra  %g1, 0x18, %l5
40004ba8:	b4 06 a0 01 	inc  %i2
40004bac:	82 05 7f e0 	add  %l5, -32, %g1
40004bb0:	80 a0 60 58 	cmp  %g1, 0x58
40004bb4:	18 80 01 8d 	bgu  400051e8 <_vfprintf_r+0x7b0>
40004bb8:	1b 10 00 12 	sethi  %hi(0x40004800), %o5
40004bbc:	83 28 60 02 	sll  %g1, 2, %g1
40004bc0:	9a 13 60 94 	or  %o5, 0x94, %o5
40004bc4:	d8 03 40 01 	ld  [ %o5 + %g1 ], %o4
40004bc8:	81 c3 00 00 	jmp  %o4
40004bcc:	01 00 00 00 	nop 
40004bd0:	40 00 08 5f 	call  40006d4c <__swsetup>
40004bd4:	90 10 00 19 	mov  %i1, %o0
40004bd8:	80 a2 20 00 	cmp  %o0, 0
40004bdc:	32 80 05 fc 	bne,a   400063cc <_vfprintf_r+0x1994>
40004be0:	c2 16 60 0c 	lduh  [ %i1 + 0xc ], %g1
40004be4:	d8 16 60 0c 	lduh  [ %i1 + 0xc ], %o4
40004be8:	83 2b 20 10 	sll  %o4, 0x10, %g1
40004bec:	97 30 60 10 	srl  %g1, 0x10, %o3
40004bf0:	9a 0a e0 1a 	and  %o3, 0x1a, %o5
40004bf4:	80 a3 60 0a 	cmp  %o5, 0xa
40004bf8:	12 bf ff b5 	bne  40004acc <_vfprintf_r+0x94>
40004bfc:	b8 07 bf a0 	add  %fp, -96, %i4
40004c00:	c2 56 60 0e 	ldsh  [ %i1 + 0xe ], %g1
40004c04:	80 a0 60 00 	cmp  %g1, 0
40004c08:	06 bf ff b0 	bl  40004ac8 <_vfprintf_r+0x90>
40004c0c:	d2 16 60 0e 	lduh  [ %i1 + 0xe ], %o1
40004c10:	80 8a e2 00 	btst  0x200, %o3
40004c14:	02 80 02 68 	be  400055b4 <_vfprintf_r+0xb7c>
40004c18:	01 00 00 00 	nop 
40004c1c:	82 07 b9 68 	add  %fp, -1688, %g1
40004c20:	9a 10 24 00 	mov  0x400, %o5
40004c24:	98 0b 3f fd 	and  %o4, -3, %o4
40004c28:	d6 06 60 1c 	ld  [ %i1 + 0x1c ], %o3
40004c2c:	d4 06 60 24 	ld  [ %i1 + 0x24 ], %o2
40004c30:	a0 07 b9 58 	add  %fp, -1704, %l0
40004c34:	d8 37 bd 74 	sth  %o4, [ %fp + -652 ]
40004c38:	d6 27 bd 84 	st  %o3, [ %fp + -636 ]
40004c3c:	d4 27 bd 8c 	st  %o2, [ %fp + -628 ]
40004c40:	c2 27 bd 78 	st  %g1, [ %fp + -648 ]
40004c44:	da 27 bd 7c 	st  %o5, [ %fp + -644 ]
40004c48:	c2 27 bd 68 	st  %g1, [ %fp + -664 ]
40004c4c:	da 27 bd 70 	st  %o5, [ %fp + -656 ]
40004c50:	d2 37 bd 76 	sth  %o1, [ %fp + -650 ]
40004c54:	90 10 00 10 	mov  %l0, %o0
40004c58:	40 00 1b 4b 	call  4000b984 <___st_pthread_mutexattr_init>
40004c5c:	c0 27 bd 80 	clr  [ %fp + -640 ]
40004c60:	90 10 00 10 	mov  %l0, %o0
40004c64:	40 00 1b 60 	call  4000b9e4 <___st_pthread_mutexattr_settype>
40004c68:	92 10 20 01 	mov  1, %o1
40004c6c:	a2 07 bd c0 	add  %fp, -576, %l1
40004c70:	92 10 00 10 	mov  %l0, %o1
40004c74:	40 00 1b 07 	call  4000b890 <___st_pthread_mutex_init>
40004c78:	90 10 00 11 	mov  %l1, %o0
40004c7c:	40 00 1b 4e 	call  4000b9b4 <___st_pthread_mutexattr_destroy>
40004c80:	90 10 00 10 	mov  %l0, %o0
40004c84:	a0 07 bd 68 	add  %fp, -664, %l0
40004c88:	d0 07 a0 44 	ld  [ %fp + 0x44 ], %o0
40004c8c:	92 10 00 10 	mov  %l0, %o1
40004c90:	94 10 00 1a 	mov  %i2, %o2
40004c94:	7f ff ff 69 	call  40004a38 <_vfprintf_r>
40004c98:	96 10 00 1b 	mov  %i3, %o3
40004c9c:	b0 92 20 00 	orcc  %o0, 0, %i0
40004ca0:	06 80 00 08 	bl  40004cc0 <_vfprintf_r+0x288>
40004ca4:	c2 17 bd 74 	lduh  [ %fp + -652 ], %g1
40004ca8:	40 00 0d e8 	call  40008448 <fflush>
40004cac:	90 10 00 10 	mov  %l0, %o0
40004cb0:	80 a2 20 00 	cmp  %o0, 0
40004cb4:	32 80 00 02 	bne,a   40004cbc <_vfprintf_r+0x284>
40004cb8:	b0 10 3f ff 	mov  -1, %i0
40004cbc:	c2 17 bd 74 	lduh  [ %fp + -652 ], %g1
40004cc0:	80 88 60 40 	btst  0x40, %g1
40004cc4:	02 80 00 05 	be  40004cd8 <_vfprintf_r+0x2a0>
40004cc8:	01 00 00 00 	nop 
40004ccc:	c2 16 60 0c 	lduh  [ %i1 + 0xc ], %g1
40004cd0:	82 10 60 40 	or  %g1, 0x40, %g1
40004cd4:	c2 36 60 0c 	sth  %g1, [ %i1 + 0xc ]
40004cd8:	40 00 1a fb 	call  4000b8c4 <___st_pthread_mutex_destroy>
40004cdc:	90 10 00 11 	mov  %l1, %o0
40004ce0:	10 80 06 35 	b  400065b4 <_vfprintf_r+0x1b7c>
40004ce4:	90 10 00 18 	mov  %i0, %o0
40004ce8:	90 10 00 19 	mov  %i1, %o0
40004cec:	7f ff ff 43 	call  400049f8 <__sprint>
40004cf0:	92 07 bf e0 	add  %fp, -32, %o1
40004cf4:	80 a2 20 00 	cmp  %o0, 0
40004cf8:	12 80 03 05 	bne  4000590c <_vfprintf_r+0xed4>
40004cfc:	a4 10 00 1c 	mov  %i4, %l2
40004d00:	10 bf ff 9b 	b  40004b6c <_vfprintf_r+0x134>
40004d04:	c2 07 b8 f0 	ld  [ %fp + -1808 ], %g1
40004d08:	40 00 1a fb 	call  4000b8f4 <___st_pthread_mutex_lock>
40004d0c:	90 06 60 58 	add  %i1, 0x58, %o0
40004d10:	10 bf ff 59 	b  40004a74 <_vfprintf_r+0x3c>
40004d14:	03 10 00 36 	sethi  %hi(0x4000d800), %g1
40004d18:	ba 17 60 10 	or  %i5, 0x10, %i5
40004d1c:	80 8f 60 10 	btst  0x10, %i5
40004d20:	12 80 03 41 	bne  40005a24 <_vfprintf_r+0xfec>
40004d24:	82 10 00 1b 	mov  %i3, %g1
40004d28:	80 8f 60 40 	btst  0x40, %i5
40004d2c:	22 80 03 3f 	be,a   40005a28 <_vfprintf_r+0xff0>
40004d30:	b6 06 e0 04 	add  %i3, 4, %i3
40004d34:	82 10 00 1b 	mov  %i3, %g1
40004d38:	b6 06 e0 04 	add  %i3, 4, %i3
40004d3c:	d8 10 60 02 	lduh  [ %g1 + 2 ], %o4
40004d40:	96 10 20 01 	mov  1, %o3
40004d44:	10 80 00 1d 	b  40004db8 <_vfprintf_r+0x380>
40004d48:	c0 2f b8 f7 	clrb  [ %fp + -1801 ]
40004d4c:	ba 17 60 10 	or  %i5, 0x10, %i5
40004d50:	80 8f 60 10 	btst  0x10, %i5
40004d54:	12 80 03 38 	bne  40005a34 <_vfprintf_r+0xffc>
40004d58:	82 10 00 1b 	mov  %i3, %g1
40004d5c:	80 8f 60 40 	btst  0x40, %i5
40004d60:	22 80 03 36 	be,a   40005a38 <_vfprintf_r+0x1000>
40004d64:	b6 06 e0 04 	add  %i3, 4, %i3
40004d68:	82 10 00 1b 	mov  %i3, %g1
40004d6c:	b6 06 e0 04 	add  %i3, 4, %i3
40004d70:	d8 10 60 02 	lduh  [ %g1 + 2 ], %o4
40004d74:	96 10 20 00 	clr  %o3
40004d78:	10 80 00 10 	b  40004db8 <_vfprintf_r+0x380>
40004d7c:	c0 2f b8 f7 	clrb  [ %fp + -1801 ]
40004d80:	ba 17 60 10 	or  %i5, 0x10, %i5
40004d84:	80 8f 60 10 	btst  0x10, %i5
40004d88:	12 80 03 24 	bne  40005a18 <_vfprintf_r+0xfe0>
40004d8c:	82 10 00 1b 	mov  %i3, %g1
40004d90:	80 8f 60 40 	btst  0x40, %i5
40004d94:	22 80 03 22 	be,a   40005a1c <_vfprintf_r+0xfe4>
40004d98:	b6 06 e0 04 	add  %i3, 4, %i3
40004d9c:	82 10 00 1b 	mov  %i3, %g1
40004da0:	b6 06 e0 04 	add  %i3, 4, %i3
40004da4:	d8 50 60 02 	ldsh  [ %g1 + 2 ], %o4
40004da8:	80 a3 20 00 	cmp  %o4, 0
40004dac:	06 80 01 fb 	bl  40005598 <_vfprintf_r+0xb60>
40004db0:	82 10 20 2d 	mov  0x2d, %g1
40004db4:	96 10 20 01 	mov  1, %o3
40004db8:	b0 95 a0 00 	orcc  %l6, 0, %i0
40004dbc:	36 80 00 02 	bge,a   40004dc4 <_vfprintf_r+0x38c>
40004dc0:	ba 0f 7f 7f 	and  %i5, -129, %i5
40004dc4:	80 a0 00 0c 	cmp  %g0, %o4
40004dc8:	9a 40 20 00 	addx  %g0, 0, %o5
40004dcc:	80 a0 00 18 	cmp  %g0, %i0
40004dd0:	82 40 20 00 	addx  %g0, 0, %g1
40004dd4:	80 93 40 01 	orcc  %o5, %g1, %g0
40004dd8:	02 80 02 bb 	be  400058c4 <_vfprintf_r+0xe8c>
40004ddc:	a6 07 bf 9c 	add  %fp, -100, %l3
40004de0:	82 0a e0 ff 	and  %o3, 0xff, %g1
40004de4:	80 a0 60 01 	cmp  %g1, 1
40004de8:	22 80 03 4a 	be,a   40005b10 <_vfprintf_r+0x10d8>
40004dec:	80 a3 20 09 	cmp  %o4, 9
40004df0:	04 80 03 96 	ble  40005c48 <_vfprintf_r+0x1210>
40004df4:	80 a0 60 02 	cmp  %g1, 2
40004df8:	02 80 00 e6 	be  40005190 <_vfprintf_r+0x758>
40004dfc:	82 0b 20 0f 	and  %o4, 0xf, %g1
40004e00:	03 10 00 32 	sethi  %hi(0x4000c800), %g1
40004e04:	a6 10 63 78 	or  %g1, 0x378, %l3	! 4000cb78 <zeroes.1+0x10>
40004e08:	7f ff fe 8a 	call  40004830 <strlen>
40004e0c:	90 10 00 13 	mov  %l3, %o0
40004e10:	a8 10 00 08 	mov  %o0, %l4
40004e14:	80 a5 00 18 	cmp  %l4, %i0
40004e18:	16 80 00 03 	bge  40004e24 <_vfprintf_r+0x3ec>
40004e1c:	ac 10 00 14 	mov  %l4, %l6
40004e20:	ac 10 00 18 	mov  %i0, %l6
40004e24:	c2 4f b8 f7 	ldsb  [ %fp + -1801 ], %g1
40004e28:	80 a0 60 00 	cmp  %g1, 0
40004e2c:	02 80 01 e7 	be  400055c8 <_vfprintf_r+0xb90>
40004e30:	c2 0f b8 f7 	ldub  [ %fp + -1801 ], %g1
40004e34:	ac 05 a0 01 	inc  %l6
40004e38:	ae 8f 60 84 	andcc  %i5, 0x84, %l7
40004e3c:	32 80 00 33 	bne,a   40004f08 <_vfprintf_r+0x4d0>
40004e40:	83 28 60 18 	sll  %g1, 0x18, %g1
40004e44:	d2 07 b8 ec 	ld  [ %fp + -1812 ], %o1
40004e48:	a0 22 40 16 	sub  %o1, %l6, %l0
40004e4c:	80 a4 20 00 	cmp  %l0, 0
40004e50:	04 80 00 2d 	ble  40004f04 <_vfprintf_r+0x4cc>
40004e54:	80 a4 20 10 	cmp  %l0, 0x10
40004e58:	04 80 00 1d 	ble  40004ecc <_vfprintf_r+0x494>
40004e5c:	17 10 00 32 	sethi  %hi(0x4000c800), %o3
40004e60:	10 80 00 06 	b  40004e78 <_vfprintf_r+0x440>
40004e64:	a2 12 e3 58 	or  %o3, 0x358, %l1	! 4000cb58 <blanks.0>
40004e68:	a0 04 3f f0 	add  %l0, -16, %l0
40004e6c:	80 a4 20 10 	cmp  %l0, 0x10
40004e70:	04 80 00 18 	ble  40004ed0 <_vfprintf_r+0x498>
40004e74:	19 10 00 32 	sethi  %hi(0x4000c800), %o4
40004e78:	82 10 20 10 	mov  0x10, %g1
40004e7c:	c2 24 a0 04 	st  %g1, [ %l2 + 4 ]
40004e80:	da 07 bf e4 	ld  [ %fp + -28 ], %o5
40004e84:	c2 07 bf e8 	ld  [ %fp + -24 ], %g1
40004e88:	9a 03 60 01 	inc  %o5
40004e8c:	e2 24 80 00 	st  %l1, [ %l2 ]
40004e90:	82 00 60 10 	add  %g1, 0x10, %g1
40004e94:	c2 27 bf e8 	st  %g1, [ %fp + -24 ]
40004e98:	80 a3 60 07 	cmp  %o5, 7
40004e9c:	a4 04 a0 08 	add  %l2, 8, %l2
40004ea0:	04 bf ff f2 	ble  40004e68 <_vfprintf_r+0x430>
40004ea4:	da 27 bf e4 	st  %o5, [ %fp + -28 ]
40004ea8:	90 10 00 19 	mov  %i1, %o0
40004eac:	7f ff fe d3 	call  400049f8 <__sprint>
40004eb0:	92 07 bf e0 	add  %fp, -32, %o1
40004eb4:	80 a2 20 00 	cmp  %o0, 0
40004eb8:	12 80 02 95 	bne  4000590c <_vfprintf_r+0xed4>
40004ebc:	a0 04 3f f0 	add  %l0, -16, %l0
40004ec0:	80 a4 20 10 	cmp  %l0, 0x10
40004ec4:	14 bf ff ed 	bg  40004e78 <_vfprintf_r+0x440>
40004ec8:	a4 10 00 1c 	mov  %i4, %l2
40004ecc:	19 10 00 32 	sethi  %hi(0x4000c800), %o4
40004ed0:	82 13 23 58 	or  %o4, 0x358, %g1	! 4000cb58 <blanks.0>
40004ed4:	e0 24 a0 04 	st  %l0, [ %l2 + 4 ]
40004ed8:	c2 24 80 00 	st  %g1, [ %l2 ]
40004edc:	da 07 bf e8 	ld  [ %fp + -24 ], %o5
40004ee0:	c2 07 bf e4 	ld  [ %fp + -28 ], %g1
40004ee4:	82 00 60 01 	inc  %g1
40004ee8:	9a 03 40 10 	add  %o5, %l0, %o5
40004eec:	da 27 bf e8 	st  %o5, [ %fp + -24 ]
40004ef0:	80 a0 60 07 	cmp  %g1, 7
40004ef4:	a4 04 a0 08 	add  %l2, 8, %l2
40004ef8:	14 80 02 6b 	bg  400058a4 <_vfprintf_r+0xe6c>
40004efc:	c2 27 bf e4 	st  %g1, [ %fp + -28 ]
40004f00:	c2 0f b8 f7 	ldub  [ %fp + -1801 ], %g1
40004f04:	83 28 60 18 	sll  %g1, 0x18, %g1
40004f08:	80 a0 60 00 	cmp  %g1, 0
40004f0c:	02 80 01 b4 	be  400055dc <_vfprintf_r+0xba4>
40004f10:	80 8f 60 02 	btst  2, %i5
40004f14:	82 10 20 01 	mov  1, %g1
40004f18:	c2 24 a0 04 	st  %g1, [ %l2 + 4 ]
40004f1c:	d8 07 bf e4 	ld  [ %fp + -28 ], %o4
40004f20:	c2 07 bf e8 	ld  [ %fp + -24 ], %g1
40004f24:	9a 07 b8 f7 	add  %fp, -1801, %o5
40004f28:	98 03 20 01 	inc  %o4
40004f2c:	da 24 80 00 	st  %o5, [ %l2 ]
40004f30:	82 00 60 01 	inc  %g1
40004f34:	c2 27 bf e8 	st  %g1, [ %fp + -24 ]
40004f38:	80 a3 20 07 	cmp  %o4, 7
40004f3c:	a4 04 a0 08 	add  %l2, 8, %l2
40004f40:	14 80 01 b9 	bg  40005624 <_vfprintf_r+0xbec>
40004f44:	d8 27 bf e4 	st  %o4, [ %fp + -28 ]
40004f48:	80 a5 e0 80 	cmp  %l7, 0x80
40004f4c:	02 80 01 bf 	be  40005648 <_vfprintf_r+0xc10>
40004f50:	da 07 b8 ec 	ld  [ %fp + -1812 ], %o5
40004f54:	a0 26 00 14 	sub  %i0, %l4, %l0
40004f58:	80 a4 20 00 	cmp  %l0, 0
40004f5c:	04 80 00 31 	ble  40005020 <_vfprintf_r+0x5e8>
40004f60:	80 a4 20 10 	cmp  %l0, 0x10
40004f64:	04 80 00 1d 	ble  40004fd8 <_vfprintf_r+0x5a0>
40004f68:	2f 10 00 32 	sethi  %hi(0x4000c800), %l7
40004f6c:	10 80 00 06 	b  40004f84 <_vfprintf_r+0x54c>
40004f70:	a2 15 e3 68 	or  %l7, 0x368, %l1	! 4000cb68 <zeroes.1>
40004f74:	a0 04 3f f0 	add  %l0, -16, %l0
40004f78:	80 a4 20 10 	cmp  %l0, 0x10
40004f7c:	04 80 00 18 	ble  40004fdc <_vfprintf_r+0x5a4>
40004f80:	82 15 e3 68 	or  %l7, 0x368, %g1
40004f84:	82 10 20 10 	mov  0x10, %g1
40004f88:	c2 24 a0 04 	st  %g1, [ %l2 + 4 ]
40004f8c:	da 07 bf e4 	ld  [ %fp + -28 ], %o5
40004f90:	c2 07 bf e8 	ld  [ %fp + -24 ], %g1
40004f94:	9a 03 60 01 	inc  %o5
40004f98:	e2 24 80 00 	st  %l1, [ %l2 ]
40004f9c:	82 00 60 10 	add  %g1, 0x10, %g1
40004fa0:	c2 27 bf e8 	st  %g1, [ %fp + -24 ]
40004fa4:	80 a3 60 07 	cmp  %o5, 7
40004fa8:	a4 04 a0 08 	add  %l2, 8, %l2
40004fac:	04 bf ff f2 	ble  40004f74 <_vfprintf_r+0x53c>
40004fb0:	da 27 bf e4 	st  %o5, [ %fp + -28 ]
40004fb4:	90 10 00 19 	mov  %i1, %o0
40004fb8:	7f ff fe 90 	call  400049f8 <__sprint>
40004fbc:	92 07 bf e0 	add  %fp, -32, %o1
40004fc0:	80 a2 20 00 	cmp  %o0, 0
40004fc4:	12 80 02 52 	bne  4000590c <_vfprintf_r+0xed4>
40004fc8:	a0 04 3f f0 	add  %l0, -16, %l0
40004fcc:	80 a4 20 10 	cmp  %l0, 0x10
40004fd0:	14 bf ff ed 	bg  40004f84 <_vfprintf_r+0x54c>
40004fd4:	a4 10 00 1c 	mov  %i4, %l2
40004fd8:	82 15 e3 68 	or  %l7, 0x368, %g1
40004fdc:	e0 24 a0 04 	st  %l0, [ %l2 + 4 ]
40004fe0:	c2 24 80 00 	st  %g1, [ %l2 ]
40004fe4:	da 07 bf e8 	ld  [ %fp + -24 ], %o5
40004fe8:	c2 07 bf e4 	ld  [ %fp + -28 ], %g1
40004fec:	82 00 60 01 	inc  %g1
40004ff0:	9a 03 40 10 	add  %o5, %l0, %o5
40004ff4:	da 27 bf e8 	st  %o5, [ %fp + -24 ]
40004ff8:	80 a0 60 07 	cmp  %g1, 7
40004ffc:	a4 04 a0 08 	add  %l2, 8, %l2
40005000:	04 80 00 08 	ble  40005020 <_vfprintf_r+0x5e8>
40005004:	c2 27 bf e4 	st  %g1, [ %fp + -28 ]
40005008:	90 10 00 19 	mov  %i1, %o0
4000500c:	7f ff fe 7b 	call  400049f8 <__sprint>
40005010:	92 07 bf e0 	add  %fp, -32, %o1
40005014:	80 a2 20 00 	cmp  %o0, 0
40005018:	12 80 02 3d 	bne  4000590c <_vfprintf_r+0xed4>
4000501c:	a4 10 00 1c 	mov  %i4, %l2
40005020:	80 8f 61 00 	btst  0x100, %i5
40005024:	12 80 01 be 	bne  4000571c <_vfprintf_r+0xce4>
40005028:	80 a5 60 65 	cmp  %l5, 0x65
4000502c:	e8 24 a0 04 	st  %l4, [ %l2 + 4 ]
40005030:	c2 07 bf e8 	ld  [ %fp + -24 ], %g1
40005034:	e6 24 80 00 	st  %l3, [ %l2 ]
40005038:	82 00 40 14 	add  %g1, %l4, %g1
4000503c:	da 07 bf e4 	ld  [ %fp + -28 ], %o5
40005040:	9a 03 60 01 	inc  %o5
40005044:	c2 27 bf e8 	st  %g1, [ %fp + -24 ]
40005048:	80 a3 60 07 	cmp  %o5, 7
4000504c:	a4 04 a0 08 	add  %l2, 8, %l2
40005050:	da 27 bf e4 	st  %o5, [ %fp + -28 ]
40005054:	14 80 02 0d 	bg  40005888 <_vfprintf_r+0xe50>
40005058:	90 10 00 19 	mov  %i1, %o0
4000505c:	80 8f 60 04 	btst  4, %i5
40005060:	22 80 00 37 	be,a   4000513c <_vfprintf_r+0x704>
40005064:	d2 07 b8 ec 	ld  [ %fp + -1812 ], %o1
40005068:	d6 07 b8 ec 	ld  [ %fp + -1812 ], %o3
4000506c:	a0 22 c0 16 	sub  %o3, %l6, %l0
40005070:	80 a4 20 00 	cmp  %l0, 0
40005074:	04 80 00 31 	ble  40005138 <_vfprintf_r+0x700>
40005078:	80 a4 20 10 	cmp  %l0, 0x10
4000507c:	04 80 00 1d 	ble  400050f0 <_vfprintf_r+0x6b8>
40005080:	19 10 00 32 	sethi  %hi(0x4000c800), %o4
40005084:	10 80 00 06 	b  4000509c <_vfprintf_r+0x664>
40005088:	a2 13 23 58 	or  %o4, 0x358, %l1	! 4000cb58 <blanks.0>
4000508c:	a0 04 3f f0 	add  %l0, -16, %l0
40005090:	80 a4 20 10 	cmp  %l0, 0x10
40005094:	24 80 00 18 	ble,a   400050f4 <_vfprintf_r+0x6bc>
40005098:	e0 24 a0 04 	st  %l0, [ %l2 + 4 ]
4000509c:	82 10 20 10 	mov  0x10, %g1
400050a0:	c2 24 a0 04 	st  %g1, [ %l2 + 4 ]
400050a4:	da 07 bf e4 	ld  [ %fp + -28 ], %o5
400050a8:	c2 07 bf e8 	ld  [ %fp + -24 ], %g1
400050ac:	9a 03 60 01 	inc  %o5
400050b0:	e2 24 80 00 	st  %l1, [ %l2 ]
400050b4:	82 00 60 10 	add  %g1, 0x10, %g1
400050b8:	c2 27 bf e8 	st  %g1, [ %fp + -24 ]
400050bc:	80 a3 60 07 	cmp  %o5, 7
400050c0:	a4 04 a0 08 	add  %l2, 8, %l2
400050c4:	04 bf ff f2 	ble  4000508c <_vfprintf_r+0x654>
400050c8:	da 27 bf e4 	st  %o5, [ %fp + -28 ]
400050cc:	90 10 00 19 	mov  %i1, %o0
400050d0:	7f ff fe 4a 	call  400049f8 <__sprint>
400050d4:	92 07 bf e0 	add  %fp, -32, %o1
400050d8:	80 a2 20 00 	cmp  %o0, 0
400050dc:	12 80 02 0c 	bne  4000590c <_vfprintf_r+0xed4>
400050e0:	a0 04 3f f0 	add  %l0, -16, %l0
400050e4:	80 a4 20 10 	cmp  %l0, 0x10
400050e8:	14 bf ff ed 	bg  4000509c <_vfprintf_r+0x664>
400050ec:	a4 10 00 1c 	mov  %i4, %l2
400050f0:	e0 24 a0 04 	st  %l0, [ %l2 + 4 ]
400050f4:	d8 07 bf e8 	ld  [ %fp + -24 ], %o4
400050f8:	da 07 bf e4 	ld  [ %fp + -28 ], %o5
400050fc:	11 10 00 32 	sethi  %hi(0x4000c800), %o0
40005100:	9a 03 60 01 	inc  %o5
40005104:	98 03 00 10 	add  %o4, %l0, %o4
40005108:	82 12 23 58 	or  %o0, 0x358, %g1
4000510c:	c2 24 80 00 	st  %g1, [ %l2 ]
40005110:	d8 27 bf e8 	st  %o4, [ %fp + -24 ]
40005114:	80 a3 60 07 	cmp  %o5, 7
40005118:	04 80 00 08 	ble  40005138 <_vfprintf_r+0x700>
4000511c:	da 27 bf e4 	st  %o5, [ %fp + -28 ]
40005120:	90 10 00 19 	mov  %i1, %o0
40005124:	7f ff fe 35 	call  400049f8 <__sprint>
40005128:	92 07 bf e0 	add  %fp, -32, %o1
4000512c:	80 a2 20 00 	cmp  %o0, 0
40005130:	12 80 01 f8 	bne  40005910 <_vfprintf_r+0xed8>
40005134:	da 07 b8 d4 	ld  [ %fp + -1836 ], %o5
40005138:	d2 07 b8 ec 	ld  [ %fp + -1812 ], %o1
4000513c:	80 a5 80 09 	cmp  %l6, %o1
40005140:	16 80 00 03 	bge  4000514c <_vfprintf_r+0x714>
40005144:	82 10 00 16 	mov  %l6, %g1
40005148:	82 10 00 09 	mov  %o1, %g1
4000514c:	d6 07 b8 f0 	ld  [ %fp + -1808 ], %o3
40005150:	96 02 c0 01 	add  %o3, %g1, %o3
40005154:	c2 07 bf e8 	ld  [ %fp + -24 ], %g1
40005158:	80 a0 60 00 	cmp  %g1, 0
4000515c:	12 80 01 e6 	bne  400058f4 <_vfprintf_r+0xebc>
40005160:	d6 27 b8 f0 	st  %o3, [ %fp + -1808 ]
40005164:	d8 07 b8 d4 	ld  [ %fp + -1836 ], %o4
40005168:	c0 27 bf e4 	clr  [ %fp + -28 ]
4000516c:	80 a3 20 00 	cmp  %o4, 0
40005170:	02 bf fe 5c 	be  40004ae0 <_vfprintf_r+0xa8>
40005174:	a4 10 00 1c 	mov  %i4, %l2
40005178:	92 10 00 0c 	mov  %o4, %o1
4000517c:	40 00 0e 1f 	call  400089f8 <_free_r>
40005180:	d0 07 a0 44 	ld  [ %fp + 0x44 ], %o0
40005184:	10 bf fe 57 	b  40004ae0 <_vfprintf_r+0xa8>
40005188:	c0 27 b8 d4 	clr  [ %fp + -1836 ]
4000518c:	82 0b 20 0f 	and  %o4, 0xf, %g1
40005190:	d0 07 b8 d8 	ld  [ %fp + -1832 ], %o0
40005194:	a6 04 ff ff 	add  %l3, -1, %l3
40005198:	da 08 40 08 	ldub  [ %g1 + %o0 ], %o5
4000519c:	99 33 20 04 	srl  %o4, 4, %o4
400051a0:	80 a3 20 00 	cmp  %o4, 0
400051a4:	12 bf ff fa 	bne  4000518c <_vfprintf_r+0x754>
400051a8:	da 2c c0 00 	stb  %o5, [ %l3 ]
400051ac:	82 27 80 13 	sub  %fp, %l3, %g1
400051b0:	10 bf ff 19 	b  40004e14 <_vfprintf_r+0x3dc>
400051b4:	a8 00 7f 9c 	add  %g1, -100, %l4
400051b8:	c2 06 c0 00 	ld  [ %i3 ], %g1
400051bc:	c2 27 b8 ec 	st  %g1, [ %fp + -1812 ]
400051c0:	80 a0 60 00 	cmp  %g1, 0
400051c4:	16 bf fe 76 	bge  40004b9c <_vfprintf_r+0x164>
400051c8:	b6 06 e0 04 	add  %i3, 4, %i3
400051cc:	82 20 00 01 	neg  %g1
400051d0:	c2 27 b8 ec 	st  %g1, [ %fp + -1812 ]
400051d4:	10 bf fe 72 	b  40004b9c <_vfprintf_r+0x164>
400051d8:	ba 17 60 04 	or  %i5, 4, %i5
400051dc:	b4 06 a0 01 	inc  %i2
400051e0:	10 bf fe 6f 	b  40004b9c <_vfprintf_r+0x164>
400051e4:	ba 17 60 10 	or  %i5, 0x10, %i5
400051e8:	80 a5 60 00 	cmp  %l5, 0
400051ec:	02 80 04 b5 	be  400064c0 <_vfprintf_r+0x1a88>
400051f0:	a6 07 be 40 	add  %fp, -448, %l3
400051f4:	ea 2f be 40 	stb  %l5, [ %fp + -448 ]
400051f8:	c0 2f b8 f7 	clrb  [ %fp + -1801 ]
400051fc:	10 bf ff 06 	b  40004e14 <_vfprintf_r+0x3dc>
40005200:	a8 10 20 01 	mov  1, %l4
40005204:	03 10 00 32 	sethi  %hi(0x4000c800), %g1
40005208:	82 10 63 98 	or  %g1, 0x398, %g1	! 4000cb98 <zeroes.1+0x30>
4000520c:	80 8f 60 10 	btst  0x10, %i5
40005210:	12 80 00 d1 	bne  40005554 <_vfprintf_r+0xb1c>
40005214:	c2 27 b8 d8 	st  %g1, [ %fp + -1832 ]
40005218:	80 8f 60 40 	btst  0x40, %i5
4000521c:	02 80 00 cf 	be  40005558 <_vfprintf_r+0xb20>
40005220:	82 10 00 1b 	mov  %i3, %g1
40005224:	b6 06 e0 04 	add  %i3, 4, %i3
40005228:	d8 10 60 02 	lduh  [ %g1 + 2 ], %o4
4000522c:	80 a0 00 0c 	cmp  %g0, %o4
40005230:	82 40 20 00 	addx  %g0, 0, %g1
40005234:	80 8f 40 01 	btst  %i5, %g1
40005238:	02 bf fe c3 	be  40004d44 <_vfprintf_r+0x30c>
4000523c:	96 10 20 02 	mov  2, %o3
40005240:	ba 17 60 02 	or  %i5, 2, %i5
40005244:	10 bf fe dd 	b  40004db8 <_vfprintf_r+0x380>
40005248:	c0 2f b8 f7 	clrb  [ %fp + -1801 ]
4000524c:	c2 4e 80 00 	ldsb  [ %i2 ], %g1
40005250:	80 a0 60 6c 	cmp  %g1, 0x6c
40005254:	02 bf ff e2 	be  400051dc <_vfprintf_r+0x7a4>
40005258:	c2 0e 80 00 	ldub  [ %i2 ], %g1
4000525c:	10 bf fe 51 	b  40004ba0 <_vfprintf_r+0x168>
40005260:	ba 17 60 10 	or  %i5, 0x10, %i5
40005264:	a0 10 20 00 	clr  %l0
40005268:	83 2c 20 02 	sll  %l0, 2, %g1
4000526c:	82 00 40 10 	add  %g1, %l0, %g1
40005270:	82 00 40 01 	add  %g1, %g1, %g1
40005274:	82 00 40 15 	add  %g1, %l5, %g1
40005278:	ea 4e 80 00 	ldsb  [ %i2 ], %l5
4000527c:	9a 05 7f d0 	add  %l5, -48, %o5
40005280:	80 a3 60 09 	cmp  %o5, 9
40005284:	a0 00 7f d0 	add  %g1, -48, %l0
40005288:	08 bf ff f8 	bleu  40005268 <_vfprintf_r+0x830>
4000528c:	b4 06 a0 01 	inc  %i2
40005290:	10 bf fe 47 	b  40004bac <_vfprintf_r+0x174>
40005294:	e0 27 b8 ec 	st  %l0, [ %fp + -1812 ]
40005298:	ea 4e 80 00 	ldsb  [ %i2 ], %l5
4000529c:	80 a5 60 2a 	cmp  %l5, 0x2a
400052a0:	02 80 04 bf 	be  4000659c <_vfprintf_r+0x1b64>
400052a4:	b4 06 a0 01 	inc  %i2
400052a8:	82 05 7f d0 	add  %l5, -48, %g1
400052ac:	80 a0 60 09 	cmp  %g1, 9
400052b0:	18 80 00 0c 	bgu  400052e0 <_vfprintf_r+0x8a8>
400052b4:	a0 10 20 00 	clr  %l0
400052b8:	83 2c 20 02 	sll  %l0, 2, %g1
400052bc:	82 00 40 10 	add  %g1, %l0, %g1
400052c0:	82 00 40 01 	add  %g1, %g1, %g1
400052c4:	82 00 40 15 	add  %g1, %l5, %g1
400052c8:	ea 4e 80 00 	ldsb  [ %i2 ], %l5
400052cc:	9a 05 7f d0 	add  %l5, -48, %o5
400052d0:	80 a3 60 09 	cmp  %o5, 9
400052d4:	a0 00 7f d0 	add  %g1, -48, %l0
400052d8:	08 bf ff f8 	bleu  400052b8 <_vfprintf_r+0x880>
400052dc:	b4 06 a0 01 	inc  %i2
400052e0:	80 a4 3f ff 	cmp  %l0, -1
400052e4:	16 bf fe 32 	bge  40004bac <_vfprintf_r+0x174>
400052e8:	ac 10 00 10 	mov  %l0, %l6
400052ec:	10 bf fe 30 	b  40004bac <_vfprintf_r+0x174>
400052f0:	ac 10 3f ff 	mov  -1, %l6
400052f4:	9a 10 00 1b 	mov  %i3, %o5
400052f8:	03 10 00 32 	sethi  %hi(0x4000c800), %g1
400052fc:	d8 03 40 00 	ld  [ %o5 ], %o4
40005300:	82 10 63 98 	or  %g1, 0x398, %g1
40005304:	b6 06 e0 04 	add  %i3, 4, %i3
40005308:	c2 27 b8 d8 	st  %g1, [ %fp + -1832 ]
4000530c:	ba 17 60 02 	or  %i5, 2, %i5
40005310:	96 10 20 02 	mov  2, %o3
40005314:	aa 10 20 78 	mov  0x78, %l5
40005318:	10 bf fe a8 	b  40004db8 <_vfprintf_r+0x380>
4000531c:	c0 2f b8 f7 	clrb  [ %fp + -1801 ]
40005320:	e6 06 c0 00 	ld  [ %i3 ], %l3
40005324:	c0 2f b8 f7 	clrb  [ %fp + -1801 ]
40005328:	80 a4 e0 00 	cmp  %l3, 0
4000532c:	02 80 03 d4 	be  4000627c <_vfprintf_r+0x1844>
40005330:	b6 06 e0 04 	add  %i3, 4, %i3
40005334:	80 a5 60 53 	cmp  %l5, 0x53
40005338:	02 80 00 04 	be  40005348 <_vfprintf_r+0x910>
4000533c:	80 8f 60 10 	btst  0x10, %i5
40005340:	02 80 03 63 	be  400060cc <_vfprintf_r+0x1694>
40005344:	80 a5 a0 00 	cmp  %l6, 0
40005348:	ae 07 b9 10 	add  %fp, -1776, %l7
4000534c:	e6 27 b8 f8 	st  %l3, [ %fp + -1800 ]
40005350:	90 10 00 17 	mov  %l7, %o0
40005354:	92 10 20 00 	clr  %o1
40005358:	40 00 11 03 	call  40009764 <memset>
4000535c:	94 10 20 08 	mov  8, %o2
40005360:	80 a5 a0 00 	cmp  %l6, 0
40005364:	a2 10 20 00 	clr  %l1
40005368:	06 80 04 34 	bl  40006438 <_vfprintf_r+0x1a00>
4000536c:	a8 10 20 00 	clr  %l4
40005370:	9b 2c 60 02 	sll  %l1, 2, %o5
40005374:	c2 07 b8 f8 	ld  [ %fp + -1800 ], %g1
40005378:	d4 00 40 0d 	ld  [ %g1 + %o5 ], %o2
4000537c:	80 a2 a0 00 	cmp  %o2, 0
40005380:	02 80 00 0e 	be  400053b8 <_vfprintf_r+0x980>
40005384:	d0 07 a0 44 	ld  [ %fp + 0x44 ], %o0
40005388:	92 07 be 40 	add  %fp, -448, %o1
4000538c:	40 00 04 e2 	call  40006714 <_wcrtomb_r>
40005390:	96 10 00 17 	mov  %l7, %o3
40005394:	80 a2 3f ff 	cmp  %o0, -1
40005398:	02 80 04 1c 	be  40006408 <_vfprintf_r+0x19d0>
4000539c:	82 02 00 14 	add  %o0, %l4, %g1
400053a0:	80 a0 40 16 	cmp  %g1, %l6
400053a4:	34 80 00 06 	bg,a   400053bc <_vfprintf_r+0x984>
400053a8:	80 a5 20 00 	cmp  %l4, 0
400053ac:	a8 10 00 01 	mov  %g1, %l4
400053b0:	12 bf ff f0 	bne  40005370 <_vfprintf_r+0x938>
400053b4:	a2 04 60 01 	inc  %l1
400053b8:	80 a5 20 00 	cmp  %l4, 0
400053bc:	02 bf fe 97 	be  40004e18 <_vfprintf_r+0x3e0>
400053c0:	80 a5 00 18 	cmp  %l4, %i0
400053c4:	d0 07 a0 44 	ld  [ %fp + 0x44 ], %o0
400053c8:	7f ff fa dd 	call  40003f3c <_malloc_r>
400053cc:	92 05 20 01 	add  %l4, 1, %o1
400053d0:	80 a2 20 00 	cmp  %o0, 0
400053d4:	02 80 04 6e 	be  4000658c <_vfprintf_r+0x1b54>
400053d8:	d0 27 b8 d4 	st  %o0, [ %fp + -1836 ]
400053dc:	92 10 20 00 	clr  %o1
400053e0:	94 10 20 08 	mov  8, %o2
400053e4:	40 00 10 e0 	call  40009764 <memset>
400053e8:	90 10 00 17 	mov  %l7, %o0
400053ec:	d0 07 a0 44 	ld  [ %fp + 0x44 ], %o0
400053f0:	d2 07 b8 d4 	ld  [ %fp + -1836 ], %o1
400053f4:	98 10 00 17 	mov  %l7, %o4
400053f8:	94 07 b8 f8 	add  %fp, -1800, %o2
400053fc:	40 00 04 e5 	call  40006790 <_wcsrtombs_r>
40005400:	96 10 00 14 	mov  %l4, %o3
40005404:	80 a2 00 14 	cmp  %o0, %l4
40005408:	12 80 04 00 	bne  40006408 <_vfprintf_r+0x19d0>
4000540c:	da 07 b8 d4 	ld  [ %fp + -1836 ], %o5
40005410:	c0 2b 40 14 	clrb  [ %o5 + %l4 ]
40005414:	10 bf fe 80 	b  40004e14 <_vfprintf_r+0x3dc>
40005418:	e6 07 b8 d4 	ld  [ %fp + -1836 ], %l3
4000541c:	80 8f 60 10 	btst  0x10, %i5
40005420:	02 80 02 f7 	be  40005ffc <_vfprintf_r+0x15c4>
40005424:	80 8f 60 40 	btst  0x40, %i5
40005428:	da 06 c0 00 	ld  [ %i3 ], %o5
4000542c:	d2 07 b8 f0 	ld  [ %fp + -1808 ], %o1
40005430:	d2 23 40 00 	st  %o1, [ %o5 ]
40005434:	10 bf fd ab 	b  40004ae0 <_vfprintf_r+0xa8>
40005438:	b6 06 e0 04 	add  %i3, 4, %i3
4000543c:	82 10 20 2b 	mov  0x2b, %g1
40005440:	10 bf fd d7 	b  40004b9c <_vfprintf_r+0x164>
40005444:	c2 2f b8 f7 	stb  %g1, [ %fp + -1801 ]
40005448:	10 bf fd d5 	b  40004b9c <_vfprintf_r+0x164>
4000544c:	ba 17 60 40 	or  %i5, 0x40, %i5
40005450:	80 a5 bf ff 	cmp  %l6, -1
40005454:	02 80 03 84 	be  40006264 <_vfprintf_r+0x182c>
40005458:	82 1d 60 67 	xor  %l5, 0x67, %g1
4000545c:	80 a0 00 01 	cmp  %g0, %g1
40005460:	98 60 3f ff 	subx  %g0, -1, %o4
40005464:	82 1d 60 47 	xor  %l5, 0x47, %g1
40005468:	80 a0 00 01 	cmp  %g0, %g1
4000546c:	9a 60 3f ff 	subx  %g0, -1, %o5
40005470:	80 93 00 0d 	orcc  %o4, %o5, %g0
40005474:	02 80 00 06 	be  4000548c <_vfprintf_r+0xa54>
40005478:	80 8f 60 08 	btst  8, %i5
4000547c:	80 a5 a0 00 	cmp  %l6, 0
40005480:	22 80 00 02 	be,a   40005488 <_vfprintf_r+0xa50>
40005484:	ac 10 20 01 	mov  1, %l6
40005488:	80 8f 60 08 	btst  8, %i5
4000548c:	02 80 02 36 	be  40005d64 <_vfprintf_r+0x132c>
40005490:	d8 06 e0 04 	ld  [ %i3 + 4 ], %o4
40005494:	da 06 c0 00 	ld  [ %i3 ], %o5
40005498:	da 27 b9 48 	st  %o5, [ %fp + -1720 ]
4000549c:	d8 27 b9 4c 	st  %o4, [ %fp + -1716 ]
400054a0:	d0 1f b9 48 	ldd  [ %fp + -1720 ], %o0
400054a4:	d0 3f b8 e0 	std  %o0, [ %fp + -1824 ]
400054a8:	40 00 15 df 	call  4000ac24 <isinf>
400054ac:	d0 1f b8 e0 	ldd  [ %fp + -1824 ], %o0
400054b0:	80 a2 20 00 	cmp  %o0, 0
400054b4:	02 80 02 36 	be  40005d8c <_vfprintf_r+0x1354>
400054b8:	b6 06 e0 08 	add  %i3, 8, %i3
400054bc:	23 10 00 32 	sethi  %hi(0x4000c800), %l1
400054c0:	d4 1c 62 e0 	ldd  [ %l1 + 0x2e0 ], %o2	! 4000cae0 <___DTOR_END__+0x3c0>
400054c4:	40 00 17 b2 	call  4000b38c <__ltdf2>
400054c8:	d0 1f b8 e0 	ldd  [ %fp + -1824 ], %o0
400054cc:	80 a2 20 00 	cmp  %o0, 0
400054d0:	06 80 03 87 	bl  400062ec <_vfprintf_r+0x18b4>
400054d4:	82 10 20 2d 	mov  0x2d, %g1
400054d8:	03 10 00 32 	sethi  %hi(0x4000c800), %g1
400054dc:	a6 10 63 b0 	or  %g1, 0x3b0, %l3	! 4000cbb0 <zeroes.1+0x48>
400054e0:	10 bf fe 4d 	b  40004e14 <_vfprintf_r+0x3dc>
400054e4:	a8 10 20 03 	mov  3, %l4
400054e8:	80 a5 60 43 	cmp  %l5, 0x43
400054ec:	02 80 00 05 	be  40005500 <_vfprintf_r+0xac8>
400054f0:	a6 07 be 40 	add  %fp, -448, %l3
400054f4:	80 8f 60 10 	btst  0x10, %i5
400054f8:	22 80 02 cf 	be,a   40006034 <_vfprintf_r+0x15fc>
400054fc:	da 06 c0 00 	ld  [ %i3 ], %o5
40005500:	a0 07 b9 50 	add  %fp, -1712, %l0
40005504:	92 10 20 00 	clr  %o1
40005508:	94 10 20 08 	mov  8, %o2
4000550c:	40 00 10 96 	call  40009764 <memset>
40005510:	90 10 00 10 	mov  %l0, %o0
40005514:	d4 06 c0 00 	ld  [ %i3 ], %o2
40005518:	96 10 00 10 	mov  %l0, %o3
4000551c:	d0 07 a0 44 	ld  [ %fp + 0x44 ], %o0
40005520:	40 00 04 7d 	call  40006714 <_wcrtomb_r>
40005524:	92 10 00 13 	mov  %l3, %o1
40005528:	a8 10 00 08 	mov  %o0, %l4
4000552c:	80 a2 3f ff 	cmp  %o0, -1
40005530:	02 80 03 b6 	be  40006408 <_vfprintf_r+0x19d0>
40005534:	b6 06 e0 04 	add  %i3, 4, %i3
40005538:	10 bf fe 37 	b  40004e14 <_vfprintf_r+0x3dc>
4000553c:	c0 2f b8 f7 	clrb  [ %fp + -1801 ]
40005540:	03 10 00 32 	sethi  %hi(0x4000c800), %g1
40005544:	82 10 63 b8 	or  %g1, 0x3b8, %g1	! 4000cbb8 <zeroes.1+0x50>
40005548:	80 8f 60 10 	btst  0x10, %i5
4000554c:	02 bf ff 33 	be  40005218 <_vfprintf_r+0x7e0>
40005550:	c2 27 b8 d8 	st  %g1, [ %fp + -1832 ]
40005554:	82 10 00 1b 	mov  %i3, %g1
40005558:	b6 06 e0 04 	add  %i3, 4, %i3
4000555c:	10 bf ff 34 	b  4000522c <_vfprintf_r+0x7f4>
40005560:	d8 00 40 00 	ld  [ %g1 ], %o4
40005564:	10 bf fd 8e 	b  40004b9c <_vfprintf_r+0x164>
40005568:	ba 17 60 08 	or  %i5, 8, %i5
4000556c:	10 bf fd 8c 	b  40004b9c <_vfprintf_r+0x164>
40005570:	ba 17 60 80 	or  %i5, 0x80, %i5
40005574:	10 bf fd 8a 	b  40004b9c <_vfprintf_r+0x164>
40005578:	ba 17 60 01 	or  %i5, 1, %i5
4000557c:	c2 4f b8 f7 	ldsb  [ %fp + -1801 ], %g1
40005580:	80 a0 60 00 	cmp  %g1, 0
40005584:	32 bf fd 87 	bne,a   40004ba0 <_vfprintf_r+0x168>
40005588:	c2 0e 80 00 	ldub  [ %i2 ], %g1
4000558c:	82 10 20 20 	mov  0x20, %g1
40005590:	10 bf fd 83 	b  40004b9c <_vfprintf_r+0x164>
40005594:	c2 2f b8 f7 	stb  %g1, [ %fp + -1801 ]
40005598:	c2 2f b8 f7 	stb  %g1, [ %fp + -1801 ]
4000559c:	10 bf fe 06 	b  40004db4 <_vfprintf_r+0x37c>
400055a0:	98 20 00 0c 	neg  %o4
400055a4:	40 00 0c 3b 	call  40008690 <__sinit>
400055a8:	01 00 00 00 	nop 
400055ac:	10 bf fd 3b 	b  40004a98 <_vfprintf_r+0x60>
400055b0:	c2 16 60 0c 	lduh  [ %i1 + 0xc ], %g1
400055b4:	40 00 18 e8 	call  4000b954 <___st_pthread_mutex_unlock>
400055b8:	90 06 60 58 	add  %i1, 0x58, %o0
400055bc:	d8 16 60 0c 	lduh  [ %i1 + 0xc ], %o4
400055c0:	10 bf fd 97 	b  40004c1c <_vfprintf_r+0x1e4>
400055c4:	d2 16 60 0e 	lduh  [ %i1 + 0xe ], %o1
400055c8:	80 8f 60 02 	btst  2, %i5
400055cc:	32 bf fe 1b 	bne,a   40004e38 <_vfprintf_r+0x400>
400055d0:	ac 05 a0 02 	add  %l6, 2, %l6
400055d4:	10 bf fe 1a 	b  40004e3c <_vfprintf_r+0x404>
400055d8:	ae 8f 60 84 	andcc  %i5, 0x84, %l7
400055dc:	02 bf fe 5c 	be  40004f4c <_vfprintf_r+0x514>
400055e0:	80 a5 e0 80 	cmp  %l7, 0x80
400055e4:	82 10 20 30 	mov  0x30, %g1
400055e8:	c2 2f be 38 	stb  %g1, [ %fp + -456 ]
400055ec:	ea 2f be 39 	stb  %l5, [ %fp + -455 ]
400055f0:	82 10 20 02 	mov  2, %g1
400055f4:	c2 24 a0 04 	st  %g1, [ %l2 + 4 ]
400055f8:	d8 07 bf e4 	ld  [ %fp + -28 ], %o4
400055fc:	c2 07 bf e8 	ld  [ %fp + -24 ], %g1
40005600:	9a 07 be 38 	add  %fp, -456, %o5
40005604:	98 03 20 01 	inc  %o4
40005608:	da 24 80 00 	st  %o5, [ %l2 ]
4000560c:	82 00 60 02 	add  %g1, 2, %g1
40005610:	c2 27 bf e8 	st  %g1, [ %fp + -24 ]
40005614:	80 a3 20 07 	cmp  %o4, 7
40005618:	a4 04 a0 08 	add  %l2, 8, %l2
4000561c:	04 bf fe 4b 	ble  40004f48 <_vfprintf_r+0x510>
40005620:	d8 27 bf e4 	st  %o4, [ %fp + -28 ]
40005624:	90 10 00 19 	mov  %i1, %o0
40005628:	7f ff fc f4 	call  400049f8 <__sprint>
4000562c:	92 07 bf e0 	add  %fp, -32, %o1
40005630:	80 a2 20 00 	cmp  %o0, 0
40005634:	12 80 00 b6 	bne  4000590c <_vfprintf_r+0xed4>
40005638:	80 a5 e0 80 	cmp  %l7, 0x80
4000563c:	12 bf fe 46 	bne  40004f54 <_vfprintf_r+0x51c>
40005640:	a4 10 00 1c 	mov  %i4, %l2
40005644:	da 07 b8 ec 	ld  [ %fp + -1812 ], %o5
40005648:	a0 23 40 16 	sub  %o5, %l6, %l0
4000564c:	80 a4 20 00 	cmp  %l0, 0
40005650:	04 bf fe 41 	ble  40004f54 <_vfprintf_r+0x51c>
40005654:	80 a4 20 10 	cmp  %l0, 0x10
40005658:	04 80 00 1d 	ble  400056cc <_vfprintf_r+0xc94>
4000565c:	2f 10 00 32 	sethi  %hi(0x4000c800), %l7
40005660:	10 80 00 06 	b  40005678 <_vfprintf_r+0xc40>
40005664:	a2 15 e3 68 	or  %l7, 0x368, %l1	! 4000cb68 <zeroes.1>
40005668:	a0 04 3f f0 	add  %l0, -16, %l0
4000566c:	80 a4 20 10 	cmp  %l0, 0x10
40005670:	04 80 00 18 	ble  400056d0 <_vfprintf_r+0xc98>
40005674:	82 15 e3 68 	or  %l7, 0x368, %g1
40005678:	82 10 20 10 	mov  0x10, %g1
4000567c:	c2 24 a0 04 	st  %g1, [ %l2 + 4 ]
40005680:	da 07 bf e4 	ld  [ %fp + -28 ], %o5
40005684:	c2 07 bf e8 	ld  [ %fp + -24 ], %g1
40005688:	9a 03 60 01 	inc  %o5
4000568c:	e2 24 80 00 	st  %l1, [ %l2 ]
40005690:	82 00 60 10 	add  %g1, 0x10, %g1
40005694:	c2 27 bf e8 	st  %g1, [ %fp + -24 ]
40005698:	80 a3 60 07 	cmp  %o5, 7
4000569c:	a4 04 a0 08 	add  %l2, 8, %l2
400056a0:	04 bf ff f2 	ble  40005668 <_vfprintf_r+0xc30>
400056a4:	da 27 bf e4 	st  %o5, [ %fp + -28 ]
400056a8:	90 10 00 19 	mov  %i1, %o0
400056ac:	7f ff fc d3 	call  400049f8 <__sprint>
400056b0:	92 07 bf e0 	add  %fp, -32, %o1
400056b4:	80 a2 20 00 	cmp  %o0, 0
400056b8:	12 80 00 95 	bne  4000590c <_vfprintf_r+0xed4>
400056bc:	a0 04 3f f0 	add  %l0, -16, %l0
400056c0:	80 a4 20 10 	cmp  %l0, 0x10
400056c4:	14 bf ff ed 	bg  40005678 <_vfprintf_r+0xc40>
400056c8:	a4 10 00 1c 	mov  %i4, %l2
400056cc:	82 15 e3 68 	or  %l7, 0x368, %g1
400056d0:	e0 24 a0 04 	st  %l0, [ %l2 + 4 ]
400056d4:	c2 24 80 00 	st  %g1, [ %l2 ]
400056d8:	da 07 bf e8 	ld  [ %fp + -24 ], %o5
400056dc:	c2 07 bf e4 	ld  [ %fp + -28 ], %g1
400056e0:	82 00 60 01 	inc  %g1
400056e4:	9a 03 40 10 	add  %o5, %l0, %o5
400056e8:	da 27 bf e8 	st  %o5, [ %fp + -24 ]
400056ec:	80 a0 60 07 	cmp  %g1, 7
400056f0:	a4 04 a0 08 	add  %l2, 8, %l2
400056f4:	04 bf fe 18 	ble  40004f54 <_vfprintf_r+0x51c>
400056f8:	c2 27 bf e4 	st  %g1, [ %fp + -28 ]
400056fc:	90 10 00 19 	mov  %i1, %o0
40005700:	7f ff fc be 	call  400049f8 <__sprint>
40005704:	92 07 bf e0 	add  %fp, -32, %o1
40005708:	80 a2 20 00 	cmp  %o0, 0
4000570c:	12 80 00 80 	bne  4000590c <_vfprintf_r+0xed4>
40005710:	a4 10 00 1c 	mov  %i4, %l2
40005714:	10 bf fe 11 	b  40004f58 <_vfprintf_r+0x520>
40005718:	a0 26 00 14 	sub  %i0, %l4, %l0
4000571c:	04 80 00 8b 	ble  40005948 <_vfprintf_r+0xf10>
40005720:	c2 07 b9 04 	ld  [ %fp + -1788 ], %g1
40005724:	23 10 00 32 	sethi  %hi(0x4000c800), %l1
40005728:	d4 1c 62 e0 	ldd  [ %l1 + 0x2e0 ], %o2	! 4000cae0 <___DTOR_END__+0x3c0>
4000572c:	40 00 16 b4 	call  4000b1fc <__eqdf2>
40005730:	d0 1f b8 e0 	ldd  [ %fp + -1824 ], %o0
40005734:	80 a2 20 00 	cmp  %o0, 0
40005738:	12 80 00 c3 	bne  40005a44 <_vfprintf_r+0x100c>
4000573c:	c2 07 b9 08 	ld  [ %fp + -1784 ], %g1
40005740:	03 10 00 32 	sethi  %hi(0x4000c800), %g1
40005744:	82 10 63 d0 	or  %g1, 0x3d0, %g1	! 4000cbd0 <zeroes.1+0x68>
40005748:	a0 10 20 01 	mov  1, %l0
4000574c:	e0 24 a0 04 	st  %l0, [ %l2 + 4 ]
40005750:	c2 24 80 00 	st  %g1, [ %l2 ]
40005754:	da 07 bf e4 	ld  [ %fp + -28 ], %o5
40005758:	c2 07 bf e8 	ld  [ %fp + -24 ], %g1
4000575c:	9a 03 60 01 	inc  %o5
40005760:	82 00 60 01 	inc  %g1
40005764:	c2 27 bf e8 	st  %g1, [ %fp + -24 ]
40005768:	80 a3 60 07 	cmp  %o5, 7
4000576c:	a4 04 a0 08 	add  %l2, 8, %l2
40005770:	14 80 02 29 	bg  40006014 <_vfprintf_r+0x15dc>
40005774:	da 27 bf e4 	st  %o5, [ %fp + -28 ]
40005778:	da 07 b9 08 	ld  [ %fp + -1784 ], %o5
4000577c:	c2 07 b9 04 	ld  [ %fp + -1788 ], %g1
40005780:	80 a3 40 01 	cmp  %o5, %g1
40005784:	06 80 00 06 	bl  4000579c <_vfprintf_r+0xd64>
40005788:	c2 07 b8 e8 	ld  [ %fp + -1816 ], %g1
4000578c:	80 8f 60 01 	btst  1, %i5
40005790:	02 bf fe 34 	be  40005060 <_vfprintf_r+0x628>
40005794:	80 8f 60 04 	btst  4, %i5
40005798:	c2 07 b8 e8 	ld  [ %fp + -1816 ], %g1
4000579c:	e0 24 a0 04 	st  %l0, [ %l2 + 4 ]
400057a0:	c2 24 80 00 	st  %g1, [ %l2 ]
400057a4:	da 07 bf e4 	ld  [ %fp + -28 ], %o5
400057a8:	c2 07 bf e8 	ld  [ %fp + -24 ], %g1
400057ac:	9a 03 60 01 	inc  %o5
400057b0:	82 00 60 01 	inc  %g1
400057b4:	c2 27 bf e8 	st  %g1, [ %fp + -24 ]
400057b8:	80 a3 60 07 	cmp  %o5, 7
400057bc:	a4 04 a0 08 	add  %l2, 8, %l2
400057c0:	14 80 02 51 	bg  40006104 <_vfprintf_r+0x16cc>
400057c4:	da 27 bf e4 	st  %o5, [ %fp + -28 ]
400057c8:	c2 07 b9 04 	ld  [ %fp + -1788 ], %g1
400057cc:	a0 00 7f ff 	add  %g1, -1, %l0
400057d0:	80 a4 20 00 	cmp  %l0, 0
400057d4:	04 bf fe 22 	ble  4000505c <_vfprintf_r+0x624>
400057d8:	80 a4 20 10 	cmp  %l0, 0x10
400057dc:	04 80 02 52 	ble  40006124 <_vfprintf_r+0x16ec>
400057e0:	2f 10 00 32 	sethi  %hi(0x4000c800), %l7
400057e4:	10 80 00 06 	b  400057fc <_vfprintf_r+0xdc4>
400057e8:	a2 15 e3 68 	or  %l7, 0x368, %l1	! 4000cb68 <zeroes.1>
400057ec:	a0 04 3f f0 	add  %l0, -16, %l0
400057f0:	80 a4 20 10 	cmp  %l0, 0x10
400057f4:	04 80 00 18 	ble  40005854 <_vfprintf_r+0xe1c>
400057f8:	82 15 e3 68 	or  %l7, 0x368, %g1
400057fc:	82 10 20 10 	mov  0x10, %g1
40005800:	c2 24 a0 04 	st  %g1, [ %l2 + 4 ]
40005804:	da 07 bf e4 	ld  [ %fp + -28 ], %o5
40005808:	c2 07 bf e8 	ld  [ %fp + -24 ], %g1
4000580c:	9a 03 60 01 	inc  %o5
40005810:	e2 24 80 00 	st  %l1, [ %l2 ]
40005814:	82 00 60 10 	add  %g1, 0x10, %g1
40005818:	c2 27 bf e8 	st  %g1, [ %fp + -24 ]
4000581c:	80 a3 60 07 	cmp  %o5, 7
40005820:	a4 04 a0 08 	add  %l2, 8, %l2
40005824:	04 bf ff f2 	ble  400057ec <_vfprintf_r+0xdb4>
40005828:	da 27 bf e4 	st  %o5, [ %fp + -28 ]
4000582c:	90 10 00 19 	mov  %i1, %o0
40005830:	7f ff fc 72 	call  400049f8 <__sprint>
40005834:	92 07 bf e0 	add  %fp, -32, %o1
40005838:	80 a2 20 00 	cmp  %o0, 0
4000583c:	12 80 00 34 	bne  4000590c <_vfprintf_r+0xed4>
40005840:	a0 04 3f f0 	add  %l0, -16, %l0
40005844:	80 a4 20 10 	cmp  %l0, 0x10
40005848:	14 bf ff ed 	bg  400057fc <_vfprintf_r+0xdc4>
4000584c:	a4 10 00 1c 	mov  %i4, %l2
40005850:	82 15 e3 68 	or  %l7, 0x368, %g1
40005854:	e0 24 a0 04 	st  %l0, [ %l2 + 4 ]
40005858:	c2 24 80 00 	st  %g1, [ %l2 ]
4000585c:	da 07 bf e8 	ld  [ %fp + -24 ], %o5
40005860:	c2 07 bf e4 	ld  [ %fp + -28 ], %g1
40005864:	82 00 60 01 	inc  %g1
40005868:	9a 03 40 10 	add  %o5, %l0, %o5
4000586c:	da 27 bf e8 	st  %o5, [ %fp + -24 ]
40005870:	80 a0 60 07 	cmp  %g1, 7
40005874:	a4 04 a0 08 	add  %l2, 8, %l2
40005878:	c2 27 bf e4 	st  %g1, [ %fp + -28 ]
4000587c:	04 bf fd f9 	ble  40005060 <_vfprintf_r+0x628>
40005880:	80 8f 60 04 	btst  4, %i5
40005884:	90 10 00 19 	mov  %i1, %o0
40005888:	7f ff fc 5c 	call  400049f8 <__sprint>
4000588c:	92 07 bf e0 	add  %fp, -32, %o1
40005890:	80 a2 20 00 	cmp  %o0, 0
40005894:	12 80 00 1e 	bne  4000590c <_vfprintf_r+0xed4>
40005898:	a4 10 00 1c 	mov  %i4, %l2
4000589c:	10 bf fd f1 	b  40005060 <_vfprintf_r+0x628>
400058a0:	80 8f 60 04 	btst  4, %i5
400058a4:	90 10 00 19 	mov  %i1, %o0
400058a8:	7f ff fc 54 	call  400049f8 <__sprint>
400058ac:	92 07 bf e0 	add  %fp, -32, %o1
400058b0:	80 a2 20 00 	cmp  %o0, 0
400058b4:	12 80 00 16 	bne  4000590c <_vfprintf_r+0xed4>
400058b8:	a4 10 00 1c 	mov  %i4, %l2
400058bc:	10 bf fd 92 	b  40004f04 <_vfprintf_r+0x4cc>
400058c0:	c2 0f b8 f7 	ldub  [ %fp + -1801 ], %g1
400058c4:	80 8a e0 ff 	btst  0xff, %o3
400058c8:	12 bf fe 3a 	bne  400051b0 <_vfprintf_r+0x778>
400058cc:	82 27 80 13 	sub  %fp, %l3, %g1
400058d0:	80 8f 60 01 	btst  1, %i5
400058d4:	22 bf fd 50 	be,a   40004e14 <_vfprintf_r+0x3dc>
400058d8:	a8 00 7f 9c 	add  %g1, -100, %l4
400058dc:	82 10 20 30 	mov  0x30, %g1
400058e0:	c2 2f bf 9b 	stb  %g1, [ %fp + -101 ]
400058e4:	a6 07 bf 9b 	add  %fp, -101, %l3
400058e8:	82 27 80 13 	sub  %fp, %l3, %g1
400058ec:	10 bf fd 4a 	b  40004e14 <_vfprintf_r+0x3dc>
400058f0:	a8 00 7f 9c 	add  %g1, -100, %l4
400058f4:	90 10 00 19 	mov  %i1, %o0
400058f8:	7f ff fc 40 	call  400049f8 <__sprint>
400058fc:	92 07 bf e0 	add  %fp, -32, %o1
40005900:	80 a2 20 00 	cmp  %o0, 0
40005904:	02 bf fe 19 	be  40005168 <_vfprintf_r+0x730>
40005908:	d8 07 b8 d4 	ld  [ %fp + -1836 ], %o4
4000590c:	da 07 b8 d4 	ld  [ %fp + -1836 ], %o5
40005910:	80 a3 60 00 	cmp  %o5, 0
40005914:	02 80 00 04 	be  40005924 <_vfprintf_r+0xeec>
40005918:	d0 07 a0 44 	ld  [ %fp + 0x44 ], %o0
4000591c:	40 00 0c 37 	call  400089f8 <_free_r>
40005920:	92 10 00 0d 	mov  %o5, %o1
40005924:	c2 16 60 0c 	lduh  [ %i1 + 0xc ], %g1
40005928:	80 88 62 00 	btst  0x200, %g1
4000592c:	02 80 00 da 	be  40005c94 <_vfprintf_r+0x125c>
40005930:	98 10 00 01 	mov  %g1, %o4
40005934:	80 8b 20 40 	btst  0x40, %o4
40005938:	02 80 03 1f 	be  400065b4 <_vfprintf_r+0x1b7c>
4000593c:	d0 07 b8 f0 	ld  [ %fp + -1808 ], %o0
40005940:	10 80 03 1d 	b  400065b4 <_vfprintf_r+0x1b7c>
40005944:	90 10 3f ff 	mov  -1, %o0
40005948:	80 a0 60 01 	cmp  %g1, 1
4000594c:	04 80 00 d6 	ble  40005ca4 <_vfprintf_r+0x126c>
40005950:	80 8f 60 01 	btst  1, %i5
40005954:	c2 0c c0 00 	ldub  [ %l3 ], %g1
40005958:	c2 2f be 38 	stb  %g1, [ %fp + -456 ]
4000595c:	9a 10 20 2e 	mov  0x2e, %o5
40005960:	da 2f be 39 	stb  %o5, [ %fp + -455 ]
40005964:	82 10 20 02 	mov  2, %g1
40005968:	c2 24 a0 04 	st  %g1, [ %l2 + 4 ]
4000596c:	d8 07 bf e4 	ld  [ %fp + -28 ], %o4
40005970:	c2 07 bf e8 	ld  [ %fp + -24 ], %g1
40005974:	9a 07 be 38 	add  %fp, -456, %o5
40005978:	98 03 20 01 	inc  %o4
4000597c:	da 24 80 00 	st  %o5, [ %l2 ]
40005980:	82 00 60 02 	add  %g1, 2, %g1
40005984:	c2 27 bf e8 	st  %g1, [ %fp + -24 ]
40005988:	80 a3 20 07 	cmp  %o4, 7
4000598c:	a6 04 e0 01 	inc  %l3
40005990:	a4 04 a0 08 	add  %l2, 8, %l2
40005994:	14 80 00 9e 	bg  40005c0c <_vfprintf_r+0x11d4>
40005998:	d8 27 bf e4 	st  %o4, [ %fp + -28 ]
4000599c:	23 10 00 32 	sethi  %hi(0x4000c800), %l1
400059a0:	d4 1c 62 e0 	ldd  [ %l1 + 0x2e0 ], %o2	! 4000cae0 <___DTOR_END__+0x3c0>
400059a4:	40 00 16 2f 	call  4000b260 <__nedf2>
400059a8:	d0 1f b8 e0 	ldd  [ %fp + -1824 ], %o0
400059ac:	80 a2 20 00 	cmp  %o0, 0
400059b0:	02 80 00 6e 	be  40005b68 <_vfprintf_r+0x1130>
400059b4:	c2 07 b9 04 	ld  [ %fp + -1788 ], %g1
400059b8:	d8 07 b9 04 	ld  [ %fp + -1788 ], %o4
400059bc:	82 03 3f ff 	add  %o4, -1, %g1
400059c0:	c2 24 a0 04 	st  %g1, [ %l2 + 4 ]
400059c4:	da 07 bf e8 	ld  [ %fp + -24 ], %o5
400059c8:	9a 03 40 0c 	add  %o5, %o4, %o5
400059cc:	c2 07 bf e4 	ld  [ %fp + -28 ], %g1
400059d0:	e6 24 80 00 	st  %l3, [ %l2 ]
400059d4:	82 00 60 01 	inc  %g1
400059d8:	9a 03 7f ff 	add  %o5, -1, %o5
400059dc:	da 27 bf e8 	st  %o5, [ %fp + -24 ]
400059e0:	80 a0 60 07 	cmp  %g1, 7
400059e4:	a4 04 a0 08 	add  %l2, 8, %l2
400059e8:	c2 27 bf e4 	st  %g1, [ %fp + -28 ]
400059ec:	14 80 00 90 	bg  40005c2c <_vfprintf_r+0x11f4>
400059f0:	90 10 00 19 	mov  %i1, %o0
400059f4:	d2 07 b8 dc 	ld  [ %fp + -1828 ], %o1
400059f8:	82 07 bf f0 	add  %fp, -16, %g1
400059fc:	d2 24 a0 04 	st  %o1, [ %l2 + 4 ]
40005a00:	c2 24 80 00 	st  %g1, [ %l2 ]
40005a04:	da 07 bf e4 	ld  [ %fp + -28 ], %o5
40005a08:	c2 07 bf e8 	ld  [ %fp + -24 ], %g1
40005a0c:	9a 03 60 01 	inc  %o5
40005a10:	10 bf fd 8d 	b  40005044 <_vfprintf_r+0x60c>
40005a14:	82 00 40 09 	add  %g1, %o1, %g1
40005a18:	b6 06 e0 04 	add  %i3, 4, %i3
40005a1c:	10 bf fc e3 	b  40004da8 <_vfprintf_r+0x370>
40005a20:	d8 00 40 00 	ld  [ %g1 ], %o4
40005a24:	b6 06 e0 04 	add  %i3, 4, %i3
40005a28:	d8 00 40 00 	ld  [ %g1 ], %o4
40005a2c:	10 bf fc c6 	b  40004d44 <_vfprintf_r+0x30c>
40005a30:	96 10 20 01 	mov  1, %o3
40005a34:	b6 06 e0 04 	add  %i3, 4, %i3
40005a38:	d8 00 40 00 	ld  [ %g1 ], %o4
40005a3c:	10 bf fc cf 	b  40004d78 <_vfprintf_r+0x340>
40005a40:	96 10 20 00 	clr  %o3
40005a44:	80 a0 60 00 	cmp  %g1, 0
40005a48:	04 80 01 c3 	ble  40006154 <_vfprintf_r+0x171c>
40005a4c:	da 07 b9 04 	ld  [ %fp + -1788 ], %o5
40005a50:	80 a0 40 0d 	cmp  %g1, %o5
40005a54:	26 80 00 a2 	bl,a   40005cdc <_vfprintf_r+0x12a4>
40005a58:	c2 24 a0 04 	st  %g1, [ %l2 + 4 ]
40005a5c:	da 24 a0 04 	st  %o5, [ %l2 + 4 ]
40005a60:	c2 07 bf e8 	ld  [ %fp + -24 ], %g1
40005a64:	82 00 40 0d 	add  %g1, %o5, %g1
40005a68:	da 07 bf e4 	ld  [ %fp + -28 ], %o5
40005a6c:	9a 03 60 01 	inc  %o5
40005a70:	e6 24 80 00 	st  %l3, [ %l2 ]
40005a74:	c2 27 bf e8 	st  %g1, [ %fp + -24 ]
40005a78:	80 a3 60 07 	cmp  %o5, 7
40005a7c:	a4 04 a0 08 	add  %l2, 8, %l2
40005a80:	14 80 02 03 	bg  4000628c <_vfprintf_r+0x1854>
40005a84:	da 27 bf e4 	st  %o5, [ %fp + -28 ]
40005a88:	da 07 b9 08 	ld  [ %fp + -1784 ], %o5
40005a8c:	c2 07 b9 04 	ld  [ %fp + -1788 ], %g1
40005a90:	a0 23 40 01 	sub  %o5, %g1, %l0
40005a94:	80 a4 20 00 	cmp  %l0, 0
40005a98:	04 80 01 78 	ble  40006078 <_vfprintf_r+0x1640>
40005a9c:	80 a4 20 10 	cmp  %l0, 0x10
40005aa0:	04 80 01 6a 	ble  40006048 <_vfprintf_r+0x1610>
40005aa4:	2f 10 00 32 	sethi  %hi(0x4000c800), %l7
40005aa8:	10 80 00 06 	b  40005ac0 <_vfprintf_r+0x1088>
40005aac:	a2 15 e3 68 	or  %l7, 0x368, %l1	! 4000cb68 <zeroes.1>
40005ab0:	a0 04 3f f0 	add  %l0, -16, %l0
40005ab4:	80 a4 20 10 	cmp  %l0, 0x10
40005ab8:	04 80 01 65 	ble  4000604c <_vfprintf_r+0x1614>
40005abc:	82 15 e3 68 	or  %l7, 0x368, %g1
40005ac0:	82 10 20 10 	mov  0x10, %g1
40005ac4:	c2 24 a0 04 	st  %g1, [ %l2 + 4 ]
40005ac8:	da 07 bf e4 	ld  [ %fp + -28 ], %o5
40005acc:	c2 07 bf e8 	ld  [ %fp + -24 ], %g1
40005ad0:	9a 03 60 01 	inc  %o5
40005ad4:	e2 24 80 00 	st  %l1, [ %l2 ]
40005ad8:	82 00 60 10 	add  %g1, 0x10, %g1
40005adc:	c2 27 bf e8 	st  %g1, [ %fp + -24 ]
40005ae0:	80 a3 60 07 	cmp  %o5, 7
40005ae4:	a4 04 a0 08 	add  %l2, 8, %l2
40005ae8:	04 bf ff f2 	ble  40005ab0 <_vfprintf_r+0x1078>
40005aec:	da 27 bf e4 	st  %o5, [ %fp + -28 ]
40005af0:	90 10 00 19 	mov  %i1, %o0
40005af4:	7f ff fb c1 	call  400049f8 <__sprint>
40005af8:	92 07 bf e0 	add  %fp, -32, %o1
40005afc:	80 a2 20 00 	cmp  %o0, 0
40005b00:	12 bf ff 83 	bne  4000590c <_vfprintf_r+0xed4>
40005b04:	a4 10 00 1c 	mov  %i4, %l2
40005b08:	10 bf ff eb 	b  40005ab4 <_vfprintf_r+0x107c>
40005b0c:	a0 04 3f f0 	add  %l0, -16, %l0
40005b10:	08 80 00 10 	bleu  40005b50 <_vfprintf_r+0x1118>
40005b14:	03 33 33 33 	sethi  %hi(0xcccccc00), %g1
40005b18:	96 10 60 cd 	or  %g1, 0xcd, %o3	! cccccccd <LEON_REG+0x4ccccccd>
40005b1c:	80 53 00 0b 	umul  %o4, %o3, %g0
40005b20:	9b 40 00 00 	rd  %y, %o5
40005b24:	9b 33 60 03 	srl  %o5, 3, %o5
40005b28:	83 2b 60 02 	sll  %o5, 2, %g1
40005b2c:	82 00 40 0d 	add  %g1, %o5, %g1
40005b30:	82 00 40 01 	add  %g1, %g1, %g1
40005b34:	82 23 00 01 	sub  %o4, %g1, %g1
40005b38:	a6 04 ff ff 	add  %l3, -1, %l3
40005b3c:	82 00 60 30 	add  %g1, 0x30, %g1
40005b40:	98 10 00 0d 	mov  %o5, %o4
40005b44:	80 a3 60 09 	cmp  %o5, 9
40005b48:	18 bf ff f5 	bgu  40005b1c <_vfprintf_r+0x10e4>
40005b4c:	c2 2c c0 00 	stb  %g1, [ %l3 ]
40005b50:	a6 04 ff ff 	add  %l3, -1, %l3
40005b54:	82 03 20 30 	add  %o4, 0x30, %g1
40005b58:	c2 2c c0 00 	stb  %g1, [ %l3 ]
40005b5c:	82 27 80 13 	sub  %fp, %l3, %g1
40005b60:	10 bf fc ad 	b  40004e14 <_vfprintf_r+0x3dc>
40005b64:	a8 00 7f 9c 	add  %g1, -100, %l4
40005b68:	a0 00 7f ff 	add  %g1, -1, %l0
40005b6c:	80 a4 20 00 	cmp  %l0, 0
40005b70:	04 bf ff a1 	ble  400059f4 <_vfprintf_r+0xfbc>
40005b74:	80 a4 20 10 	cmp  %l0, 0x10
40005b78:	04 80 01 4d 	ble  400060ac <_vfprintf_r+0x1674>
40005b7c:	2f 10 00 32 	sethi  %hi(0x4000c800), %l7
40005b80:	10 80 00 06 	b  40005b98 <_vfprintf_r+0x1160>
40005b84:	a2 15 e3 68 	or  %l7, 0x368, %l1	! 4000cb68 <zeroes.1>
40005b88:	a0 04 3f f0 	add  %l0, -16, %l0
40005b8c:	80 a4 20 10 	cmp  %l0, 0x10
40005b90:	04 80 00 18 	ble  40005bf0 <_vfprintf_r+0x11b8>
40005b94:	82 15 e3 68 	or  %l7, 0x368, %g1
40005b98:	82 10 20 10 	mov  0x10, %g1
40005b9c:	c2 24 a0 04 	st  %g1, [ %l2 + 4 ]
40005ba0:	da 07 bf e4 	ld  [ %fp + -28 ], %o5
40005ba4:	c2 07 bf e8 	ld  [ %fp + -24 ], %g1
40005ba8:	9a 03 60 01 	inc  %o5
40005bac:	e2 24 80 00 	st  %l1, [ %l2 ]
40005bb0:	82 00 60 10 	add  %g1, 0x10, %g1
40005bb4:	c2 27 bf e8 	st  %g1, [ %fp + -24 ]
40005bb8:	80 a3 60 07 	cmp  %o5, 7
40005bbc:	a4 04 a0 08 	add  %l2, 8, %l2
40005bc0:	04 bf ff f2 	ble  40005b88 <_vfprintf_r+0x1150>
40005bc4:	da 27 bf e4 	st  %o5, [ %fp + -28 ]
40005bc8:	90 10 00 19 	mov  %i1, %o0
40005bcc:	7f ff fb 8b 	call  400049f8 <__sprint>
40005bd0:	92 07 bf e0 	add  %fp, -32, %o1
40005bd4:	80 a2 20 00 	cmp  %o0, 0
40005bd8:	12 bf ff 4d 	bne  4000590c <_vfprintf_r+0xed4>
40005bdc:	a0 04 3f f0 	add  %l0, -16, %l0
40005be0:	80 a4 20 10 	cmp  %l0, 0x10
40005be4:	14 bf ff ed 	bg  40005b98 <_vfprintf_r+0x1160>
40005be8:	a4 10 00 1c 	mov  %i4, %l2
40005bec:	82 15 e3 68 	or  %l7, 0x368, %g1
40005bf0:	e0 24 a0 04 	st  %l0, [ %l2 + 4 ]
40005bf4:	c2 24 80 00 	st  %g1, [ %l2 ]
40005bf8:	da 07 bf e8 	ld  [ %fp + -24 ], %o5
40005bfc:	c2 07 bf e4 	ld  [ %fp + -28 ], %g1
40005c00:	9a 03 40 10 	add  %o5, %l0, %o5
40005c04:	10 bf ff 76 	b  400059dc <_vfprintf_r+0xfa4>
40005c08:	82 00 60 01 	inc  %g1
40005c0c:	90 10 00 19 	mov  %i1, %o0
40005c10:	7f ff fb 7a 	call  400049f8 <__sprint>
40005c14:	92 07 bf e0 	add  %fp, -32, %o1
40005c18:	80 a2 20 00 	cmp  %o0, 0
40005c1c:	12 bf ff 3c 	bne  4000590c <_vfprintf_r+0xed4>
40005c20:	a4 10 00 1c 	mov  %i4, %l2
40005c24:	10 bf ff 5f 	b  400059a0 <_vfprintf_r+0xf68>
40005c28:	23 10 00 32 	sethi  %hi(0x4000c800), %l1
40005c2c:	7f ff fb 73 	call  400049f8 <__sprint>
40005c30:	92 07 bf e0 	add  %fp, -32, %o1
40005c34:	80 a2 20 00 	cmp  %o0, 0
40005c38:	12 bf ff 35 	bne  4000590c <_vfprintf_r+0xed4>
40005c3c:	a4 10 00 1c 	mov  %i4, %l2
40005c40:	10 bf ff 6e 	b  400059f8 <_vfprintf_r+0xfc0>
40005c44:	d2 07 b8 dc 	ld  [ %fp + -1828 ], %o1
40005c48:	80 a0 60 00 	cmp  %g1, 0
40005c4c:	12 bf fc 6e 	bne  40004e04 <_vfprintf_r+0x3cc>
40005c50:	03 10 00 32 	sethi  %hi(0x4000c800), %g1
40005c54:	82 0b 20 07 	and  %o4, 7, %g1
40005c58:	a6 04 ff ff 	add  %l3, -1, %l3
40005c5c:	82 00 60 30 	add  %g1, 0x30, %g1
40005c60:	99 33 20 03 	srl  %o4, 3, %o4
40005c64:	80 a3 20 00 	cmp  %o4, 0
40005c68:	12 bf ff fb 	bne  40005c54 <_vfprintf_r+0x121c>
40005c6c:	c2 2c c0 00 	stb  %g1, [ %l3 ]
40005c70:	80 8f 60 01 	btst  1, %i5
40005c74:	22 bf fd 4f 	be,a   400051b0 <_vfprintf_r+0x778>
40005c78:	82 27 80 13 	sub  %fp, %l3, %g1
40005c7c:	80 a0 60 30 	cmp  %g1, 0x30
40005c80:	02 bf fd 4b 	be  400051ac <_vfprintf_r+0x774>
40005c84:	82 10 20 30 	mov  0x30, %g1
40005c88:	a6 04 ff ff 	add  %l3, -1, %l3
40005c8c:	10 bf ff b4 	b  40005b5c <_vfprintf_r+0x1124>
40005c90:	c2 2c c0 00 	stb  %g1, [ %l3 ]
40005c94:	40 00 17 30 	call  4000b954 <___st_pthread_mutex_unlock>
40005c98:	90 06 60 58 	add  %i1, 0x58, %o0
40005c9c:	10 bf ff 26 	b  40005934 <_vfprintf_r+0xefc>
40005ca0:	d8 16 60 0c 	lduh  [ %i1 + 0xc ], %o4
40005ca4:	32 bf ff 2d 	bne,a   40005958 <_vfprintf_r+0xf20>
40005ca8:	c2 0c c0 00 	ldub  [ %l3 ], %g1
40005cac:	82 10 20 01 	mov  1, %g1
40005cb0:	c2 24 a0 04 	st  %g1, [ %l2 + 4 ]
40005cb4:	da 07 bf e4 	ld  [ %fp + -28 ], %o5
40005cb8:	c2 07 bf e8 	ld  [ %fp + -24 ], %g1
40005cbc:	9a 03 60 01 	inc  %o5
40005cc0:	e6 24 80 00 	st  %l3, [ %l2 ]
40005cc4:	82 00 60 01 	inc  %g1
40005cc8:	c2 27 bf e8 	st  %g1, [ %fp + -24 ]
40005ccc:	80 a3 60 07 	cmp  %o5, 7
40005cd0:	a4 04 a0 08 	add  %l2, 8, %l2
40005cd4:	10 bf ff 46 	b  400059ec <_vfprintf_r+0xfb4>
40005cd8:	da 27 bf e4 	st  %o5, [ %fp + -28 ]
40005cdc:	da 07 bf e8 	ld  [ %fp + -24 ], %o5
40005ce0:	9a 03 40 01 	add  %o5, %g1, %o5
40005ce4:	c2 07 bf e4 	ld  [ %fp + -28 ], %g1
40005ce8:	82 00 60 01 	inc  %g1
40005cec:	e6 24 80 00 	st  %l3, [ %l2 ]
40005cf0:	da 27 bf e8 	st  %o5, [ %fp + -24 ]
40005cf4:	80 a0 60 07 	cmp  %g1, 7
40005cf8:	a4 04 a0 08 	add  %l2, 8, %l2
40005cfc:	14 80 01 74 	bg  400062cc <_vfprintf_r+0x1894>
40005d00:	c2 27 bf e4 	st  %g1, [ %fp + -28 ]
40005d04:	03 10 00 32 	sethi  %hi(0x4000c800), %g1
40005d08:	9a 10 20 01 	mov  1, %o5
40005d0c:	82 10 60 28 	or  %g1, 0x28, %g1
40005d10:	da 24 a0 04 	st  %o5, [ %l2 + 4 ]
40005d14:	c2 24 80 00 	st  %g1, [ %l2 ]
40005d18:	d8 07 bf e4 	ld  [ %fp + -28 ], %o4
40005d1c:	c2 07 bf e8 	ld  [ %fp + -24 ], %g1
40005d20:	98 03 20 01 	inc  %o4
40005d24:	82 00 60 01 	inc  %g1
40005d28:	da 07 b9 08 	ld  [ %fp + -1784 ], %o5
40005d2c:	a6 04 c0 0d 	add  %l3, %o5, %l3
40005d30:	c2 27 bf e8 	st  %g1, [ %fp + -24 ]
40005d34:	80 a3 20 07 	cmp  %o4, 7
40005d38:	a4 04 a0 08 	add  %l2, 8, %l2
40005d3c:	14 80 01 5c 	bg  400062ac <_vfprintf_r+0x1874>
40005d40:	d8 27 bf e4 	st  %o4, [ %fp + -28 ]
40005d44:	c2 07 b9 08 	ld  [ %fp + -1784 ], %g1
40005d48:	d8 07 b9 04 	ld  [ %fp + -1788 ], %o4
40005d4c:	98 23 00 01 	sub  %o4, %g1, %o4
40005d50:	d8 24 a0 04 	st  %o4, [ %l2 + 4 ]
40005d54:	c2 07 bf e8 	ld  [ %fp + -24 ], %g1
40005d58:	e6 24 80 00 	st  %l3, [ %l2 ]
40005d5c:	10 bf fc b8 	b  4000503c <_vfprintf_r+0x604>
40005d60:	82 00 40 0c 	add  %g1, %o4, %g1
40005d64:	da 06 c0 00 	ld  [ %i3 ], %o5
40005d68:	da 27 b9 40 	st  %o5, [ %fp + -1728 ]
40005d6c:	d8 27 b9 44 	st  %o4, [ %fp + -1724 ]
40005d70:	d8 1f b9 40 	ldd  [ %fp + -1728 ], %o4
40005d74:	d8 3f b8 e0 	std  %o4, [ %fp + -1824 ]
40005d78:	40 00 13 ab 	call  4000ac24 <isinf>
40005d7c:	d0 1f b8 e0 	ldd  [ %fp + -1824 ], %o0
40005d80:	80 a2 20 00 	cmp  %o0, 0
40005d84:	12 bf fd ce 	bne  400054bc <_vfprintf_r+0xa84>
40005d88:	b6 06 e0 08 	add  %i3, 8, %i3
40005d8c:	40 00 13 b4 	call  4000ac5c <isnan>
40005d90:	d0 1f b8 e0 	ldd  [ %fp + -1824 ], %o0
40005d94:	03 10 00 32 	sethi  %hi(0x4000c800), %g1
40005d98:	80 a2 20 00 	cmp  %o0, 0
40005d9c:	a6 10 63 d8 	or  %g1, 0x3d8, %l3
40005da0:	12 bf fc 1d 	bne  40004e14 <_vfprintf_r+0x3dc>
40005da4:	a8 10 20 03 	mov  3, %l4
40005da8:	d0 1f b8 e0 	ldd  [ %fp + -1824 ], %o0
40005dac:	ba 17 61 00 	or  %i5, 0x100, %i5
40005db0:	80 a5 60 66 	cmp  %l5, 0x66
40005db4:	d0 3f b8 c8 	std  %o0, [ %fp + -1848 ]
40005db8:	a6 10 00 16 	mov  %l6, %l3
40005dbc:	94 07 b9 0f 	add  %fp, -1777, %o2
40005dc0:	ae 07 b9 08 	add  %fp, -1784, %l7
40005dc4:	02 80 00 0c 	be  40005df4 <_vfprintf_r+0x13bc>
40005dc8:	96 10 20 03 	mov  3, %o3
40005dcc:	82 1d 60 65 	xor  %l5, 0x65, %g1
40005dd0:	80 a0 00 01 	cmp  %g0, %g1
40005dd4:	98 60 3f ff 	subx  %g0, -1, %o4
40005dd8:	82 1d 60 45 	xor  %l5, 0x45, %g1
40005ddc:	80 a0 00 01 	cmp  %g0, %g1
40005de0:	9a 60 3f ff 	subx  %g0, -1, %o5
40005de4:	80 93 00 0d 	orcc  %o4, %o5, %g0
40005de8:	32 80 00 02 	bne,a   40005df0 <_vfprintf_r+0x13b8>
40005dec:	a6 05 a0 01 	add  %l6, 1, %l3
40005df0:	96 10 20 02 	mov  2, %o3
40005df4:	d8 1f b8 c8 	ldd  [ %fp + -1848 ], %o4
40005df8:	80 a3 20 00 	cmp  %o4, 0
40005dfc:	06 80 01 a1 	bl  40006480 <_vfprintf_r+0x1a48>
40005e00:	82 10 20 2d 	mov  0x2d, %g1
40005e04:	c0 2a 80 00 	clrb  [ %o2 ]
40005e08:	9a 07 b8 fc 	add  %fp, -1796, %o5
40005e0c:	82 07 b9 00 	add  %fp, -1792, %g1
40005e10:	da 23 a0 60 	st  %o5, [ %sp + 0x60 ]
40005e14:	c2 23 a0 5c 	st  %g1, [ %sp + 0x5c ]
40005e18:	d2 07 b8 c8 	ld  [ %fp + -1848 ], %o1
40005e1c:	9a 10 00 17 	mov  %l7, %o5
40005e20:	d0 07 a0 44 	ld  [ %fp + 0x44 ], %o0
40005e24:	d4 07 b8 cc 	ld  [ %fp + -1844 ], %o2
40005e28:	40 00 04 d7 	call  40007184 <_dtoa_r>
40005e2c:	98 10 00 13 	mov  %l3, %o4
40005e30:	92 1d 60 67 	xor  %l5, 0x67, %o1
40005e34:	80 a0 00 09 	cmp  %g0, %o1
40005e38:	9a 40 20 00 	addx  %g0, 0, %o5
40005e3c:	96 1d 60 47 	xor  %l5, 0x47, %o3
40005e40:	80 a0 00 0b 	cmp  %g0, %o3
40005e44:	82 40 20 00 	addx  %g0, 0, %g1
40005e48:	a8 10 00 08 	mov  %o0, %l4
40005e4c:	d2 27 b8 c0 	st  %o1, [ %fp + -1856 ]
40005e50:	80 8b 40 01 	btst  %o5, %g1
40005e54:	12 80 00 05 	bne  40005e68 <_vfprintf_r+0x1430>
40005e58:	d6 27 b8 c4 	st  %o3, [ %fp + -1852 ]
40005e5c:	80 8f 60 01 	btst  1, %i5
40005e60:	02 80 00 16 	be  40005eb8 <_vfprintf_r+0x1480>
40005e64:	da 07 b8 fc 	ld  [ %fp + -1796 ], %o5
40005e68:	80 a5 60 66 	cmp  %l5, 0x66
40005e6c:	a0 05 00 13 	add  %l4, %l3, %l0
40005e70:	02 80 01 8c 	be  400064a0 <_vfprintf_r+0x1a68>
40005e74:	23 10 00 32 	sethi  %hi(0x4000c800), %l1
40005e78:	d0 1f b8 c8 	ldd  [ %fp + -1848 ], %o0
40005e7c:	40 00 14 e0 	call  4000b1fc <__eqdf2>
40005e80:	d4 1c 62 e0 	ldd  [ %l1 + 0x2e0 ], %o2
40005e84:	80 a2 20 00 	cmp  %o0, 0
40005e88:	12 80 00 04 	bne  40005e98 <_vfprintf_r+0x1460>
40005e8c:	da 07 b8 fc 	ld  [ %fp + -1796 ], %o5
40005e90:	9a 10 00 10 	mov  %l0, %o5
40005e94:	e0 27 b8 fc 	st  %l0, [ %fp + -1796 ]
40005e98:	80 a3 40 10 	cmp  %o5, %l0
40005e9c:	1a 80 00 07 	bcc  40005eb8 <_vfprintf_r+0x1480>
40005ea0:	82 10 20 30 	mov  0x30, %g1
40005ea4:	c2 2b 40 00 	stb  %g1, [ %o5 ]
40005ea8:	9a 03 60 01 	inc  %o5
40005eac:	80 a3 40 10 	cmp  %o5, %l0
40005eb0:	0a bf ff fd 	bcs  40005ea4 <_vfprintf_r+0x146c>
40005eb4:	da 27 b8 fc 	st  %o5, [ %fp + -1796 ]
40005eb8:	d8 07 b8 c0 	ld  [ %fp + -1856 ], %o4
40005ebc:	80 a0 00 0c 	cmp  %g0, %o4
40005ec0:	82 60 3f ff 	subx  %g0, -1, %g1
40005ec4:	d0 07 b8 c4 	ld  [ %fp + -1852 ], %o0
40005ec8:	80 a0 00 08 	cmp  %g0, %o0
40005ecc:	9a 23 40 14 	sub  %o5, %l4, %o5
40005ed0:	98 60 3f ff 	subx  %g0, -1, %o4
40005ed4:	da 27 b9 04 	st  %o5, [ %fp + -1788 ]
40005ed8:	80 90 40 0c 	orcc  %g1, %o4, %g0
40005edc:	02 80 01 3a 	be  400063c4 <_vfprintf_r+0x198c>
40005ee0:	a6 10 00 14 	mov  %l4, %l3
40005ee4:	d0 07 b9 08 	ld  [ %fp + -1784 ], %o0
40005ee8:	80 a2 3f fc 	cmp  %o0, -4
40005eec:	04 80 00 06 	ble  40005f04 <_vfprintf_r+0x14cc>
40005ef0:	9a 1d 60 67 	xor  %l5, 0x67, %o5
40005ef4:	80 a2 00 16 	cmp  %o0, %l6
40005ef8:	24 80 01 19 	ble,a   4000635c <_vfprintf_r+0x1924>
40005efc:	aa 10 20 67 	mov  0x67, %l5
40005f00:	9a 1d 60 67 	xor  %l5, 0x67, %o5
40005f04:	80 a0 00 0d 	cmp  %g0, %o5
40005f08:	82 60 20 00 	subx  %g0, 0, %g1
40005f0c:	82 08 7f e0 	and  %g1, -32, %g1
40005f10:	aa 00 60 65 	add  %g1, 0x65, %l5
40005f14:	80 a5 60 65 	cmp  %l5, 0x65
40005f18:	14 80 01 0f 	bg  40006354 <_vfprintf_r+0x191c>
40005f1c:	80 a5 60 66 	cmp  %l5, 0x66
40005f20:	90 02 3f ff 	add  %o0, -1, %o0
40005f24:	d0 27 b9 08 	st  %o0, [ %fp + -1784 ]
40005f28:	ea 2f bf f0 	stb  %l5, [ %fp + -16 ]
40005f2c:	80 a2 20 00 	cmp  %o0, 0
40005f30:	06 80 01 76 	bl  40006508 <_vfprintf_r+0x1ad0>
40005f34:	9e 10 00 08 	mov  %o0, %o7
40005f38:	82 10 20 2b 	mov  0x2b, %g1
40005f3c:	c2 2f bf f1 	stb  %g1, [ %fp + -15 ]
40005f40:	90 07 b9 40 	add  %fp, -1728, %o0
40005f44:	94 07 bf f2 	add  %fp, -14, %o2
40005f48:	80 a3 e0 09 	cmp  %o7, 9
40005f4c:	04 80 01 46 	ble  40006464 <_vfprintf_r+0x1a2c>
40005f50:	96 10 00 08 	mov  %o0, %o3
40005f54:	03 19 99 99 	sethi  %hi(0x66666400), %g1
40005f58:	92 10 62 67 	or  %g1, 0x267, %o1	! 66666667 <__end+0x2664171f>
40005f5c:	80 5b c0 09 	smul  %o7, %o1, %g0
40005f60:	83 40 00 00 	rd  %y, %g1
40005f64:	99 3b e0 1f 	sra  %o7, 0x1f, %o4
40005f68:	83 38 60 02 	sra  %g1, 2, %g1
40005f6c:	82 20 40 0c 	sub  %g1, %o4, %g1
40005f70:	9b 28 60 02 	sll  %g1, 2, %o5
40005f74:	9a 03 40 01 	add  %o5, %g1, %o5
40005f78:	9a 03 40 0d 	add  %o5, %o5, %o5
40005f7c:	9a 23 c0 0d 	sub  %o7, %o5, %o5
40005f80:	96 02 ff ff 	add  %o3, -1, %o3
40005f84:	9a 03 60 30 	add  %o5, 0x30, %o5
40005f88:	9e 10 00 01 	mov  %g1, %o7
40005f8c:	80 a0 60 09 	cmp  %g1, 9
40005f90:	14 bf ff f3 	bg  40005f5c <_vfprintf_r+0x1524>
40005f94:	da 2a c0 00 	stb  %o5, [ %o3 ]
40005f98:	96 02 ff ff 	add  %o3, -1, %o3
40005f9c:	82 00 60 30 	add  %g1, 0x30, %g1
40005fa0:	10 80 00 05 	b  40005fb4 <_vfprintf_r+0x157c>
40005fa4:	c2 2a c0 00 	stb  %g1, [ %o3 ]
40005fa8:	c2 2a 80 00 	stb  %g1, [ %o2 ]
40005fac:	96 02 e0 01 	inc  %o3
40005fb0:	94 02 a0 01 	inc  %o2
40005fb4:	80 a2 00 0b 	cmp  %o0, %o3
40005fb8:	38 bf ff fc 	bgu,a   40005fa8 <_vfprintf_r+0x1570>
40005fbc:	c2 0a c0 00 	ldub  [ %o3 ], %g1
40005fc0:	82 07 bf f0 	add  %fp, -16, %g1
40005fc4:	94 22 80 01 	sub  %o2, %g1, %o2
40005fc8:	da 07 b9 04 	ld  [ %fp + -1788 ], %o5
40005fcc:	d4 27 b8 dc 	st  %o2, [ %fp + -1828 ]
40005fd0:	80 a3 60 01 	cmp  %o5, 1
40005fd4:	04 80 00 e7 	ble  40006370 <_vfprintf_r+0x1938>
40005fd8:	a8 02 80 0d 	add  %o2, %o5, %l4
40005fdc:	a8 05 20 01 	inc  %l4
40005fe0:	c2 4f b9 0f 	ldsb  [ %fp + -1777 ], %g1
40005fe4:	80 a0 60 00 	cmp  %g1, 0
40005fe8:	02 bf fb 8c 	be  40004e18 <_vfprintf_r+0x3e0>
40005fec:	80 a5 00 18 	cmp  %l4, %i0
40005ff0:	82 10 20 2d 	mov  0x2d, %g1
40005ff4:	10 bf fb 89 	b  40004e18 <_vfprintf_r+0x3e0>
40005ff8:	c2 2f b8 f7 	stb  %g1, [ %fp + -1801 ]
40005ffc:	02 80 00 9c 	be  4000626c <_vfprintf_r+0x1834>
40006000:	da 06 c0 00 	ld  [ %i3 ], %o5
40006004:	d6 07 b8 f0 	ld  [ %fp + -1808 ], %o3
40006008:	d6 33 40 00 	sth  %o3, [ %o5 ]
4000600c:	10 bf fa b5 	b  40004ae0 <_vfprintf_r+0xa8>
40006010:	b6 06 e0 04 	add  %i3, 4, %i3
40006014:	90 10 00 19 	mov  %i1, %o0
40006018:	7f ff fa 78 	call  400049f8 <__sprint>
4000601c:	92 07 bf e0 	add  %fp, -32, %o1
40006020:	80 a2 20 00 	cmp  %o0, 0
40006024:	12 bf fe 3a 	bne  4000590c <_vfprintf_r+0xed4>
40006028:	a4 10 00 1c 	mov  %i4, %l2
4000602c:	10 bf fd d4 	b  4000577c <_vfprintf_r+0xd44>
40006030:	da 07 b9 08 	ld  [ %fp + -1784 ], %o5
40006034:	da 2f be 40 	stb  %o5, [ %fp + -448 ]
40006038:	b6 06 e0 04 	add  %i3, 4, %i3
4000603c:	a8 10 20 01 	mov  1, %l4
40006040:	10 bf fb 75 	b  40004e14 <_vfprintf_r+0x3dc>
40006044:	c0 2f b8 f7 	clrb  [ %fp + -1801 ]
40006048:	82 15 e3 68 	or  %l7, 0x368, %g1
4000604c:	e0 24 a0 04 	st  %l0, [ %l2 + 4 ]
40006050:	c2 24 80 00 	st  %g1, [ %l2 ]
40006054:	da 07 bf e8 	ld  [ %fp + -24 ], %o5
40006058:	c2 07 bf e4 	ld  [ %fp + -28 ], %g1
4000605c:	82 00 60 01 	inc  %g1
40006060:	9a 03 40 10 	add  %o5, %l0, %o5
40006064:	da 27 bf e8 	st  %o5, [ %fp + -24 ]
40006068:	80 a0 60 07 	cmp  %g1, 7
4000606c:	a4 04 a0 08 	add  %l2, 8, %l2
40006070:	14 80 00 c5 	bg  40006384 <_vfprintf_r+0x194c>
40006074:	c2 27 bf e4 	st  %g1, [ %fp + -28 ]
40006078:	80 8f 60 01 	btst  1, %i5
4000607c:	02 bf fb f9 	be  40005060 <_vfprintf_r+0x628>
40006080:	80 8f 60 04 	btst  4, %i5
40006084:	03 10 00 32 	sethi  %hi(0x4000c800), %g1
40006088:	9a 10 20 01 	mov  1, %o5
4000608c:	82 10 60 28 	or  %g1, 0x28, %g1
40006090:	da 24 a0 04 	st  %o5, [ %l2 + 4 ]
40006094:	c2 24 80 00 	st  %g1, [ %l2 ]
40006098:	da 07 bf e4 	ld  [ %fp + -28 ], %o5
4000609c:	c2 07 bf e8 	ld  [ %fp + -24 ], %g1
400060a0:	9a 03 60 01 	inc  %o5
400060a4:	10 bf fb e8 	b  40005044 <_vfprintf_r+0x60c>
400060a8:	82 00 60 01 	inc  %g1
400060ac:	82 15 e3 68 	or  %l7, 0x368, %g1
400060b0:	e0 24 a0 04 	st  %l0, [ %l2 + 4 ]
400060b4:	c2 24 80 00 	st  %g1, [ %l2 ]
400060b8:	da 07 bf e8 	ld  [ %fp + -24 ], %o5
400060bc:	c2 07 bf e4 	ld  [ %fp + -28 ], %g1
400060c0:	9a 03 40 10 	add  %o5, %l0, %o5
400060c4:	10 bf fe 46 	b  400059dc <_vfprintf_r+0xfa4>
400060c8:	82 00 60 01 	inc  %g1
400060cc:	06 bf fb 4f 	bl  40004e08 <_vfprintf_r+0x3d0>
400060d0:	90 10 00 13 	mov  %l3, %o0
400060d4:	92 10 20 00 	clr  %o1
400060d8:	40 00 0c ef 	call  40009494 <memchr>
400060dc:	94 10 00 16 	mov  %l6, %o2
400060e0:	80 a2 20 00 	cmp  %o0, 0
400060e4:	02 bf fb 4c 	be  40004e14 <_vfprintf_r+0x3dc>
400060e8:	a8 10 00 16 	mov  %l6, %l4
400060ec:	a8 22 00 13 	sub  %o0, %l3, %l4
400060f0:	80 a5 00 16 	cmp  %l4, %l6
400060f4:	34 bf fb 48 	bg,a   40004e14 <_vfprintf_r+0x3dc>
400060f8:	a8 10 00 16 	mov  %l6, %l4
400060fc:	10 bf fb 47 	b  40004e18 <_vfprintf_r+0x3e0>
40006100:	80 a5 00 18 	cmp  %l4, %i0
40006104:	90 10 00 19 	mov  %i1, %o0
40006108:	7f ff fa 3c 	call  400049f8 <__sprint>
4000610c:	92 07 bf e0 	add  %fp, -32, %o1
40006110:	80 a2 20 00 	cmp  %o0, 0
40006114:	12 bf fd fe 	bne  4000590c <_vfprintf_r+0xed4>
40006118:	a4 10 00 1c 	mov  %i4, %l2
4000611c:	10 bf fd ac 	b  400057cc <_vfprintf_r+0xd94>
40006120:	c2 07 b9 04 	ld  [ %fp + -1788 ], %g1
40006124:	82 15 e3 68 	or  %l7, 0x368, %g1
40006128:	e0 24 a0 04 	st  %l0, [ %l2 + 4 ]
4000612c:	c2 24 80 00 	st  %g1, [ %l2 ]
40006130:	da 07 bf e8 	ld  [ %fp + -24 ], %o5
40006134:	c2 07 bf e4 	ld  [ %fp + -28 ], %g1
40006138:	82 00 60 01 	inc  %g1
4000613c:	9a 03 40 10 	add  %o5, %l0, %o5
40006140:	da 27 bf e8 	st  %o5, [ %fp + -24 ]
40006144:	80 a0 60 07 	cmp  %g1, 7
40006148:	a4 04 a0 08 	add  %l2, 8, %l2
4000614c:	10 bf fd cc 	b  4000587c <_vfprintf_r+0xe44>
40006150:	c2 27 bf e4 	st  %g1, [ %fp + -28 ]
40006154:	03 10 00 32 	sethi  %hi(0x4000c800), %g1
40006158:	82 10 63 d0 	or  %g1, 0x3d0, %g1	! 4000cbd0 <zeroes.1+0x68>
4000615c:	a0 10 20 01 	mov  1, %l0
40006160:	e0 24 a0 04 	st  %l0, [ %l2 + 4 ]
40006164:	c2 24 80 00 	st  %g1, [ %l2 ]
40006168:	da 07 bf e4 	ld  [ %fp + -28 ], %o5
4000616c:	c2 07 bf e8 	ld  [ %fp + -24 ], %g1
40006170:	9a 03 60 01 	inc  %o5
40006174:	82 00 60 01 	inc  %g1
40006178:	c2 27 bf e8 	st  %g1, [ %fp + -24 ]
4000617c:	80 a3 60 07 	cmp  %o5, 7
40006180:	a4 04 a0 08 	add  %l2, 8, %l2
40006184:	14 80 00 88 	bg  400063a4 <_vfprintf_r+0x196c>
40006188:	da 27 bf e4 	st  %o5, [ %fp + -28 ]
4000618c:	c2 07 b9 08 	ld  [ %fp + -1784 ], %g1
40006190:	80 a0 60 00 	cmp  %g1, 0
40006194:	32 80 00 07 	bne,a   400061b0 <_vfprintf_r+0x1778>
40006198:	e0 24 a0 04 	st  %l0, [ %l2 + 4 ]
4000619c:	c2 07 b9 04 	ld  [ %fp + -1788 ], %g1
400061a0:	80 a0 60 00 	cmp  %g1, 0
400061a4:	02 bf fb af 	be  40005060 <_vfprintf_r+0x628>
400061a8:	80 8f 60 04 	btst  4, %i5
400061ac:	e0 24 a0 04 	st  %l0, [ %l2 + 4 ]
400061b0:	da 07 bf e4 	ld  [ %fp + -28 ], %o5
400061b4:	c2 07 bf e8 	ld  [ %fp + -24 ], %g1
400061b8:	d0 07 b8 e8 	ld  [ %fp + -1816 ], %o0
400061bc:	9a 03 60 01 	inc  %o5
400061c0:	d0 24 80 00 	st  %o0, [ %l2 ]
400061c4:	82 00 60 01 	inc  %g1
400061c8:	c2 27 bf e8 	st  %g1, [ %fp + -24 ]
400061cc:	80 a3 60 07 	cmp  %o5, 7
400061d0:	a4 04 a0 08 	add  %l2, 8, %l2
400061d4:	14 80 00 85 	bg  400063e8 <_vfprintf_r+0x19b0>
400061d8:	da 27 bf e4 	st  %o5, [ %fp + -28 ]
400061dc:	c2 07 b9 08 	ld  [ %fp + -1784 ], %g1
400061e0:	a0 20 00 01 	neg  %g1, %l0
400061e4:	80 a4 20 00 	cmp  %l0, 0
400061e8:	04 80 00 50 	ble  40006328 <_vfprintf_r+0x18f0>
400061ec:	c2 07 b9 04 	ld  [ %fp + -1788 ], %g1
400061f0:	80 a4 20 10 	cmp  %l0, 0x10
400061f4:	04 80 00 40 	ble  400062f4 <_vfprintf_r+0x18bc>
400061f8:	2f 10 00 32 	sethi  %hi(0x4000c800), %l7
400061fc:	10 80 00 06 	b  40006214 <_vfprintf_r+0x17dc>
40006200:	a2 15 e3 68 	or  %l7, 0x368, %l1	! 4000cb68 <zeroes.1>
40006204:	a0 04 3f f0 	add  %l0, -16, %l0
40006208:	80 a4 20 10 	cmp  %l0, 0x10
4000620c:	04 80 00 3b 	ble  400062f8 <_vfprintf_r+0x18c0>
40006210:	82 15 e3 68 	or  %l7, 0x368, %g1
40006214:	82 10 20 10 	mov  0x10, %g1
40006218:	c2 24 a0 04 	st  %g1, [ %l2 + 4 ]
4000621c:	da 07 bf e4 	ld  [ %fp + -28 ], %o5
40006220:	c2 07 bf e8 	ld  [ %fp + -24 ], %g1
40006224:	9a 03 60 01 	inc  %o5
40006228:	e2 24 80 00 	st  %l1, [ %l2 ]
4000622c:	82 00 60 10 	add  %g1, 0x10, %g1
40006230:	c2 27 bf e8 	st  %g1, [ %fp + -24 ]
40006234:	80 a3 60 07 	cmp  %o5, 7
40006238:	a4 04 a0 08 	add  %l2, 8, %l2
4000623c:	04 bf ff f2 	ble  40006204 <_vfprintf_r+0x17cc>
40006240:	da 27 bf e4 	st  %o5, [ %fp + -28 ]
40006244:	90 10 00 19 	mov  %i1, %o0
40006248:	7f ff f9 ec 	call  400049f8 <__sprint>
4000624c:	92 07 bf e0 	add  %fp, -32, %o1
40006250:	80 a2 20 00 	cmp  %o0, 0
40006254:	12 bf fd ae 	bne  4000590c <_vfprintf_r+0xed4>
40006258:	a4 10 00 1c 	mov  %i4, %l2
4000625c:	10 bf ff eb 	b  40006208 <_vfprintf_r+0x17d0>
40006260:	a0 04 3f f0 	add  %l0, -16, %l0
40006264:	10 bf fc 89 	b  40005488 <_vfprintf_r+0xa50>
40006268:	ac 10 20 06 	mov  6, %l6
4000626c:	d8 07 b8 f0 	ld  [ %fp + -1808 ], %o4
40006270:	d8 23 40 00 	st  %o4, [ %o5 ]
40006274:	10 bf fa 1b 	b  40004ae0 <_vfprintf_r+0xa8>
40006278:	b6 06 e0 04 	add  %i3, 4, %i3
4000627c:	03 10 00 32 	sethi  %hi(0x4000c800), %g1
40006280:	a6 10 63 e0 	or  %g1, 0x3e0, %l3	! 4000cbe0 <zeroes.1+0x78>
40006284:	10 bf fa e4 	b  40004e14 <_vfprintf_r+0x3dc>
40006288:	a8 10 20 06 	mov  6, %l4
4000628c:	90 10 00 19 	mov  %i1, %o0
40006290:	7f ff f9 da 	call  400049f8 <__sprint>
40006294:	92 07 bf e0 	add  %fp, -32, %o1
40006298:	80 a2 20 00 	cmp  %o0, 0
4000629c:	12 bf fd 9c 	bne  4000590c <_vfprintf_r+0xed4>
400062a0:	a4 10 00 1c 	mov  %i4, %l2
400062a4:	10 bf fd fa 	b  40005a8c <_vfprintf_r+0x1054>
400062a8:	da 07 b9 08 	ld  [ %fp + -1784 ], %o5
400062ac:	90 10 00 19 	mov  %i1, %o0
400062b0:	7f ff f9 d2 	call  400049f8 <__sprint>
400062b4:	92 07 bf e0 	add  %fp, -32, %o1
400062b8:	80 a2 20 00 	cmp  %o0, 0
400062bc:	12 bf fd 94 	bne  4000590c <_vfprintf_r+0xed4>
400062c0:	a4 10 00 1c 	mov  %i4, %l2
400062c4:	10 bf fe a1 	b  40005d48 <_vfprintf_r+0x1310>
400062c8:	c2 07 b9 08 	ld  [ %fp + -1784 ], %g1
400062cc:	90 10 00 19 	mov  %i1, %o0
400062d0:	7f ff f9 ca 	call  400049f8 <__sprint>
400062d4:	92 07 bf e0 	add  %fp, -32, %o1
400062d8:	80 a2 20 00 	cmp  %o0, 0
400062dc:	12 bf fd 8c 	bne  4000590c <_vfprintf_r+0xed4>
400062e0:	a4 10 00 1c 	mov  %i4, %l2
400062e4:	10 bf fe 89 	b  40005d08 <_vfprintf_r+0x12d0>
400062e8:	03 10 00 32 	sethi  %hi(0x4000c800), %g1
400062ec:	10 bf fc 7b 	b  400054d8 <_vfprintf_r+0xaa0>
400062f0:	c2 2f b8 f7 	stb  %g1, [ %fp + -1801 ]
400062f4:	82 15 e3 68 	or  %l7, 0x368, %g1
400062f8:	e0 24 a0 04 	st  %l0, [ %l2 + 4 ]
400062fc:	c2 24 80 00 	st  %g1, [ %l2 ]
40006300:	da 07 bf e8 	ld  [ %fp + -24 ], %o5
40006304:	c2 07 bf e4 	ld  [ %fp + -28 ], %g1
40006308:	82 00 60 01 	inc  %g1
4000630c:	9a 03 40 10 	add  %o5, %l0, %o5
40006310:	da 27 bf e8 	st  %o5, [ %fp + -24 ]
40006314:	80 a0 60 07 	cmp  %g1, 7
40006318:	a4 04 a0 08 	add  %l2, 8, %l2
4000631c:	14 80 00 3f 	bg  40006418 <_vfprintf_r+0x19e0>
40006320:	c2 27 bf e4 	st  %g1, [ %fp + -28 ]
40006324:	c2 07 b9 04 	ld  [ %fp + -1788 ], %g1
40006328:	c2 24 a0 04 	st  %g1, [ %l2 + 4 ]
4000632c:	da 07 bf e8 	ld  [ %fp + -24 ], %o5
40006330:	d8 07 bf e4 	ld  [ %fp + -28 ], %o4
40006334:	98 03 20 01 	inc  %o4
40006338:	e6 24 80 00 	st  %l3, [ %l2 ]
4000633c:	9a 03 40 01 	add  %o5, %g1, %o5
40006340:	da 27 bf e8 	st  %o5, [ %fp + -24 ]
40006344:	80 a3 20 07 	cmp  %o4, 7
40006348:	a4 04 a0 08 	add  %l2, 8, %l2
4000634c:	10 bf fb 42 	b  40005054 <_vfprintf_r+0x61c>
40006350:	d8 27 bf e4 	st  %o4, [ %fp + -28 ]
40006354:	02 80 00 71 	be  40006518 <_vfprintf_r+0x1ae0>
40006358:	80 a2 20 00 	cmp  %o0, 0
4000635c:	da 07 b9 04 	ld  [ %fp + -1788 ], %o5
40006360:	80 a2 00 0d 	cmp  %o0, %o5
40006364:	06 80 00 64 	bl  400064f4 <_vfprintf_r+0x1abc>
40006368:	82 23 40 08 	sub  %o5, %o0, %g1
4000636c:	a8 10 00 08 	mov  %o0, %l4
40006370:	80 8f 60 01 	btst  1, %i5
40006374:	02 bf ff 1c 	be  40005fe4 <_vfprintf_r+0x15ac>
40006378:	c2 4f b9 0f 	ldsb  [ %fp + -1777 ], %g1
4000637c:	10 bf ff 1a 	b  40005fe4 <_vfprintf_r+0x15ac>
40006380:	a8 05 20 01 	inc  %l4
40006384:	90 10 00 19 	mov  %i1, %o0
40006388:	7f ff f9 9c 	call  400049f8 <__sprint>
4000638c:	92 07 bf e0 	add  %fp, -32, %o1
40006390:	80 a2 20 00 	cmp  %o0, 0
40006394:	12 bf fd 5e 	bne  4000590c <_vfprintf_r+0xed4>
40006398:	a4 10 00 1c 	mov  %i4, %l2
4000639c:	10 bf ff 38 	b  4000607c <_vfprintf_r+0x1644>
400063a0:	80 8f 60 01 	btst  1, %i5
400063a4:	90 10 00 19 	mov  %i1, %o0
400063a8:	7f ff f9 94 	call  400049f8 <__sprint>
400063ac:	92 07 bf e0 	add  %fp, -32, %o1
400063b0:	80 a2 20 00 	cmp  %o0, 0
400063b4:	12 bf fd 56 	bne  4000590c <_vfprintf_r+0xed4>
400063b8:	a4 10 00 1c 	mov  %i4, %l2
400063bc:	10 bf ff 75 	b  40006190 <_vfprintf_r+0x1758>
400063c0:	c2 07 b9 08 	ld  [ %fp + -1784 ], %g1
400063c4:	10 bf fe d4 	b  40005f14 <_vfprintf_r+0x14dc>
400063c8:	d0 07 b9 08 	ld  [ %fp + -1784 ], %o0
400063cc:	80 88 62 00 	btst  0x200, %g1
400063d0:	32 80 00 79 	bne,a   400065b4 <_vfprintf_r+0x1b7c>
400063d4:	90 10 3f ff 	mov  -1, %o0
400063d8:	40 00 15 5f 	call  4000b954 <___st_pthread_mutex_unlock>
400063dc:	90 06 60 58 	add  %i1, 0x58, %o0
400063e0:	10 80 00 75 	b  400065b4 <_vfprintf_r+0x1b7c>
400063e4:	90 10 3f ff 	mov  -1, %o0
400063e8:	90 10 00 19 	mov  %i1, %o0
400063ec:	7f ff f9 83 	call  400049f8 <__sprint>
400063f0:	92 07 bf e0 	add  %fp, -32, %o1
400063f4:	80 a2 20 00 	cmp  %o0, 0
400063f8:	12 bf fd 45 	bne  4000590c <_vfprintf_r+0xed4>
400063fc:	a4 10 00 1c 	mov  %i4, %l2
40006400:	10 bf ff 78 	b  400061e0 <_vfprintf_r+0x17a8>
40006404:	c2 07 b9 08 	ld  [ %fp + -1784 ], %g1
40006408:	c2 16 60 0c 	lduh  [ %i1 + 0xc ], %g1
4000640c:	82 10 60 40 	or  %g1, 0x40, %g1
40006410:	10 bf fd 3f 	b  4000590c <_vfprintf_r+0xed4>
40006414:	c2 36 60 0c 	sth  %g1, [ %i1 + 0xc ]
40006418:	90 10 00 19 	mov  %i1, %o0
4000641c:	7f ff f9 77 	call  400049f8 <__sprint>
40006420:	92 07 bf e0 	add  %fp, -32, %o1
40006424:	80 a2 20 00 	cmp  %o0, 0
40006428:	12 bf fd 39 	bne  4000590c <_vfprintf_r+0xed4>
4000642c:	a4 10 00 1c 	mov  %i4, %l2
40006430:	10 bf ff be 	b  40006328 <_vfprintf_r+0x18f0>
40006434:	c2 07 b9 04 	ld  [ %fp + -1788 ], %g1
40006438:	d0 07 a0 44 	ld  [ %fp + 0x44 ], %o0
4000643c:	92 10 20 00 	clr  %o1
40006440:	94 07 b8 f8 	add  %fp, -1800, %o2
40006444:	96 10 20 00 	clr  %o3
40006448:	40 00 00 d2 	call  40006790 <_wcsrtombs_r>
4000644c:	98 10 00 17 	mov  %l7, %o4
40006450:	80 a2 3f ff 	cmp  %o0, -1
40006454:	02 bf ff ed 	be  40006408 <_vfprintf_r+0x19d0>
40006458:	a8 10 00 08 	mov  %o0, %l4
4000645c:	10 bf fb d7 	b  400053b8 <_vfprintf_r+0x980>
40006460:	e6 27 b8 f8 	st  %l3, [ %fp + -1800 ]
40006464:	82 10 20 30 	mov  0x30, %g1
40006468:	c2 2a 80 00 	stb  %g1, [ %o2 ]
4000646c:	94 02 a0 01 	inc  %o2
40006470:	82 03 e0 30 	add  %o7, 0x30, %g1
40006474:	c2 2a 80 00 	stb  %g1, [ %o2 ]
40006478:	10 bf fe d2 	b  40005fc0 <_vfprintf_r+0x1588>
4000647c:	94 02 a0 01 	inc  %o2
40006480:	c2 2a 80 00 	stb  %g1, [ %o2 ]
40006484:	d0 1f b8 c8 	ldd  [ %fp + -1848 ], %o0
40006488:	19 20 00 00 	sethi  %hi(0x80000000), %o4
4000648c:	9a 10 20 00 	clr  %o5
40006490:	90 1b 00 08 	xor  %o4, %o0, %o0
40006494:	92 1b 40 09 	xor  %o5, %o1, %o1
40006498:	10 bf fe 5c 	b  40005e08 <_vfprintf_r+0x13d0>
4000649c:	d0 3f b8 c8 	std  %o0, [ %fp + -1848 ]
400064a0:	c2 4d 00 00 	ldsb  [ %l4 ], %g1
400064a4:	80 a0 60 30 	cmp  %g1, 0x30
400064a8:	02 80 00 26 	be  40006540 <_vfprintf_r+0x1b08>
400064ac:	d0 1f b8 c8 	ldd  [ %fp + -1848 ], %o0
400064b0:	c2 05 c0 00 	ld  [ %l7 ], %g1
400064b4:	23 10 00 32 	sethi  %hi(0x4000c800), %l1
400064b8:	10 bf fe 71 	b  40005e7c <_vfprintf_r+0x1444>
400064bc:	a0 04 00 01 	add  %l0, %g1, %l0
400064c0:	c2 07 bf e8 	ld  [ %fp + -24 ], %g1
400064c4:	80 a0 60 00 	cmp  %g1, 0
400064c8:	12 80 00 04 	bne  400064d8 <_vfprintf_r+0x1aa0>
400064cc:	90 10 00 19 	mov  %i1, %o0
400064d0:	10 bf fd 0f 	b  4000590c <_vfprintf_r+0xed4>
400064d4:	c0 27 bf e4 	clr  [ %fp + -28 ]
400064d8:	7f ff f9 48 	call  400049f8 <__sprint>
400064dc:	92 07 bf e0 	add  %fp, -32, %o1
400064e0:	80 a2 20 00 	cmp  %o0, 0
400064e4:	22 bf fd 0a 	be,a   4000590c <_vfprintf_r+0xed4>
400064e8:	c0 27 bf e4 	clr  [ %fp + -28 ]
400064ec:	10 bf fd 09 	b  40005910 <_vfprintf_r+0xed8>
400064f0:	da 07 b8 d4 	ld  [ %fp + -1836 ], %o5
400064f4:	80 a2 20 00 	cmp  %o0, 0
400064f8:	04 bf fe ba 	ble  40005fe0 <_vfprintf_r+0x15a8>
400064fc:	a8 00 60 02 	add  %g1, 2, %l4
40006500:	10 bf fe b8 	b  40005fe0 <_vfprintf_r+0x15a8>
40006504:	a8 03 60 01 	add  %o5, 1, %l4
40006508:	82 10 20 2d 	mov  0x2d, %g1
4000650c:	c2 2f bf f1 	stb  %g1, [ %fp + -15 ]
40006510:	10 bf fe 8c 	b  40005f40 <_vfprintf_r+0x1508>
40006514:	9e 20 00 08 	neg  %o0, %o7
40006518:	04 80 00 16 	ble  40006570 <_vfprintf_r+0x1b38>
4000651c:	80 a5 a0 00 	cmp  %l6, 0
40006520:	12 80 00 05 	bne  40006534 <_vfprintf_r+0x1afc>
40006524:	a8 10 00 08 	mov  %o0, %l4
40006528:	80 8f 60 01 	btst  1, %i5
4000652c:	02 bf fe ae 	be  40005fe4 <_vfprintf_r+0x15ac>
40006530:	c2 4f b9 0f 	ldsb  [ %fp + -1777 ], %g1
40006534:	82 05 80 14 	add  %l6, %l4, %g1
40006538:	10 bf fe aa 	b  40005fe0 <_vfprintf_r+0x15a8>
4000653c:	a8 00 60 01 	add  %g1, 1, %l4
40006540:	40 00 13 48 	call  4000b260 <__nedf2>
40006544:	d4 1c 62 e0 	ldd  [ %l1 + 0x2e0 ], %o2
40006548:	80 a2 20 00 	cmp  %o0, 0
4000654c:	22 80 00 07 	be,a   40006568 <_vfprintf_r+0x1b30>
40006550:	c2 05 c0 00 	ld  [ %l7 ], %g1
40006554:	82 10 20 01 	mov  1, %g1
40006558:	82 20 40 13 	sub  %g1, %l3, %g1
4000655c:	c2 25 c0 00 	st  %g1, [ %l7 ]
40006560:	10 bf fe 46 	b  40005e78 <_vfprintf_r+0x1440>
40006564:	a0 04 00 01 	add  %l0, %g1, %l0
40006568:	10 bf fe 44 	b  40005e78 <_vfprintf_r+0x1440>
4000656c:	a0 04 00 01 	add  %l0, %g1, %l0
40006570:	12 bf fe 9c 	bne  40005fe0 <_vfprintf_r+0x15a8>
40006574:	a8 05 a0 02 	add  %l6, 2, %l4
40006578:	80 8f 60 01 	btst  1, %i5
4000657c:	02 bf fe 99 	be  40005fe0 <_vfprintf_r+0x15a8>
40006580:	a8 10 20 01 	mov  1, %l4
40006584:	10 bf fe 97 	b  40005fe0 <_vfprintf_r+0x15a8>
40006588:	a8 05 a0 02 	add  %l6, 2, %l4
4000658c:	c2 16 60 0c 	lduh  [ %i1 + 0xc ], %g1
40006590:	82 10 60 40 	or  %g1, 0x40, %g1
40006594:	10 bf fc e4 	b  40005924 <_vfprintf_r+0xeec>
40006598:	c2 36 60 0c 	sth  %g1, [ %i1 + 0xc ]
4000659c:	ec 06 c0 00 	ld  [ %i3 ], %l6
400065a0:	80 a5 a0 00 	cmp  %l6, 0
400065a4:	16 bf f9 7e 	bge  40004b9c <_vfprintf_r+0x164>
400065a8:	b6 06 e0 04 	add  %i3, 4, %i3
400065ac:	10 bf f9 7c 	b  40004b9c <_vfprintf_r+0x164>
400065b0:	ac 10 3f ff 	mov  -1, %l6
400065b4:	81 c7 e0 08 	ret 
400065b8:	91 e8 00 08 	restore  %g0, %o0, %o0

400065bc <vfprintf>:
400065bc:	9a 10 00 08 	mov  %o0, %o5
400065c0:	98 10 00 09 	mov  %o1, %o4
400065c4:	96 10 00 0a 	mov  %o2, %o3
400065c8:	03 10 00 36 	sethi  %hi(0x4000d800), %g1
400065cc:	d0 00 61 a8 	ld  [ %g1 + 0x1a8 ], %o0	! 4000d9a8 <_impure_ptr>
400065d0:	92 10 00 0d 	mov  %o5, %o1
400065d4:	94 10 00 0c 	mov  %o4, %o2
400065d8:	82 13 c0 00 	mov  %o7, %g1
400065dc:	7f ff f9 17 	call  40004a38 <_vfprintf_r>
400065e0:	9e 10 40 00 	mov  %g1, %o7
400065e4:	01 00 00 00 	nop 

400065e8 <__swbuf>:
400065e8:	9d e3 bf 98 	save  %sp, -104, %sp
400065ec:	03 10 00 36 	sethi  %hi(0x4000d800), %g1
400065f0:	d0 00 61 a8 	ld  [ %g1 + 0x1a8 ], %o0	! 4000d9a8 <_impure_ptr>
400065f4:	80 a2 20 00 	cmp  %o0, 0
400065f8:	22 80 00 07 	be,a   40006614 <__swbuf+0x2c>
400065fc:	c2 06 60 18 	ld  [ %i1 + 0x18 ], %g1
40006600:	c2 02 20 38 	ld  [ %o0 + 0x38 ], %g1
40006604:	80 a0 60 00 	cmp  %g1, 0
40006608:	02 80 00 3d 	be  400066fc <__swbuf+0x114>
4000660c:	01 00 00 00 	nop 
40006610:	c2 06 60 18 	ld  [ %i1 + 0x18 ], %g1
40006614:	da 16 60 0c 	lduh  [ %i1 + 0xc ], %o5
40006618:	80 8b 60 08 	btst  8, %o5
4000661c:	02 80 00 24 	be  400066ac <__swbuf+0xc4>
40006620:	c2 26 60 08 	st  %g1, [ %i1 + 8 ]
40006624:	c2 06 60 10 	ld  [ %i1 + 0x10 ], %g1
40006628:	80 a0 60 00 	cmp  %g1, 0
4000662c:	02 80 00 20 	be  400066ac <__swbuf+0xc4>
40006630:	01 00 00 00 	nop 
40006634:	da 06 40 00 	ld  [ %i1 ], %o5
40006638:	98 23 40 01 	sub  %o5, %g1, %o4
4000663c:	c2 06 60 14 	ld  [ %i1 + 0x14 ], %g1
40006640:	80 a0 40 0c 	cmp  %g1, %o4
40006644:	04 80 00 26 	ble  400066dc <__swbuf+0xf4>
40006648:	b0 0e 20 ff 	and  %i0, 0xff, %i0
4000664c:	c2 06 60 08 	ld  [ %i1 + 8 ], %g1
40006650:	82 00 7f ff 	add  %g1, -1, %g1
40006654:	c2 26 60 08 	st  %g1, [ %i1 + 8 ]
40006658:	f0 2b 40 00 	stb  %i0, [ %o5 ]
4000665c:	9a 03 60 01 	inc  %o5
40006660:	98 03 20 01 	inc  %o4
40006664:	c2 06 60 14 	ld  [ %i1 + 0x14 ], %g1
40006668:	80 a3 00 01 	cmp  %o4, %g1
4000666c:	02 80 00 09 	be  40006690 <__swbuf+0xa8>
40006670:	da 26 40 00 	st  %o5, [ %i1 ]
40006674:	82 1e 20 0a 	xor  %i0, 0xa, %g1
40006678:	80 a0 00 01 	cmp  %g0, %g1
4000667c:	9a 60 3f ff 	subx  %g0, -1, %o5
40006680:	c2 16 60 0c 	lduh  [ %i1 + 0xc ], %g1
40006684:	80 88 40 0d 	btst  %g1, %o5
40006688:	02 80 00 21 	be  4000670c <__swbuf+0x124>
4000668c:	82 10 00 18 	mov  %i0, %g1
40006690:	40 00 07 6e 	call  40008448 <fflush>
40006694:	90 10 00 19 	mov  %i1, %o0
40006698:	80 a2 20 00 	cmp  %o0, 0
4000669c:	12 80 00 1c 	bne  4000670c <__swbuf+0x124>
400066a0:	82 10 3f ff 	mov  -1, %g1
400066a4:	10 80 00 1a 	b  4000670c <__swbuf+0x124>
400066a8:	82 10 00 18 	mov  %i0, %g1
400066ac:	40 00 01 a8 	call  40006d4c <__swsetup>
400066b0:	90 10 00 19 	mov  %i1, %o0
400066b4:	80 a2 20 00 	cmp  %o0, 0
400066b8:	12 80 00 15 	bne  4000670c <__swbuf+0x124>
400066bc:	82 10 3f ff 	mov  -1, %g1
400066c0:	c2 06 60 10 	ld  [ %i1 + 0x10 ], %g1
400066c4:	da 06 40 00 	ld  [ %i1 ], %o5
400066c8:	98 23 40 01 	sub  %o5, %g1, %o4
400066cc:	c2 06 60 14 	ld  [ %i1 + 0x14 ], %g1
400066d0:	80 a0 40 0c 	cmp  %g1, %o4
400066d4:	14 bf ff de 	bg  4000664c <__swbuf+0x64>
400066d8:	b0 0e 20 ff 	and  %i0, 0xff, %i0
400066dc:	40 00 07 5b 	call  40008448 <fflush>
400066e0:	90 10 00 19 	mov  %i1, %o0
400066e4:	80 a2 20 00 	cmp  %o0, 0
400066e8:	12 80 00 09 	bne  4000670c <__swbuf+0x124>
400066ec:	82 10 3f ff 	mov  -1, %g1
400066f0:	98 10 20 00 	clr  %o4
400066f4:	10 bf ff d6 	b  4000664c <__swbuf+0x64>
400066f8:	da 06 40 00 	ld  [ %i1 ], %o5
400066fc:	40 00 07 e5 	call  40008690 <__sinit>
40006700:	01 00 00 00 	nop 
40006704:	10 bf ff c4 	b  40006614 <__swbuf+0x2c>
40006708:	c2 06 60 18 	ld  [ %i1 + 0x18 ], %g1
4000670c:	81 c7 e0 08 	ret 
40006710:	91 e8 00 01 	restore  %g0, %g1, %o0

40006714 <_wcrtomb_r>:
40006714:	9d e3 bf 88 	save  %sp, -120, %sp
40006718:	92 07 bf e8 	add  %fp, -24, %o1
4000671c:	94 10 20 00 	clr  %o2
40006720:	90 10 00 18 	mov  %i0, %o0
40006724:	80 a6 60 00 	cmp  %i1, 0
40006728:	02 80 00 06 	be  40006740 <_wcrtomb_r+0x2c>
4000672c:	96 10 00 1b 	mov  %i3, %o3
40006730:	92 10 00 19 	mov  %i1, %o1
40006734:	94 10 00 1a 	mov  %i2, %o2
40006738:	90 10 00 18 	mov  %i0, %o0
4000673c:	96 10 00 1b 	mov  %i3, %o3
40006740:	40 00 00 63 	call  400068cc <_wctomb_r>
40006744:	01 00 00 00 	nop 
40006748:	80 a2 3f ff 	cmp  %o0, -1
4000674c:	12 80 00 04 	bne  4000675c <_wcrtomb_r+0x48>
40006750:	82 10 20 8a 	mov  0x8a, %g1
40006754:	c0 26 c0 00 	clr  [ %i3 ]
40006758:	c2 26 00 00 	st  %g1, [ %i0 ]
4000675c:	81 c7 e0 08 	ret 
40006760:	91 e8 00 08 	restore  %g0, %o0, %o0

40006764 <wcrtomb>:
40006764:	9a 10 00 08 	mov  %o0, %o5
40006768:	98 10 00 09 	mov  %o1, %o4
4000676c:	96 10 00 0a 	mov  %o2, %o3
40006770:	03 10 00 36 	sethi  %hi(0x4000d800), %g1
40006774:	d0 00 61 a8 	ld  [ %g1 + 0x1a8 ], %o0	! 4000d9a8 <_impure_ptr>
40006778:	92 10 00 0d 	mov  %o5, %o1
4000677c:	94 10 00 0c 	mov  %o4, %o2
40006780:	82 13 c0 00 	mov  %o7, %g1
40006784:	7f ff ff e4 	call  40006714 <_wcrtomb_r>
40006788:	9e 10 40 00 	mov  %g1, %o7
4000678c:	01 00 00 00 	nop 

40006790 <_wcsrtombs_r>:
40006790:	9d e3 bf 88 	save  %sp, -120, %sp
40006794:	a0 10 00 19 	mov  %i1, %l0
40006798:	80 a6 60 00 	cmp  %i1, 0
4000679c:	02 80 00 2f 	be  40006858 <_wcsrtombs_r+0xc8>
400067a0:	ac 10 00 18 	mov  %i0, %l6
400067a4:	b0 10 20 00 	clr  %i0
400067a8:	80 a6 00 1b 	cmp  %i0, %i3
400067ac:	1a 80 00 3a 	bcc  40006894 <_wcsrtombs_r+0x104>
400067b0:	e2 06 80 00 	ld  [ %i2 ], %l1
400067b4:	aa 07 bf e8 	add  %fp, -24, %l5
400067b8:	a6 07 bf f8 	add  %fp, -8, %l3
400067bc:	e8 07 00 00 	ld  [ %i4 ], %l4
400067c0:	e4 07 20 04 	ld  [ %i4 + 4 ], %l2
400067c4:	90 10 00 16 	mov  %l6, %o0
400067c8:	92 10 00 15 	mov  %l5, %o1
400067cc:	d4 04 40 00 	ld  [ %l1 ], %o2
400067d0:	7f ff ff d1 	call  40006714 <_wcrtomb_r>
400067d4:	96 10 00 1c 	mov  %i4, %o3
400067d8:	80 a2 3f ff 	cmp  %o0, -1
400067dc:	02 80 00 21 	be  40006860 <_wcsrtombs_r+0xd0>
400067e0:	82 26 c0 08 	sub  %i3, %o0, %g1
400067e4:	80 a0 40 18 	cmp  %g1, %i0
400067e8:	9a 60 3f ff 	subx  %g0, -1, %o5
400067ec:	80 a2 00 1b 	cmp  %o0, %i3
400067f0:	82 40 20 00 	addx  %g0, 0, %g1
400067f4:	80 8b 40 01 	btst  %o5, %g1
400067f8:	02 80 00 1f 	be  40006874 <_wcsrtombs_r+0xe4>
400067fc:	80 a6 60 00 	cmp  %i1, 0
40006800:	02 80 00 0e 	be  40006838 <_wcsrtombs_r+0xa8>
40006804:	b0 06 00 08 	add  %i0, %o0, %i0
40006808:	10 80 00 06 	b  40006820 <_wcsrtombs_r+0x90>
4000680c:	98 10 20 00 	clr  %o4
40006810:	da 08 7f f0 	ldub  [ %g1 + -16 ], %o5
40006814:	da 2c 00 00 	stb  %o5, [ %l0 ]
40006818:	98 03 20 01 	inc  %o4
4000681c:	a0 04 20 01 	inc  %l0
40006820:	80 a3 00 08 	cmp  %o4, %o0
40006824:	06 bf ff fb 	bl  40006810 <_wcsrtombs_r+0x80>
40006828:	82 04 c0 0c 	add  %l3, %o4, %g1
4000682c:	c2 06 80 00 	ld  [ %i2 ], %g1
40006830:	82 00 60 04 	add  %g1, 4, %g1
40006834:	c2 26 80 00 	st  %g1, [ %i2 ]
40006838:	c2 04 40 00 	ld  [ %l1 ], %g1
4000683c:	80 a0 60 00 	cmp  %g1, 0
40006840:	02 80 00 10 	be  40006880 <_wcsrtombs_r+0xf0>
40006844:	a2 04 60 04 	add  %l1, 4, %l1
40006848:	80 a6 00 1b 	cmp  %i0, %i3
4000684c:	2a bf ff dd 	bcs,a   400067c0 <_wcsrtombs_r+0x30>
40006850:	e8 07 00 00 	ld  [ %i4 ], %l4
40006854:	30 80 00 10 	b,a   40006894 <_wcsrtombs_r+0x104>
40006858:	10 bf ff d3 	b  400067a4 <_wcsrtombs_r+0x14>
4000685c:	b6 10 3f ff 	mov  -1, %i3
40006860:	82 10 20 8a 	mov  0x8a, %g1
40006864:	c2 25 80 00 	st  %g1, [ %l6 ]
40006868:	c0 27 00 00 	clr  [ %i4 ]
4000686c:	10 80 00 0a 	b  40006894 <_wcsrtombs_r+0x104>
40006870:	b0 10 3f ff 	mov  -1, %i0
40006874:	e4 27 20 04 	st  %l2, [ %i4 + 4 ]
40006878:	10 80 00 07 	b  40006894 <_wcsrtombs_r+0x104>
4000687c:	e8 27 00 00 	st  %l4, [ %i4 ]
40006880:	80 a6 60 00 	cmp  %i1, 0
40006884:	32 80 00 02 	bne,a   4000688c <_wcsrtombs_r+0xfc>
40006888:	c0 26 80 00 	clr  [ %i2 ]
4000688c:	c0 27 00 00 	clr  [ %i4 ]
40006890:	b0 06 3f ff 	add  %i0, -1, %i0
40006894:	81 c7 e0 08 	ret 
40006898:	81 e8 00 00 	restore 

4000689c <wcsrtombs>:
4000689c:	9d e3 bf 98 	save  %sp, -104, %sp
400068a0:	ba 10 00 18 	mov  %i0, %i5
400068a4:	9e 10 00 19 	mov  %i1, %o7
400068a8:	9a 10 00 1a 	mov  %i2, %o5
400068ac:	b8 10 00 1b 	mov  %i3, %i4
400068b0:	03 10 00 36 	sethi  %hi(0x4000d800), %g1
400068b4:	f0 00 61 a8 	ld  [ %g1 + 0x1a8 ], %i0	! 4000d9a8 <_impure_ptr>
400068b8:	b2 10 00 1d 	mov  %i5, %i1
400068bc:	b4 10 00 0f 	mov  %o7, %i2
400068c0:	7f ff ff b4 	call  40006790 <_wcsrtombs_r>
400068c4:	97 e8 00 0d 	restore  %g0, %o5, %o3
400068c8:	01 00 00 00 	nop 

400068cc <_wctomb_r>:
400068cc:	9d e3 bf 98 	save  %sp, -104, %sp
400068d0:	31 10 00 36 	sethi  %hi(0x4000d800), %i0
400068d4:	7f ff f7 d7 	call  40004830 <strlen>
400068d8:	90 16 21 b0 	or  %i0, 0x1b0, %o0	! 4000d9b0 <__lc_ctype>
400068dc:	80 a2 20 01 	cmp  %o0, 1
400068e0:	18 80 00 08 	bgu  40006900 <_wctomb_r+0x34>
400068e4:	13 10 00 32 	sethi  %hi(0x4000c800), %o1
400068e8:	80 a6 60 00 	cmp  %i1, 0
400068ec:	02 80 01 16 	be  40006d44 <_wctomb_r+0x478>
400068f0:	b0 10 20 00 	clr  %i0
400068f4:	f4 2e 40 00 	stb  %i2, [ %i1 ]
400068f8:	10 80 01 13 	b  40006d44 <_wctomb_r+0x478>
400068fc:	b0 10 20 01 	mov  1, %i0
40006900:	92 12 63 e8 	or  %o1, 0x3e8, %o1
40006904:	40 00 11 2e 	call  4000adbc <strcmp>
40006908:	90 16 21 b0 	or  %i0, 0x1b0, %o0
4000690c:	80 a2 20 00 	cmp  %o0, 0
40006910:	12 80 00 3e 	bne  40006a08 <_wctomb_r+0x13c>
40006914:	80 a6 60 00 	cmp  %i1, 0
40006918:	02 80 01 0b 	be  40006d44 <_wctomb_r+0x478>
4000691c:	b0 10 20 00 	clr  %i0
40006920:	80 a6 a0 7f 	cmp  %i2, 0x7f
40006924:	24 bf ff f5 	ble,a   400068f8 <_wctomb_r+0x2c>
40006928:	f4 2e 40 00 	stb  %i2, [ %i1 ]
4000692c:	82 06 bf 80 	add  %i2, -128, %g1
40006930:	80 a0 67 7f 	cmp  %g1, 0x77f
40006934:	08 80 00 c0 	bleu  40006c34 <_wctomb_r+0x368>
40006938:	03 00 00 3d 	sethi  %hi(0xf400), %g1
4000693c:	9a 06 b8 00 	add  %i2, -2048, %o5
40006940:	82 10 63 ff 	or  %g1, 0x3ff, %g1
40006944:	80 a3 40 01 	cmp  %o5, %g1
40006948:	08 80 00 56 	bleu  40006aa0 <_wctomb_r+0x1d4>
4000694c:	03 3f ff ca 	sethi  %hi(0xffff2800), %g1
40006950:	1b 3f ff c0 	sethi  %hi(0xffff0000), %o5
40006954:	03 00 07 bf 	sethi  %hi(0x1efc00), %g1
40006958:	9a 06 80 0d 	add  %i2, %o5, %o5
4000695c:	82 10 63 ff 	or  %g1, 0x3ff, %g1
40006960:	80 a3 40 01 	cmp  %o5, %g1
40006964:	08 80 00 bd 	bleu  40006c58 <_wctomb_r+0x38c>
40006968:	1b 3f f8 00 	sethi  %hi(0xffe00000), %o5
4000696c:	03 00 f7 ff 	sethi  %hi(0x3dffc00), %g1
40006970:	9a 06 80 0d 	add  %i2, %o5, %o5
40006974:	82 10 63 ff 	or  %g1, 0x3ff, %g1
40006978:	80 a3 40 01 	cmp  %o5, %g1
4000697c:	08 80 00 ca 	bleu  40006ca4 <_wctomb_r+0x3d8>
40006980:	03 00 ff ff 	sethi  %hi(0x3fffc00), %g1
40006984:	82 10 63 ff 	or  %g1, 0x3ff, %g1	! 3ffffff <_trap_table-0x3c000001>
40006988:	80 a6 80 01 	cmp  %i2, %g1
4000698c:	04 80 00 ee 	ble  40006d44 <_wctomb_r+0x478>
40006990:	b0 10 3f ff 	mov  -1, %i0
40006994:	83 36 a0 1e 	srl  %i2, 0x1e, %g1
40006998:	82 08 60 01 	and  %g1, 1, %g1
4000699c:	82 10 7f fc 	or  %g1, -4, %g1
400069a0:	9b 36 a0 18 	srl  %i2, 0x18, %o5
400069a4:	c2 2e 40 00 	stb  %g1, [ %i1 ]
400069a8:	9a 0b 60 3f 	and  %o5, 0x3f, %o5
400069ac:	b2 06 60 01 	inc  %i1
400069b0:	9a 13 7f 80 	or  %o5, -128, %o5
400069b4:	83 36 a0 12 	srl  %i2, 0x12, %g1
400069b8:	da 2e 40 00 	stb  %o5, [ %i1 ]
400069bc:	82 08 60 3f 	and  %g1, 0x3f, %g1
400069c0:	b2 06 60 01 	inc  %i1
400069c4:	82 10 7f 80 	or  %g1, -128, %g1
400069c8:	9b 36 a0 0c 	srl  %i2, 0xc, %o5
400069cc:	c2 2e 40 00 	stb  %g1, [ %i1 ]
400069d0:	9a 0b 60 3f 	and  %o5, 0x3f, %o5
400069d4:	b2 06 60 01 	inc  %i1
400069d8:	9a 13 7f 80 	or  %o5, -128, %o5
400069dc:	98 0e af c0 	and  %i2, 0xfc0, %o4
400069e0:	da 2e 40 00 	stb  %o5, [ %i1 ]
400069e4:	99 3b 20 06 	sra  %o4, 6, %o4
400069e8:	82 0e a0 3f 	and  %i2, 0x3f, %g1
400069ec:	b2 06 60 01 	inc  %i1
400069f0:	98 13 3f 80 	or  %o4, -128, %o4
400069f4:	82 10 7f 80 	or  %g1, -128, %g1
400069f8:	c2 2e 60 01 	stb  %g1, [ %i1 + 1 ]
400069fc:	d8 2e 40 00 	stb  %o4, [ %i1 ]
40006a00:	10 80 00 d1 	b  40006d44 <_wctomb_r+0x478>
40006a04:	b0 10 20 06 	mov  6, %i0
40006a08:	13 10 00 32 	sethi  %hi(0x4000c800), %o1
40006a0c:	92 12 63 f0 	or  %o1, 0x3f0, %o1	! 4000cbf0 <zeroes.1+0x88>
40006a10:	40 00 10 eb 	call  4000adbc <strcmp>
40006a14:	90 16 21 b0 	or  %i0, 0x1b0, %o0
40006a18:	80 a2 20 00 	cmp  %o0, 0
40006a1c:	12 80 00 36 	bne  40006af4 <_wctomb_r+0x228>
40006a20:	97 3e a0 08 	sra  %i2, 8, %o3
40006a24:	80 a6 60 00 	cmp  %i1, 0
40006a28:	02 80 00 c7 	be  40006d44 <_wctomb_r+0x478>
40006a2c:	b0 10 20 00 	clr  %i0
40006a30:	80 8a e0 ff 	btst  0xff, %o3
40006a34:	02 bf ff ae 	be  400068ec <_wctomb_r+0x20>
40006a38:	80 a6 60 00 	cmp  %i1, 0
40006a3c:	82 02 e0 7f 	add  %o3, 0x7f, %g1
40006a40:	82 08 60 ff 	and  %g1, 0xff, %g1
40006a44:	80 a0 60 1f 	cmp  %g1, 0x1f
40006a48:	9a 02 e0 20 	add  %o3, 0x20, %o5
40006a4c:	98 60 20 00 	subx  %g0, 0, %o4
40006a50:	9a 0b 60 ff 	and  %o5, 0xff, %o5
40006a54:	80 a3 60 10 	cmp  %o5, 0x10
40006a58:	82 60 20 00 	subx  %g0, 0, %g1
40006a5c:	82 10 40 0c 	or  %g1, %o4, %g1
40006a60:	80 88 60 01 	btst  1, %g1
40006a64:	02 80 00 0d 	be  40006a98 <_wctomb_r+0x1cc>
40006a68:	82 06 bf c0 	add  %i2, -64, %g1
40006a6c:	82 08 60 ff 	and  %g1, 0xff, %g1
40006a70:	80 a0 60 3f 	cmp  %g1, 0x3f
40006a74:	9a 06 bf 80 	add  %i2, -128, %o5
40006a78:	98 60 20 00 	subx  %g0, 0, %o4
40006a7c:	9a 0b 60 ff 	and  %o5, 0xff, %o5
40006a80:	80 a3 60 7d 	cmp  %o5, 0x7d
40006a84:	82 60 20 00 	subx  %g0, 0, %g1
40006a88:	82 10 40 0c 	or  %g1, %o4, %g1
40006a8c:	80 88 60 01 	btst  1, %g1
40006a90:	32 80 00 16 	bne,a   40006ae8 <_wctomb_r+0x21c>
40006a94:	f4 2e 60 01 	stb  %i2, [ %i1 + 1 ]
40006a98:	10 80 00 ab 	b  40006d44 <_wctomb_r+0x478>
40006a9c:	b0 10 3f ff 	mov  -1, %i0
40006aa0:	82 06 80 01 	add  %i2, %g1, %g1
40006aa4:	80 a0 67 ff 	cmp  %g1, 0x7ff
40006aa8:	08 80 00 a7 	bleu  40006d44 <_wctomb_r+0x478>
40006aac:	b0 10 3f ff 	mov  -1, %i0
40006ab0:	83 36 a0 0c 	srl  %i2, 0xc, %g1
40006ab4:	82 08 60 0f 	and  %g1, 0xf, %g1
40006ab8:	82 10 7f e0 	or  %g1, -32, %g1
40006abc:	c2 2e 40 00 	stb  %g1, [ %i1 ]
40006ac0:	9a 0e af c0 	and  %i2, 0xfc0, %o5
40006ac4:	9b 3b 60 06 	sra  %o5, 6, %o5
40006ac8:	82 0e a0 3f 	and  %i2, 0x3f, %g1
40006acc:	b2 06 60 01 	inc  %i1
40006ad0:	9a 13 7f 80 	or  %o5, -128, %o5
40006ad4:	82 10 7f 80 	or  %g1, -128, %g1
40006ad8:	c2 2e 60 01 	stb  %g1, [ %i1 + 1 ]
40006adc:	da 2e 40 00 	stb  %o5, [ %i1 ]
40006ae0:	10 80 00 99 	b  40006d44 <_wctomb_r+0x478>
40006ae4:	b0 10 20 03 	mov  3, %i0
40006ae8:	d6 2e 40 00 	stb  %o3, [ %i1 ]
40006aec:	10 80 00 96 	b  40006d44 <_wctomb_r+0x478>
40006af0:	b0 10 20 02 	mov  2, %i0
40006af4:	13 10 00 32 	sethi  %hi(0x4000c800), %o1
40006af8:	92 12 63 f8 	or  %o1, 0x3f8, %o1	! 4000cbf8 <zeroes.1+0x90>
40006afc:	40 00 10 b0 	call  4000adbc <strcmp>
40006b00:	90 16 21 b0 	or  %i0, 0x1b0, %o0
40006b04:	80 a2 20 00 	cmp  %o0, 0
40006b08:	12 80 00 20 	bne  40006b88 <_wctomb_r+0x2bc>
40006b0c:	97 3e a0 08 	sra  %i2, 8, %o3
40006b10:	80 a6 60 00 	cmp  %i1, 0
40006b14:	98 10 00 1a 	mov  %i2, %o4
40006b18:	02 80 00 8b 	be  40006d44 <_wctomb_r+0x478>
40006b1c:	b0 10 20 00 	clr  %i0
40006b20:	82 0a e0 ff 	and  %o3, 0xff, %g1
40006b24:	80 a0 60 00 	cmp  %g1, 0
40006b28:	02 bf ff 71 	be  400068ec <_wctomb_r+0x20>
40006b2c:	80 a6 60 00 	cmp  %i1, 0
40006b30:	80 a0 60 a0 	cmp  %g1, 0xa0
40006b34:	18 80 00 03 	bgu  40006b40 <_wctomb_r+0x274>
40006b38:	94 10 20 01 	mov  1, %o2
40006b3c:	94 10 20 00 	clr  %o2
40006b40:	82 18 60 ff 	xor  %g1, 0xff, %g1
40006b44:	80 a0 00 01 	cmp  %g0, %g1
40006b48:	9a 40 20 00 	addx  %g0, 0, %o5
40006b4c:	80 8a 80 0d 	btst  %o2, %o5
40006b50:	02 bf ff d2 	be  40006a98 <_wctomb_r+0x1cc>
40006b54:	82 0b 20 ff 	and  %o4, 0xff, %g1
40006b58:	80 a0 60 a0 	cmp  %g1, 0xa0
40006b5c:	18 80 00 03 	bgu  40006b68 <_wctomb_r+0x29c>
40006b60:	98 10 20 01 	mov  1, %o4
40006b64:	98 10 20 00 	clr  %o4
40006b68:	82 18 60 ff 	xor  %g1, 0xff, %g1
40006b6c:	80 a0 00 01 	cmp  %g0, %g1
40006b70:	9a 40 20 00 	addx  %g0, 0, %o5
40006b74:	80 8b 00 0d 	btst  %o4, %o5
40006b78:	22 80 00 73 	be,a   40006d44 <_wctomb_r+0x478>
40006b7c:	b0 10 3f ff 	mov  -1, %i0
40006b80:	10 bf ff da 	b  40006ae8 <_wctomb_r+0x21c>
40006b84:	f4 2e 60 01 	stb  %i2, [ %i1 + 1 ]
40006b88:	13 10 00 33 	sethi  %hi(0x4000cc00), %o1
40006b8c:	90 16 21 b0 	or  %i0, 0x1b0, %o0
40006b90:	40 00 10 8b 	call  4000adbc <strcmp>
40006b94:	92 12 60 00 	mov  %o1, %o1
40006b98:	80 a2 20 00 	cmp  %o0, 0
40006b9c:	12 bf ff 54 	bne  400068ec <_wctomb_r+0x20>
40006ba0:	80 a6 60 00 	cmp  %i1, 0
40006ba4:	99 3e a0 08 	sra  %i2, 8, %o4
40006ba8:	9a 10 20 00 	clr  %o5
40006bac:	02 80 00 66 	be  40006d44 <_wctomb_r+0x478>
40006bb0:	b0 10 20 01 	mov  1, %i0
40006bb4:	80 8b 20 ff 	btst  0xff, %o4
40006bb8:	22 80 00 53 	be,a   40006d04 <_wctomb_r+0x438>
40006bbc:	c2 06 c0 00 	ld  [ %i3 ], %g1
40006bc0:	82 03 3f df 	add  %o4, -33, %g1
40006bc4:	82 08 60 ff 	and  %g1, 0xff, %g1
40006bc8:	80 a0 60 5d 	cmp  %g1, 0x5d
40006bcc:	18 bf ff b3 	bgu  40006a98 <_wctomb_r+0x1cc>
40006bd0:	82 06 bf df 	add  %i2, -33, %g1
40006bd4:	82 08 60 ff 	and  %g1, 0xff, %g1
40006bd8:	80 a0 60 5d 	cmp  %g1, 0x5d
40006bdc:	18 80 00 5a 	bgu  40006d44 <_wctomb_r+0x478>
40006be0:	b0 10 3f ff 	mov  -1, %i0
40006be4:	c2 06 c0 00 	ld  [ %i3 ], %g1
40006be8:	80 a0 60 00 	cmp  %g1, 0
40006bec:	32 80 00 0f 	bne,a   40006c28 <_wctomb_r+0x35c>
40006bf0:	f4 2e 60 01 	stb  %i2, [ %i1 + 1 ]
40006bf4:	82 10 20 01 	mov  1, %g1
40006bf8:	c2 26 c0 00 	st  %g1, [ %i3 ]
40006bfc:	9a 10 20 1b 	mov  0x1b, %o5
40006c00:	da 2e 40 00 	stb  %o5, [ %i1 ]
40006c04:	b2 06 60 01 	inc  %i1
40006c08:	82 10 20 24 	mov  0x24, %g1
40006c0c:	c2 2e 40 00 	stb  %g1, [ %i1 ]
40006c10:	b2 06 60 01 	inc  %i1
40006c14:	82 10 20 42 	mov  0x42, %g1
40006c18:	c2 2e 40 00 	stb  %g1, [ %i1 ]
40006c1c:	b2 06 60 01 	inc  %i1
40006c20:	9a 10 20 03 	mov  3, %o5
40006c24:	f4 2e 60 01 	stb  %i2, [ %i1 + 1 ]
40006c28:	d8 2e 40 00 	stb  %o4, [ %i1 ]
40006c2c:	10 80 00 46 	b  40006d44 <_wctomb_r+0x478>
40006c30:	b0 03 60 02 	add  %o5, 2, %i0
40006c34:	9a 0e a7 c0 	and  %i2, 0x7c0, %o5
40006c38:	9b 3b 60 06 	sra  %o5, 6, %o5
40006c3c:	82 0e a0 3f 	and  %i2, 0x3f, %g1
40006c40:	9a 13 7f c0 	or  %o5, -64, %o5
40006c44:	82 10 7f 80 	or  %g1, -128, %g1
40006c48:	c2 2e 60 01 	stb  %g1, [ %i1 + 1 ]
40006c4c:	da 2e 40 00 	stb  %o5, [ %i1 ]
40006c50:	10 80 00 3d 	b  40006d44 <_wctomb_r+0x478>
40006c54:	b0 10 20 02 	mov  2, %i0
40006c58:	83 36 a0 12 	srl  %i2, 0x12, %g1
40006c5c:	82 08 60 07 	and  %g1, 7, %g1
40006c60:	82 10 7f f0 	or  %g1, -16, %g1
40006c64:	9b 36 a0 0c 	srl  %i2, 0xc, %o5
40006c68:	c2 2e 40 00 	stb  %g1, [ %i1 ]
40006c6c:	9a 0b 60 3f 	and  %o5, 0x3f, %o5
40006c70:	b2 06 60 01 	inc  %i1
40006c74:	9a 13 7f 80 	or  %o5, -128, %o5
40006c78:	98 0e af c0 	and  %i2, 0xfc0, %o4
40006c7c:	da 2e 40 00 	stb  %o5, [ %i1 ]
40006c80:	99 3b 20 06 	sra  %o4, 6, %o4
40006c84:	82 0e a0 3f 	and  %i2, 0x3f, %g1
40006c88:	b2 06 60 01 	inc  %i1
40006c8c:	98 13 3f 80 	or  %o4, -128, %o4
40006c90:	82 10 7f 80 	or  %g1, -128, %g1
40006c94:	c2 2e 60 01 	stb  %g1, [ %i1 + 1 ]
40006c98:	d8 2e 40 00 	stb  %o4, [ %i1 ]
40006c9c:	10 80 00 2a 	b  40006d44 <_wctomb_r+0x478>
40006ca0:	b0 10 20 04 	mov  4, %i0
40006ca4:	83 36 a0 18 	srl  %i2, 0x18, %g1
40006ca8:	82 08 60 03 	and  %g1, 3, %g1
40006cac:	82 10 7f f8 	or  %g1, -8, %g1
40006cb0:	9b 36 a0 12 	srl  %i2, 0x12, %o5
40006cb4:	c2 2e 40 00 	stb  %g1, [ %i1 ]
40006cb8:	9a 0b 60 3f 	and  %o5, 0x3f, %o5
40006cbc:	b2 06 60 01 	inc  %i1
40006cc0:	9a 13 7f 80 	or  %o5, -128, %o5
40006cc4:	83 36 a0 0c 	srl  %i2, 0xc, %g1
40006cc8:	da 2e 40 00 	stb  %o5, [ %i1 ]
40006ccc:	82 08 60 3f 	and  %g1, 0x3f, %g1
40006cd0:	b2 06 60 01 	inc  %i1
40006cd4:	82 10 7f 80 	or  %g1, -128, %g1
40006cd8:	c2 2e 40 00 	stb  %g1, [ %i1 ]
40006cdc:	9a 0e af c0 	and  %i2, 0xfc0, %o5
40006ce0:	9b 3b 60 06 	sra  %o5, 6, %o5
40006ce4:	82 0e a0 3f 	and  %i2, 0x3f, %g1
40006ce8:	b2 06 60 01 	inc  %i1
40006cec:	9a 13 7f 80 	or  %o5, -128, %o5
40006cf0:	82 10 7f 80 	or  %g1, -128, %g1
40006cf4:	c2 2e 60 01 	stb  %g1, [ %i1 + 1 ]
40006cf8:	da 2e 40 00 	stb  %o5, [ %i1 ]
40006cfc:	10 80 00 12 	b  40006d44 <_wctomb_r+0x478>
40006d00:	b0 10 20 05 	mov  5, %i0
40006d04:	80 a0 60 00 	cmp  %g1, 0
40006d08:	22 80 00 0e 	be,a   40006d40 <_wctomb_r+0x474>
40006d0c:	f4 2e 40 00 	stb  %i2, [ %i1 ]
40006d10:	c0 26 c0 00 	clr  [ %i3 ]
40006d14:	82 10 20 1b 	mov  0x1b, %g1
40006d18:	c2 2e 40 00 	stb  %g1, [ %i1 ]
40006d1c:	b2 06 60 01 	inc  %i1
40006d20:	82 10 20 28 	mov  0x28, %g1
40006d24:	c2 2e 40 00 	stb  %g1, [ %i1 ]
40006d28:	b2 06 60 01 	inc  %i1
40006d2c:	82 10 20 42 	mov  0x42, %g1
40006d30:	c2 2e 40 00 	stb  %g1, [ %i1 ]
40006d34:	b2 06 60 01 	inc  %i1
40006d38:	9a 10 20 03 	mov  3, %o5
40006d3c:	f4 2e 40 00 	stb  %i2, [ %i1 ]
40006d40:	b0 03 60 01 	add  %o5, 1, %i0
40006d44:	81 c7 e0 08 	ret 
40006d48:	81 e8 00 00 	restore 

40006d4c <__swsetup>:
40006d4c:	9d e3 bf 98 	save  %sp, -104, %sp
40006d50:	21 10 00 36 	sethi  %hi(0x4000d800), %l0
40006d54:	d0 04 21 a8 	ld  [ %l0 + 0x1a8 ], %o0	! 4000d9a8 <_impure_ptr>
40006d58:	80 a2 20 00 	cmp  %o0, 0
40006d5c:	22 80 00 07 	be,a   40006d78 <__swsetup+0x2c>
40006d60:	c2 16 20 0c 	lduh  [ %i0 + 0xc ], %g1
40006d64:	c2 02 20 38 	ld  [ %o0 + 0x38 ], %g1
40006d68:	80 a0 60 00 	cmp  %g1, 0
40006d6c:	02 80 00 40 	be  40006e6c <__swsetup+0x120>
40006d70:	01 00 00 00 	nop 
40006d74:	c2 16 20 0c 	lduh  [ %i0 + 0xc ], %g1
40006d78:	80 88 60 08 	btst  8, %g1
40006d7c:	12 80 00 2c 	bne  40006e2c <__swsetup+0xe0>
40006d80:	98 10 00 01 	mov  %g1, %o4
40006d84:	80 88 60 10 	btst  0x10, %g1
40006d88:	02 80 00 3d 	be  40006e7c <__swsetup+0x130>
40006d8c:	9a 10 3f ff 	mov  -1, %o5
40006d90:	80 88 60 04 	btst  4, %g1
40006d94:	02 80 00 33 	be  40006e60 <__swsetup+0x114>
40006d98:	82 13 20 08 	or  %o4, 8, %g1
40006d9c:	d2 06 20 30 	ld  [ %i0 + 0x30 ], %o1
40006da0:	80 a2 60 00 	cmp  %o1, 0
40006da4:	02 80 00 0b 	be  40006dd0 <__swsetup+0x84>
40006da8:	82 0b 3f db 	and  %o4, -37, %g1
40006dac:	82 06 20 40 	add  %i0, 0x40, %g1
40006db0:	80 a2 40 01 	cmp  %o1, %g1
40006db4:	22 80 00 06 	be,a   40006dcc <__swsetup+0x80>
40006db8:	c0 26 20 30 	clr  [ %i0 + 0x30 ]
40006dbc:	40 00 07 0f 	call  400089f8 <_free_r>
40006dc0:	d0 04 21 a8 	ld  [ %l0 + 0x1a8 ], %o0
40006dc4:	d8 16 20 0c 	lduh  [ %i0 + 0xc ], %o4
40006dc8:	c0 26 20 30 	clr  [ %i0 + 0x30 ]
40006dcc:	82 0b 3f db 	and  %o4, -37, %g1
40006dd0:	c2 36 20 0c 	sth  %g1, [ %i0 + 0xc ]
40006dd4:	98 10 00 01 	mov  %g1, %o4
40006dd8:	da 06 20 10 	ld  [ %i0 + 0x10 ], %o5
40006ddc:	82 13 20 08 	or  %o4, 8, %g1
40006de0:	c0 26 20 04 	clr  [ %i0 + 4 ]
40006de4:	da 26 00 00 	st  %o5, [ %i0 ]
40006de8:	c2 36 20 0c 	sth  %g1, [ %i0 + 0xc ]
40006dec:	80 a3 60 00 	cmp  %o5, 0
40006df0:	32 80 00 14 	bne,a   40006e40 <__swsetup+0xf4>
40006df4:	c2 16 20 0c 	lduh  [ %i0 + 0xc ], %g1
40006df8:	40 00 09 4f 	call  40009334 <__smakebuf>
40006dfc:	90 10 00 18 	mov  %i0, %o0
40006e00:	c2 16 20 0c 	lduh  [ %i0 + 0xc ], %g1
40006e04:	80 88 60 01 	btst  1, %g1
40006e08:	32 80 00 12 	bne,a   40006e50 <__swsetup+0x104>
40006e0c:	c2 06 20 14 	ld  [ %i0 + 0x14 ], %g1
40006e10:	80 88 60 02 	btst  2, %g1
40006e14:	12 80 00 03 	bne  40006e20 <__swsetup+0xd4>
40006e18:	82 10 20 00 	clr  %g1
40006e1c:	c2 06 20 14 	ld  [ %i0 + 0x14 ], %g1
40006e20:	c2 26 20 08 	st  %g1, [ %i0 + 8 ]
40006e24:	10 80 00 16 	b  40006e7c <__swsetup+0x130>
40006e28:	9a 10 20 00 	clr  %o5
40006e2c:	da 06 20 10 	ld  [ %i0 + 0x10 ], %o5
40006e30:	80 a3 60 00 	cmp  %o5, 0
40006e34:	02 bf ff f1 	be  40006df8 <__swsetup+0xac>
40006e38:	01 00 00 00 	nop 
40006e3c:	c2 16 20 0c 	lduh  [ %i0 + 0xc ], %g1
40006e40:	80 88 60 01 	btst  1, %g1
40006e44:	02 bf ff f4 	be  40006e14 <__swsetup+0xc8>
40006e48:	80 88 60 02 	btst  2, %g1
40006e4c:	c2 06 20 14 	ld  [ %i0 + 0x14 ], %g1
40006e50:	82 20 00 01 	neg  %g1
40006e54:	c2 26 20 18 	st  %g1, [ %i0 + 0x18 ]
40006e58:	10 bf ff f3 	b  40006e24 <__swsetup+0xd8>
40006e5c:	c0 26 20 08 	clr  [ %i0 + 8 ]
40006e60:	da 06 20 10 	ld  [ %i0 + 0x10 ], %o5
40006e64:	10 bf ff e2 	b  40006dec <__swsetup+0xa0>
40006e68:	c2 36 20 0c 	sth  %g1, [ %i0 + 0xc ]
40006e6c:	40 00 06 09 	call  40008690 <__sinit>
40006e70:	01 00 00 00 	nop 
40006e74:	10 bf ff c1 	b  40006d78 <__swsetup+0x2c>
40006e78:	c2 16 20 0c 	lduh  [ %i0 + 0xc ], %g1
40006e7c:	81 c7 e0 08 	ret 
40006e80:	91 e8 00 0d 	restore  %g0, %o5, %o0

40006e84 <__register_exitproc>:
40006e84:	9d e3 bf 98 	save  %sp, -104, %sp
40006e88:	23 10 00 36 	sethi  %hi(0x4000d800), %l1
40006e8c:	40 00 12 9a 	call  4000b8f4 <___st_pthread_mutex_lock>
40006e90:	90 14 62 70 	or  %l1, 0x270, %o0	! 4000da70 <lock>
40006e94:	03 10 00 33 	sethi  %hi(0x4000cc00), %g1
40006e98:	e0 00 60 58 	ld  [ %g1 + 0x58 ], %l0	! 4000cc58 <_global_impure_ptr>
40006e9c:	d0 04 21 48 	ld  [ %l0 + 0x148 ], %o0
40006ea0:	80 a2 20 00 	cmp  %o0, 0
40006ea4:	22 80 00 2d 	be,a   40006f58 <__register_exitproc+0xd4>
40006ea8:	90 04 21 4c 	add  %l0, 0x14c, %o0
40006eac:	d6 02 20 04 	ld  [ %o0 + 4 ], %o3
40006eb0:	80 a2 e0 1f 	cmp  %o3, 0x1f
40006eb4:	14 80 00 1d 	bg  40006f28 <__register_exitproc+0xa4>
40006eb8:	01 00 00 00 	nop 
40006ebc:	80 a6 20 00 	cmp  %i0, 0
40006ec0:	12 80 00 0b 	bne  40006eec <__register_exitproc+0x68>
40006ec4:	94 02 20 88 	add  %o0, 0x88, %o2
40006ec8:	83 2a e0 02 	sll  %o3, 2, %g1
40006ecc:	9a 02 e0 01 	add  %o3, 1, %o5
40006ed0:	82 00 40 08 	add  %g1, %o0, %g1
40006ed4:	da 22 20 04 	st  %o5, [ %o0 + 4 ]
40006ed8:	f2 20 60 08 	st  %i1, [ %g1 + 8 ]
40006edc:	40 00 12 9e 	call  4000b954 <___st_pthread_mutex_unlock>
40006ee0:	90 14 62 70 	or  %l1, 0x270, %o0
40006ee4:	10 80 00 22 	b  40006f6c <__register_exitproc+0xe8>
40006ee8:	b0 10 20 00 	clr  %i0
40006eec:	82 10 20 01 	mov  1, %g1
40006ef0:	93 28 40 0b 	sll  %g1, %o3, %o1
40006ef4:	99 2a e0 02 	sll  %o3, 2, %o4
40006ef8:	da 02 a1 00 	ld  [ %o2 + 0x100 ], %o5
40006efc:	9a 13 40 09 	or  %o5, %o1, %o5
40006f00:	82 03 00 0a 	add  %o4, %o2, %g1
40006f04:	f6 20 60 80 	st  %i3, [ %g1 + 0x80 ]
40006f08:	f4 22 80 0c 	st  %i2, [ %o2 + %o4 ]
40006f0c:	80 a6 20 02 	cmp  %i0, 2
40006f10:	12 bf ff ee 	bne  40006ec8 <__register_exitproc+0x44>
40006f14:	da 22 a1 00 	st  %o5, [ %o2 + 0x100 ]
40006f18:	c2 02 a1 04 	ld  [ %o2 + 0x104 ], %g1
40006f1c:	82 10 40 09 	or  %g1, %o1, %g1
40006f20:	10 bf ff ea 	b  40006ec8 <__register_exitproc+0x44>
40006f24:	c2 22 a1 04 	st  %g1, [ %o2 + 0x104 ]
40006f28:	7f ff f3 f7 	call  40003f04 <malloc>
40006f2c:	90 10 21 90 	mov  0x190, %o0
40006f30:	80 a2 20 00 	cmp  %o0, 0
40006f34:	02 80 00 0b 	be  40006f60 <__register_exitproc+0xdc>
40006f38:	96 10 20 00 	clr  %o3
40006f3c:	c2 04 21 48 	ld  [ %l0 + 0x148 ], %g1
40006f40:	c2 22 00 00 	st  %g1, [ %o0 ]
40006f44:	d0 24 21 48 	st  %o0, [ %l0 + 0x148 ]
40006f48:	c0 22 20 04 	clr  [ %o0 + 4 ]
40006f4c:	c0 22 21 88 	clr  [ %o0 + 0x188 ]
40006f50:	10 bf ff db 	b  40006ebc <__register_exitproc+0x38>
40006f54:	c0 22 21 8c 	clr  [ %o0 + 0x18c ]
40006f58:	10 bf ff d5 	b  40006eac <__register_exitproc+0x28>
40006f5c:	d0 24 21 48 	st  %o0, [ %l0 + 0x148 ]
40006f60:	40 00 12 7d 	call  4000b954 <___st_pthread_mutex_unlock>
40006f64:	90 14 62 70 	or  %l1, 0x270, %o0
40006f68:	b0 10 3f ff 	mov  -1, %i0
40006f6c:	81 c7 e0 08 	ret 
40006f70:	81 e8 00 00 	restore 
40006f74:	40 00 7c 88 	call  40026194 <__end+0x124c>
40006f78:	40 00 7c 88 	call  40026198 <__end+0x1250>
40006f7c:	40 00 7c 64 	call  4002610c <__end+0x11c4>
40006f80:	40 00 74 e0 	call  40024300 <rmr+0xe20>
40006f84:	40 00 7c 68 	call  40026124 <__end+0x11dc>
40006f88:	40 00 74 e4 	call  40024318 <rmr+0xe38>

40006f8c <quorem>:
40006f8c:	9d e3 bf 98 	save  %sp, -104, %sp
40006f90:	c2 06 20 10 	ld  [ %i0 + 0x10 ], %g1
40006f94:	aa 10 00 18 	mov  %i0, %l5
40006f98:	e4 06 60 10 	ld  [ %i1 + 0x10 ], %l2
40006f9c:	80 a0 40 12 	cmp  %g1, %l2
40006fa0:	06 80 00 77 	bl  4000717c <quorem+0x1f0>
40006fa4:	b0 10 20 00 	clr  %i0
40006fa8:	a4 04 bf ff 	add  %l2, -1, %l2
40006fac:	9b 2c a0 02 	sll  %l2, 2, %o5
40006fb0:	9e 06 60 14 	add  %i1, 0x14, %o7
40006fb4:	c2 03 40 0f 	ld  [ %o5 + %o7 ], %g1
40006fb8:	a6 05 60 14 	add  %l5, 0x14, %l3
40006fbc:	82 00 60 01 	inc  %g1
40006fc0:	81 80 00 00 	mov  %g0, %y
40006fc4:	f0 03 40 13 	ld  [ %o5 + %l3 ], %i0
40006fc8:	01 00 00 00 	nop 
40006fcc:	01 00 00 00 	nop 
40006fd0:	b0 76 00 01 	udiv  %i0, %g1, %i0
40006fd4:	80 a6 20 00 	cmp  %i0, 0
40006fd8:	ac 10 00 0f 	mov  %o7, %l6
40006fdc:	a8 03 40 0f 	add  %o5, %o7, %l4
40006fe0:	90 10 00 13 	mov  %l3, %o0
40006fe4:	12 80 00 38 	bne  400070c4 <quorem+0x138>
40006fe8:	a0 03 40 13 	add  %o5, %l3, %l0
40006fec:	92 10 00 19 	mov  %i1, %o1
40006ff0:	40 00 0c 10 	call  4000a030 <__mcmp>
40006ff4:	90 10 00 15 	mov  %l5, %o0
40006ff8:	80 a2 20 00 	cmp  %o0, 0
40006ffc:	06 80 00 60 	bl  4000717c <quorem+0x1f0>
40007000:	03 00 00 3f 	sethi  %hi(0xfc00), %g1
40007004:	b0 06 20 01 	inc  %i0
40007008:	9e 10 00 16 	mov  %l6, %o7
4000700c:	b2 10 63 ff 	or  %g1, 0x3ff, %i1
40007010:	92 10 20 00 	clr  %o1
40007014:	94 10 20 00 	clr  %o2
40007018:	90 10 00 13 	mov  %l3, %o0
4000701c:	da 03 c0 00 	ld  [ %o7 ], %o5
40007020:	82 0b 40 19 	and  %o5, %i1, %g1
40007024:	82 00 40 0a 	add  %g1, %o2, %g1
40007028:	d8 02 00 00 	ld  [ %o0 ], %o4
4000702c:	94 08 40 19 	and  %g1, %i1, %o2
40007030:	97 30 60 10 	srl  %g1, 0x10, %o3
40007034:	82 0b 00 19 	and  %o4, %i1, %g1
40007038:	82 20 40 0a 	sub  %g1, %o2, %g1
4000703c:	9b 33 60 10 	srl  %o5, 0x10, %o5
40007040:	94 00 40 09 	add  %g1, %o1, %o2
40007044:	96 03 40 0b 	add  %o5, %o3, %o3
40007048:	99 33 20 10 	srl  %o4, 0x10, %o4
4000704c:	82 0a c0 19 	and  %o3, %i1, %g1
40007050:	93 3a a0 10 	sra  %o2, 0x10, %o1
40007054:	98 23 00 01 	sub  %o4, %g1, %o4
40007058:	98 03 00 09 	add  %o4, %o1, %o4
4000705c:	d4 32 20 02 	sth  %o2, [ %o0 + 2 ]
40007060:	d8 32 00 00 	sth  %o4, [ %o0 ]
40007064:	9e 03 e0 04 	add  %o7, 4, %o7
40007068:	90 02 20 04 	add  %o0, 4, %o0
4000706c:	80 a3 c0 14 	cmp  %o7, %l4
40007070:	95 32 e0 10 	srl  %o3, 0x10, %o2
40007074:	08 bf ff ea 	bleu  4000701c <quorem+0x90>
40007078:	93 3b 20 10 	sra  %o4, 0x10, %o1
4000707c:	9b 2c a0 02 	sll  %l2, 2, %o5
40007080:	c2 03 40 13 	ld  [ %o5 + %l3 ], %g1
40007084:	80 a0 60 00 	cmp  %g1, 0
40007088:	12 80 00 3d 	bne  4000717c <quorem+0x1f0>
4000708c:	a0 03 40 13 	add  %o5, %l3, %l0
40007090:	a0 04 3f fc 	add  %l0, -4, %l0
40007094:	80 a4 00 13 	cmp  %l0, %l3
40007098:	28 80 00 39 	bleu,a   4000717c <quorem+0x1f0>
4000709c:	e4 25 60 10 	st  %l2, [ %l5 + 0x10 ]
400070a0:	c2 04 00 00 	ld  [ %l0 ], %g1
400070a4:	80 a0 60 00 	cmp  %g1, 0
400070a8:	12 80 00 05 	bne  400070bc <quorem+0x130>
400070ac:	a0 04 3f fc 	add  %l0, -4, %l0
400070b0:	80 a4 00 13 	cmp  %l0, %l3
400070b4:	10 bf ff f9 	b  40007098 <quorem+0x10c>
400070b8:	a4 04 bf ff 	add  %l2, -1, %l2
400070bc:	10 80 00 30 	b  4000717c <quorem+0x1f0>
400070c0:	e4 25 60 10 	st  %l2, [ %l5 + 0x10 ]
400070c4:	03 00 00 3f 	sethi  %hi(0xfc00), %g1
400070c8:	a2 10 63 ff 	or  %g1, 0x3ff, %l1	! ffff <_trap_table-0x3fff0001>
400070cc:	92 10 20 00 	clr  %o1
400070d0:	94 10 20 00 	clr  %o2
400070d4:	da 03 c0 00 	ld  [ %o7 ], %o5
400070d8:	82 0b 40 11 	and  %o5, %l1, %g1
400070dc:	82 58 40 18 	smul  %g1, %i0, %g1
400070e0:	82 00 40 0a 	add  %g1, %o2, %g1
400070e4:	d8 02 00 00 	ld  [ %o0 ], %o4
400070e8:	94 08 40 11 	and  %g1, %l1, %o2
400070ec:	97 30 60 10 	srl  %g1, 0x10, %o3
400070f0:	82 0b 00 11 	and  %o4, %l1, %g1
400070f4:	9b 33 60 10 	srl  %o5, 0x10, %o5
400070f8:	82 20 40 0a 	sub  %g1, %o2, %g1
400070fc:	9a 5b 40 18 	smul  %o5, %i0, %o5
40007100:	94 00 40 09 	add  %g1, %o1, %o2
40007104:	96 03 40 0b 	add  %o5, %o3, %o3
40007108:	99 33 20 10 	srl  %o4, 0x10, %o4
4000710c:	82 0a c0 11 	and  %o3, %l1, %g1
40007110:	93 3a a0 10 	sra  %o2, 0x10, %o1
40007114:	98 23 00 01 	sub  %o4, %g1, %o4
40007118:	98 03 00 09 	add  %o4, %o1, %o4
4000711c:	d4 32 20 02 	sth  %o2, [ %o0 + 2 ]
40007120:	d8 32 00 00 	sth  %o4, [ %o0 ]
40007124:	9e 03 e0 04 	add  %o7, 4, %o7
40007128:	90 02 20 04 	add  %o0, 4, %o0
4000712c:	80 a3 c0 14 	cmp  %o7, %l4
40007130:	95 32 e0 10 	srl  %o3, 0x10, %o2
40007134:	08 bf ff e8 	bleu  400070d4 <quorem+0x148>
40007138:	93 3b 20 10 	sra  %o4, 0x10, %o1
4000713c:	c2 04 00 00 	ld  [ %l0 ], %g1
40007140:	80 a0 60 00 	cmp  %g1, 0
40007144:	32 bf ff ab 	bne,a   40006ff0 <quorem+0x64>
40007148:	92 10 00 19 	mov  %i1, %o1
4000714c:	a0 04 3f fc 	add  %l0, -4, %l0
40007150:	80 a4 00 13 	cmp  %l0, %l3
40007154:	28 bf ff a6 	bleu,a   40006fec <quorem+0x60>
40007158:	e4 25 60 10 	st  %l2, [ %l5 + 0x10 ]
4000715c:	c2 04 00 00 	ld  [ %l0 ], %g1
40007160:	80 a0 60 00 	cmp  %g1, 0
40007164:	32 bf ff a2 	bne,a   40006fec <quorem+0x60>
40007168:	e4 25 60 10 	st  %l2, [ %l5 + 0x10 ]
4000716c:	a0 04 3f fc 	add  %l0, -4, %l0
40007170:	80 a4 00 13 	cmp  %l0, %l3
40007174:	10 bf ff f8 	b  40007154 <quorem+0x1c8>
40007178:	a4 04 bf ff 	add  %l2, -1, %l2
4000717c:	81 c7 e0 08 	ret 
40007180:	81 e8 00 00 	restore 

40007184 <_dtoa_r>:
40007184:	9d e3 bf 58 	save  %sp, -168, %sp
40007188:	d2 06 20 40 	ld  [ %i0 + 0x40 ], %o1
4000718c:	f0 27 a0 44 	st  %i0, [ %fp + 0x44 ]
40007190:	f8 27 a0 54 	st  %i4, [ %fp + 0x54 ]
40007194:	fa 27 a0 58 	st  %i5, [ %fp + 0x58 ]
40007198:	a8 10 00 19 	mov  %i1, %l4
4000719c:	aa 10 00 1a 	mov  %i2, %l5
400071a0:	80 a2 60 00 	cmp  %o1, 0
400071a4:	e0 07 a0 5c 	ld  [ %fp + 0x5c ], %l0
400071a8:	12 80 00 95 	bne  400073fc <_dtoa_r+0x278>
400071ac:	c0 27 bf c0 	clr  [ %fp + -64 ]
400071b0:	80 a5 20 00 	cmp  %l4, 0
400071b4:	06 80 00 9f 	bl  40007430 <_dtoa_r+0x2ac>
400071b8:	1b 20 00 00 	sethi  %hi(0x80000000), %o5
400071bc:	1b 1f fc 00 	sethi  %hi(0x7ff00000), %o5
400071c0:	82 0d 00 0d 	and  %l4, %o5, %g1
400071c4:	80 a0 40 0d 	cmp  %g1, %o5
400071c8:	02 80 00 a2 	be  40007450 <_dtoa_r+0x2cc>
400071cc:	c0 24 00 00 	clr  [ %l0 ]
400071d0:	19 10 00 32 	sethi  %hi(0x4000c800), %o4
400071d4:	90 10 00 14 	mov  %l4, %o0
400071d8:	92 10 00 15 	mov  %l5, %o1
400071dc:	40 00 10 08 	call  4000b1fc <__eqdf2>
400071e0:	d4 1b 22 e0 	ldd  [ %o4 + 0x2e0 ], %o2
400071e4:	80 a2 20 00 	cmp  %o0, 0
400071e8:	12 80 00 0e 	bne  40007220 <_dtoa_r+0x9c>
400071ec:	82 10 20 01 	mov  1, %g1
400071f0:	da 07 a0 58 	ld  [ %fp + 0x58 ], %o5
400071f4:	c2 23 40 00 	st  %g1, [ %o5 ]
400071f8:	1b 10 00 32 	sethi  %hi(0x4000c800), %o5
400071fc:	c2 07 a0 60 	ld  [ %fp + 0x60 ], %g1
40007200:	80 a0 60 00 	cmp  %g1, 0
40007204:	02 80 00 05 	be  40007218 <_dtoa_r+0x94>
40007208:	b0 13 63 d0 	or  %o5, 0x3d0, %i0
4000720c:	82 06 20 01 	add  %i0, 1, %g1
40007210:	d6 07 a0 60 	ld  [ %fp + 0x60 ], %o3
40007214:	c2 22 c0 00 	st  %g1, [ %o3 ]
40007218:	10 80 04 8a 	b  40008440 <_dtoa_r+0x12bc>
4000721c:	82 10 00 18 	mov  %i0, %g1
40007220:	d0 07 a0 44 	ld  [ %fp + 0x44 ], %o0
40007224:	92 10 00 14 	mov  %l4, %o1
40007228:	94 10 00 15 	mov  %l5, %o2
4000722c:	96 07 bf f4 	add  %fp, -12, %o3
40007230:	40 00 0c 4b 	call  4000a35c <_d2b>
40007234:	98 07 bf f0 	add  %fp, -16, %o4
40007238:	83 35 20 14 	srl  %l4, 0x14, %g1
4000723c:	b2 88 67 ff 	andcc  %g1, 0x7ff, %i1
40007240:	12 80 00 9f 	bne  400074bc <_dtoa_r+0x338>
40007244:	d0 27 bf c4 	st  %o0, [ %fp + -60 ]
40007248:	c2 07 bf f4 	ld  [ %fp + -12 ], %g1
4000724c:	f4 07 bf f0 	ld  [ %fp + -16 ], %i2
40007250:	9a 06 80 01 	add  %i2, %g1, %o5
40007254:	b2 03 64 32 	add  %o5, 0x432, %i1
40007258:	82 20 00 19 	neg  %i1, %g1
4000725c:	80 a6 60 20 	cmp  %i1, 0x20
40007260:	04 80 00 06 	ble  40007278 <_dtoa_r+0xf4>
40007264:	a1 2d 40 01 	sll  %l5, %g1, %l0
40007268:	9a 03 64 12 	add  %o5, 0x412, %o5
4000726c:	83 2d 00 01 	sll  %l4, %g1, %g1
40007270:	9b 35 40 0d 	srl  %l5, %o5, %o5
40007274:	a0 10 40 0d 	or  %g1, %o5, %l0
40007278:	7f ff f1 2d 	call  4000372c <__floatsidf>
4000727c:	90 10 00 10 	mov  %l0, %o0
40007280:	80 a4 20 00 	cmp  %l0, 0
40007284:	06 80 03 e5 	bl  40008218 <_dtoa_r+0x1094>
40007288:	03 10 00 33 	sethi  %hi(0x4000cc00), %g1
4000728c:	03 3f 84 00 	sethi  %hi(0xfe100000), %g1
40007290:	98 10 20 01 	mov  1, %o4
40007294:	ae 10 00 09 	mov  %o1, %l7
40007298:	ac 00 40 08 	add  %g1, %o0, %l6
4000729c:	b2 06 7b cd 	add  %i1, -1075, %i1
400072a0:	d8 27 bf c8 	st  %o4, [ %fp + -56 ]
400072a4:	03 10 00 33 	sethi  %hi(0x4000cc00), %g1
400072a8:	d4 18 60 20 	ldd  [ %g1 + 0x20 ], %o2	! 4000cc20 <zeroes.1+0xb8>
400072ac:	90 10 00 16 	mov  %l6, %o0
400072b0:	7f ff ef ce 	call  400031e8 <__subdf3>
400072b4:	92 10 00 17 	mov  %l7, %o1
400072b8:	03 10 00 33 	sethi  %hi(0x4000cc00), %g1
400072bc:	7f ff ef e2 	call  40003244 <__muldf3>
400072c0:	d4 18 60 28 	ldd  [ %g1 + 0x28 ], %o2	! 4000cc28 <zeroes.1+0xc0>
400072c4:	03 10 00 33 	sethi  %hi(0x4000cc00), %g1
400072c8:	7f ff ef b4 	call  40003198 <__adddf3>
400072cc:	d4 18 60 30 	ldd  [ %g1 + 0x30 ], %o2	! 4000cc30 <zeroes.1+0xc8>
400072d0:	a0 10 00 08 	mov  %o0, %l0
400072d4:	a2 10 00 09 	mov  %o1, %l1
400072d8:	7f ff f1 15 	call  4000372c <__floatsidf>
400072dc:	90 10 00 19 	mov  %i1, %o0
400072e0:	03 10 00 33 	sethi  %hi(0x4000cc00), %g1
400072e4:	7f ff ef d8 	call  40003244 <__muldf3>
400072e8:	d4 18 60 38 	ldd  [ %g1 + 0x38 ], %o2	! 4000cc38 <zeroes.1+0xd0>
400072ec:	94 10 00 08 	mov  %o0, %o2
400072f0:	96 10 00 09 	mov  %o1, %o3
400072f4:	90 10 00 10 	mov  %l0, %o0
400072f8:	7f ff ef a8 	call  40003198 <__adddf3>
400072fc:	92 10 00 11 	mov  %l1, %o1
40007300:	a4 10 00 08 	mov  %o0, %l2
40007304:	a6 10 00 09 	mov  %o1, %l3
40007308:	40 00 10 3a 	call  4000b3f0 <__fixdfsi>
4000730c:	90 10 00 12 	mov  %l2, %o0
40007310:	1b 10 00 32 	sethi  %hi(0x4000c800), %o5
40007314:	ba 10 00 08 	mov  %o0, %i5
40007318:	90 10 00 12 	mov  %l2, %o0
4000731c:	92 10 00 13 	mov  %l3, %o1
40007320:	40 00 10 1b 	call  4000b38c <__ltdf2>
40007324:	d4 1b 62 e0 	ldd  [ %o5 + 0x2e0 ], %o2
40007328:	80 a2 20 00 	cmp  %o0, 0
4000732c:	06 80 02 a1 	bl  40007db0 <_dtoa_r+0xc2c>
40007330:	01 00 00 00 	nop 
40007334:	82 10 20 01 	mov  1, %g1	! 1 <_trap_table-0x3fffffff>
40007338:	80 a7 60 16 	cmp  %i5, 0x16
4000733c:	18 80 00 0f 	bgu  40007378 <_dtoa_r+0x1f4>
40007340:	c2 27 bf d4 	st  %g1, [ %fp + -44 ]
40007344:	1b 10 00 33 	sethi  %hi(0x4000cc00), %o5
40007348:	83 2f 60 03 	sll  %i5, 3, %g1
4000734c:	9a 13 60 f8 	or  %o5, 0xf8, %o5
40007350:	96 03 40 01 	add  %o5, %g1, %o3
40007354:	d0 1a c0 00 	ldd  [ %o3 ], %o0
40007358:	94 10 00 14 	mov  %l4, %o2
4000735c:	40 00 0f da 	call  4000b2c4 <__gtdf2>
40007360:	96 10 00 15 	mov  %l5, %o3
40007364:	83 3a 20 1f 	sra  %o0, 0x1f, %g1
40007368:	82 20 40 08 	sub  %g1, %o0, %g1
4000736c:	83 30 60 1f 	srl  %g1, 0x1f, %g1
40007370:	ba 27 40 01 	sub  %i5, %g1, %i5
40007374:	c0 27 bf d4 	clr  [ %fp + -44 ]
40007378:	82 26 80 19 	sub  %i2, %i1, %g1
4000737c:	a0 80 7f ff 	addcc  %g1, -1, %l0
40007380:	2c 80 02 9a 	bneg,a   40007de8 <_dtoa_r+0xc64>
40007384:	a0 20 00 10 	neg  %l0
40007388:	b8 10 00 10 	mov  %l0, %i4
4000738c:	c0 27 bf ec 	clr  [ %fp + -20 ]
40007390:	80 a7 60 00 	cmp  %i5, 0
40007394:	06 80 02 8f 	bl  40007dd0 <_dtoa_r+0xc4c>
40007398:	d8 07 bf ec 	ld  [ %fp + -20 ], %o4
4000739c:	b8 07 00 1d 	add  %i4, %i5, %i4
400073a0:	c0 27 bf e8 	clr  [ %fp + -24 ]
400073a4:	fa 27 bf cc 	st  %i5, [ %fp + -52 ]
400073a8:	80 a6 e0 0a 	cmp  %i3, 0xa
400073ac:	82 60 20 00 	subx  %g0, 0, %g1
400073b0:	b6 0e c0 01 	and  %i3, %g1, %i3
400073b4:	80 a6 e0 05 	cmp  %i3, 5
400073b8:	04 80 00 04 	ble  400073c8 <_dtoa_r+0x244>
400073bc:	a2 10 20 01 	mov  1, %l1
400073c0:	b6 06 ff fc 	add  %i3, -4, %i3
400073c4:	a2 10 20 00 	clr  %l1
400073c8:	96 10 3f ff 	mov  -1, %o3
400073cc:	82 10 20 01 	mov  1, %g1
400073d0:	80 a6 e0 05 	cmp  %i3, 5
400073d4:	c2 27 bf d0 	st  %g1, [ %fp + -48 ]
400073d8:	d6 27 bf dc 	st  %o3, [ %fp + -36 ]
400073dc:	18 80 00 4a 	bgu  40007504 <_dtoa_r+0x380>
400073e0:	d6 27 bf e4 	st  %o3, [ %fp + -28 ]
400073e4:	1b 10 00 1b 	sethi  %hi(0x40006c00), %o5
400073e8:	83 2e e0 02 	sll  %i3, 2, %g1
400073ec:	9a 13 63 74 	or  %o5, 0x374, %o5
400073f0:	d8 03 40 01 	ld  [ %o5 + %g1 ], %o4
400073f4:	81 c3 00 00 	jmp  %o4
400073f8:	01 00 00 00 	nop 
400073fc:	c2 06 20 44 	ld  [ %i0 + 0x44 ], %g1
40007400:	c2 22 60 04 	st  %g1, [ %o1 + 4 ]
40007404:	da 06 20 44 	ld  [ %i0 + 0x44 ], %o5
40007408:	82 10 20 01 	mov  1, %g1
4000740c:	83 28 40 0d 	sll  %g1, %o5, %g1
40007410:	c2 22 60 08 	st  %g1, [ %o1 + 8 ]
40007414:	40 00 09 29 	call  400098b8 <_Bfree>
40007418:	90 10 00 18 	mov  %i0, %o0
4000741c:	d6 07 a0 44 	ld  [ %fp + 0x44 ], %o3
40007420:	80 a5 20 00 	cmp  %l4, 0
40007424:	16 bf ff 66 	bge  400071bc <_dtoa_r+0x38>
40007428:	c0 22 e0 40 	clr  [ %o3 + 0x40 ]
4000742c:	1b 20 00 00 	sethi  %hi(0x80000000), %o5
40007430:	82 10 20 01 	mov  1, %g1
40007434:	a8 2d 00 0d 	andn  %l4, %o5, %l4
40007438:	1b 1f fc 00 	sethi  %hi(0x7ff00000), %o5
4000743c:	c2 24 00 00 	st  %g1, [ %l0 ]
40007440:	82 0d 00 0d 	and  %l4, %o5, %g1
40007444:	80 a0 40 0d 	cmp  %g1, %o5
40007448:	12 bf ff 63 	bne  400071d4 <_dtoa_r+0x50>
4000744c:	19 10 00 32 	sethi  %hi(0x4000c800), %o4
40007450:	03 00 00 09 	sethi  %hi(0x2400), %g1
40007454:	82 10 63 0f 	or  %g1, 0x30f, %g1	! 270f <_trap_table-0x3fffd8f1>
40007458:	d8 07 a0 58 	ld  [ %fp + 0x58 ], %o4
4000745c:	80 a5 60 00 	cmp  %l5, 0
40007460:	02 80 00 10 	be  400074a0 <_dtoa_r+0x31c>
40007464:	c2 23 00 00 	st  %g1, [ %o4 ]
40007468:	03 10 00 32 	sethi  %hi(0x4000c800), %g1
4000746c:	b0 10 63 d8 	or  %g1, 0x3d8, %i0	! 4000cbd8 <zeroes.1+0x70>
40007470:	da 07 a0 60 	ld  [ %fp + 0x60 ], %o5
40007474:	80 a3 60 00 	cmp  %o5, 0
40007478:	22 80 03 f2 	be,a   40008440 <_dtoa_r+0x12bc>
4000747c:	82 10 00 18 	mov  %i0, %g1
40007480:	c2 4e 20 03 	ldsb  [ %i0 + 3 ], %g1
40007484:	80 a0 60 00 	cmp  %g1, 0
40007488:	12 bf ff 62 	bne  40007210 <_dtoa_r+0x8c>
4000748c:	82 06 20 08 	add  %i0, 8, %g1
40007490:	82 06 20 03 	add  %i0, 3, %g1
40007494:	d6 07 a0 60 	ld  [ %fp + 0x60 ], %o3
40007498:	10 bf ff 60 	b  40007218 <_dtoa_r+0x94>
4000749c:	c2 22 c0 00 	st  %g1, [ %o3 ]
400074a0:	03 3f fc 00 	sethi  %hi(0xfff00000), %g1
400074a4:	1b 10 00 33 	sethi  %hi(0x4000cc00), %o5
400074a8:	80 ad 00 01 	andncc  %l4, %g1, %g0
400074ac:	02 bf ff f1 	be  40007470 <_dtoa_r+0x2ec>
400074b0:	b0 13 60 08 	or  %o5, 8, %i0
400074b4:	10 bf ff ee 	b  4000746c <_dtoa_r+0x2e8>
400074b8:	03 10 00 32 	sethi  %hi(0x4000c800), %g1
400074bc:	03 3f fc 00 	sethi  %hi(0xfff00000), %g1
400074c0:	ac 2d 00 01 	andn  %l4, %g1, %l6
400074c4:	1b 0f fc 00 	sethi  %hi(0x3ff00000), %o5
400074c8:	ae 10 00 15 	mov  %l5, %l7
400074cc:	ac 13 40 16 	or  %o5, %l6, %l6
400074d0:	b2 06 7c 01 	add  %i1, -1023, %i1
400074d4:	c0 27 bf c8 	clr  [ %fp + -56 ]
400074d8:	10 bf ff 73 	b  400072a4 <_dtoa_r+0x120>
400074dc:	f4 07 bf f0 	ld  [ %fp + -16 ], %i2
400074e0:	c0 27 bf d0 	clr  [ %fp + -48 ]
400074e4:	d6 07 a0 54 	ld  [ %fp + 0x54 ], %o3
400074e8:	82 02 c0 1d 	add  %o3, %i5, %g1
400074ec:	b2 00 60 01 	add  %g1, 1, %i1
400074f0:	c2 27 bf dc 	st  %g1, [ %fp + -36 ]
400074f4:	80 a6 60 00 	cmp  %i1, 0
400074f8:	14 80 00 03 	bg  40007504 <_dtoa_r+0x380>
400074fc:	f2 27 bf e4 	st  %i1, [ %fp + -28 ]
40007500:	b2 10 20 01 	mov  1, %i1
40007504:	d8 07 a0 44 	ld  [ %fp + 0x44 ], %o4
40007508:	c0 23 20 44 	clr  [ %o4 + 0x44 ]
4000750c:	80 a6 60 17 	cmp  %i1, 0x17
40007510:	08 80 00 0a 	bleu  40007538 <_dtoa_r+0x3b4>
40007514:	a0 10 20 04 	mov  4, %l0
40007518:	9a 10 20 00 	clr  %o5
4000751c:	a0 04 00 10 	add  %l0, %l0, %l0
40007520:	82 04 20 14 	add  %l0, 0x14, %g1
40007524:	80 a0 40 19 	cmp  %g1, %i1
40007528:	08 bf ff fd 	bleu  4000751c <_dtoa_r+0x398>
4000752c:	9a 03 60 01 	inc  %o5
40007530:	c2 07 a0 44 	ld  [ %fp + 0x44 ], %g1
40007534:	da 20 60 44 	st  %o5, [ %g1 + 0x44 ]
40007538:	d0 07 a0 44 	ld  [ %fp + 0x44 ], %o0
4000753c:	40 00 08 b6 	call  40009814 <_Balloc>
40007540:	d2 02 20 44 	ld  [ %o0 + 0x44 ], %o1
40007544:	d6 07 bf e4 	ld  [ %fp + -28 ], %o3
40007548:	80 a2 e0 0f 	cmp  %o3, 0xf
4000754c:	82 40 20 00 	addx  %g0, 0, %g1
40007550:	d8 07 a0 44 	ld  [ %fp + 0x44 ], %o4
40007554:	d0 27 bf b8 	st  %o0, [ %fp + -72 ]
40007558:	80 88 40 11 	btst  %g1, %l1
4000755c:	d0 23 20 40 	st  %o0, [ %o4 + 0x40 ]
40007560:	02 80 00 a0 	be  400077e0 <_dtoa_r+0x65c>
40007564:	b0 10 00 08 	mov  %o0, %i0
40007568:	80 a7 60 00 	cmp  %i5, 0
4000756c:	b2 10 20 00 	clr  %i1
40007570:	ac 10 00 14 	mov  %l4, %l6
40007574:	ae 10 00 15 	mov  %l5, %l7
40007578:	fa 27 bf d8 	st  %i5, [ %fp + -40 ]
4000757c:	d6 27 bf e0 	st  %o3, [ %fp + -32 ]
40007580:	04 80 03 01 	ble  40008184 <_dtoa_r+0x1000>
40007584:	a2 10 20 02 	mov  2, %l1
40007588:	9a 0f 60 0f 	and  %i5, 0xf, %o5
4000758c:	03 10 00 33 	sethi  %hi(0x4000cc00), %g1
40007590:	9b 2b 60 03 	sll  %o5, 3, %o5
40007594:	82 10 60 f8 	or  %g1, 0xf8, %g1
40007598:	a1 3f 60 04 	sra  %i5, 4, %l0
4000759c:	96 00 40 0d 	add  %g1, %o5, %o3
400075a0:	80 8c 20 10 	btst  0x10, %l0
400075a4:	12 80 01 8a 	bne  40007bcc <_dtoa_r+0xa48>
400075a8:	e4 1a c0 00 	ldd  [ %o3 ], %l2
400075ac:	80 a4 20 00 	cmp  %l0, 0
400075b0:	02 80 00 13 	be  400075fc <_dtoa_r+0x478>
400075b4:	03 10 00 33 	sethi  %hi(0x4000cc00), %g1
400075b8:	b4 10 60 d0 	or  %g1, 0xd0, %i2	! 4000ccd0 <__mprec_bigtens>
400075bc:	80 8c 20 01 	btst  1, %l0
400075c0:	22 80 00 0c 	be,a   400075f0 <_dtoa_r+0x46c>
400075c4:	a1 3c 20 01 	sra  %l0, 1, %l0
400075c8:	83 2e 60 03 	sll  %i1, 3, %g1
400075cc:	98 06 80 01 	add  %i2, %g1, %o4
400075d0:	90 10 00 12 	mov  %l2, %o0
400075d4:	92 10 00 13 	mov  %l3, %o1
400075d8:	7f ff ef 1b 	call  40003244 <__muldf3>
400075dc:	d4 1b 00 00 	ldd  [ %o4 ], %o2
400075e0:	a4 10 00 08 	mov  %o0, %l2
400075e4:	a6 10 00 09 	mov  %o1, %l3
400075e8:	a2 04 60 01 	inc  %l1
400075ec:	a1 3c 20 01 	sra  %l0, 1, %l0
400075f0:	80 a4 20 00 	cmp  %l0, 0
400075f4:	12 bf ff f2 	bne  400075bc <_dtoa_r+0x438>
400075f8:	b2 06 60 01 	inc  %i1
400075fc:	90 10 00 14 	mov  %l4, %o0
40007600:	92 10 00 15 	mov  %l5, %o1
40007604:	94 10 00 12 	mov  %l2, %o2
40007608:	7f ff ef c9 	call  4000352c <__divdf3>
4000760c:	96 10 00 13 	mov  %l3, %o3
40007610:	a8 10 00 08 	mov  %o0, %l4
40007614:	aa 10 00 09 	mov  %o1, %l5
40007618:	da 07 bf d4 	ld  [ %fp + -44 ], %o5
4000761c:	80 a3 60 00 	cmp  %o5, 0
40007620:	02 80 00 1d 	be  40007694 <_dtoa_r+0x510>
40007624:	03 10 00 33 	sethi  %hi(0x4000cc00), %g1
40007628:	d4 18 60 40 	ldd  [ %g1 + 0x40 ], %o2	! 4000cc40 <zeroes.1+0xd8>
4000762c:	90 10 00 14 	mov  %l4, %o0
40007630:	40 00 0f 57 	call  4000b38c <__ltdf2>
40007634:	92 10 00 15 	mov  %l5, %o1
40007638:	80 a2 20 00 	cmp  %o0, 0
4000763c:	06 80 03 3a 	bl  40008324 <_dtoa_r+0x11a0>
40007640:	9a 10 20 00 	clr  %o5
40007644:	d6 07 bf e4 	ld  [ %fp + -28 ], %o3
40007648:	83 3a e0 1f 	sra  %o3, 0x1f, %g1
4000764c:	82 20 40 0b 	sub  %g1, %o3, %g1
40007650:	83 30 60 1f 	srl  %g1, 0x1f, %g1
40007654:	80 8b 40 01 	btst  %o5, %g1
40007658:	02 80 00 0f 	be  40007694 <_dtoa_r+0x510>
4000765c:	d8 07 bf dc 	ld  [ %fp + -36 ], %o4
40007660:	80 a3 20 00 	cmp  %o4, 0
40007664:	04 80 00 59 	ble  400077c8 <_dtoa_r+0x644>
40007668:	03 10 00 32 	sethi  %hi(0x4000c800), %g1
4000766c:	94 10 00 14 	mov  %l4, %o2
40007670:	96 10 00 15 	mov  %l5, %o3
40007674:	7f ff ee f4 	call  40003244 <__muldf3>
40007678:	d0 18 62 b0 	ldd  [ %g1 + 0x2b0 ], %o0
4000767c:	da 07 bf dc 	ld  [ %fp + -36 ], %o5
40007680:	a8 10 00 08 	mov  %o0, %l4
40007684:	aa 10 00 09 	mov  %o1, %l5
40007688:	ba 07 7f ff 	add  %i5, -1, %i5
4000768c:	a2 04 60 01 	inc  %l1
40007690:	da 27 bf e4 	st  %o5, [ %fp + -28 ]
40007694:	7f ff f0 26 	call  4000372c <__floatsidf>
40007698:	90 10 00 11 	mov  %l1, %o0
4000769c:	94 10 00 14 	mov  %l4, %o2
400076a0:	7f ff ee e9 	call  40003244 <__muldf3>
400076a4:	96 10 00 15 	mov  %l5, %o3
400076a8:	03 10 00 33 	sethi  %hi(0x4000cc00), %g1
400076ac:	7f ff ee bb 	call  40003198 <__adddf3>
400076b0:	d4 18 60 48 	ldd  [ %g1 + 0x48 ], %o2	! 4000cc48 <zeroes.1+0xe0>
400076b4:	03 3f 30 00 	sethi  %hi(0xfcc00000), %g1
400076b8:	a4 10 00 08 	mov  %o0, %l2
400076bc:	a4 00 40 12 	add  %g1, %l2, %l2
400076c0:	c2 07 bf e4 	ld  [ %fp + -28 ], %g1
400076c4:	80 a0 60 00 	cmp  %g1, 0
400076c8:	12 80 01 73 	bne  40007c94 <_dtoa_r+0xb10>
400076cc:	a6 10 00 09 	mov  %o1, %l3
400076d0:	03 10 00 33 	sethi  %hi(0x4000cc00), %g1
400076d4:	d4 18 60 50 	ldd  [ %g1 + 0x50 ], %o2	! 4000cc50 <zeroes.1+0xe8>
400076d8:	90 10 00 14 	mov  %l4, %o0
400076dc:	7f ff ee c3 	call  400031e8 <__subdf3>
400076e0:	92 10 00 15 	mov  %l5, %o1
400076e4:	a0 10 00 08 	mov  %o0, %l0
400076e8:	a2 10 00 09 	mov  %o1, %l1
400076ec:	90 10 00 10 	mov  %l0, %o0
400076f0:	94 10 00 12 	mov  %l2, %o2
400076f4:	40 00 0e f4 	call  4000b2c4 <__gtdf2>
400076f8:	96 10 00 13 	mov  %l3, %o3
400076fc:	80 a2 20 00 	cmp  %o0, 0
40007700:	c0 27 bf bc 	clr  [ %fp + -68 ]
40007704:	04 80 00 27 	ble  400077a0 <_dtoa_r+0x61c>
40007708:	b4 10 20 00 	clr  %i2
4000770c:	d6 07 bf b8 	ld  [ %fp + -72 ], %o3
40007710:	82 10 20 31 	mov  0x31, %g1
40007714:	c2 2a c0 00 	stb  %g1, [ %o3 ]
40007718:	ba 07 60 01 	inc  %i5
4000771c:	b0 02 e0 01 	add  %o3, 1, %i0
40007720:	92 10 00 1a 	mov  %i2, %o1
40007724:	40 00 08 65 	call  400098b8 <_Bfree>
40007728:	d0 07 a0 44 	ld  [ %fp + 0x44 ], %o0
4000772c:	da 07 bf bc 	ld  [ %fp + -68 ], %o5
40007730:	80 a3 60 00 	cmp  %o5, 0
40007734:	02 80 00 0e 	be  4000776c <_dtoa_r+0x5e8>
40007738:	c2 07 bf c0 	ld  [ %fp + -64 ], %g1
4000773c:	80 a0 00 01 	cmp  %g0, %g1
40007740:	d6 07 bf c0 	ld  [ %fp + -64 ], %o3
40007744:	82 40 20 00 	addx  %g0, 0, %g1
40007748:	9a 1a c0 0d 	xor  %o3, %o5, %o5
4000774c:	80 a0 00 0d 	cmp  %g0, %o5
40007750:	98 40 20 00 	addx  %g0, 0, %o4
40007754:	80 88 40 0c 	btst  %g1, %o4
40007758:	32 80 01 a7 	bne,a   40007df4 <_dtoa_r+0xc70>
4000775c:	92 10 00 0b 	mov  %o3, %o1
40007760:	d2 07 bf bc 	ld  [ %fp + -68 ], %o1
40007764:	40 00 08 55 	call  400098b8 <_Bfree>
40007768:	d0 07 a0 44 	ld  [ %fp + 0x44 ], %o0
4000776c:	d0 07 a0 44 	ld  [ %fp + 0x44 ], %o0
40007770:	40 00 08 52 	call  400098b8 <_Bfree>
40007774:	d2 07 bf c4 	ld  [ %fp + -60 ], %o1
40007778:	c0 2e 00 00 	clrb  [ %i0 ]
4000777c:	82 07 60 01 	add  %i5, 1, %g1
40007780:	d8 07 a0 58 	ld  [ %fp + 0x58 ], %o4
40007784:	da 07 a0 60 	ld  [ %fp + 0x60 ], %o5
40007788:	80 a3 60 00 	cmp  %o5, 0
4000778c:	02 80 00 03 	be  40007798 <_dtoa_r+0x614>
40007790:	c2 23 00 00 	st  %g1, [ %o4 ]
40007794:	f0 23 40 00 	st  %i0, [ %o5 ]
40007798:	10 80 03 2a 	b  40008440 <_dtoa_r+0x12bc>
4000779c:	c2 07 bf b8 	ld  [ %fp + -72 ], %g1
400077a0:	19 20 00 00 	sethi  %hi(0x80000000), %o4
400077a4:	9a 10 20 00 	clr  %o5
400077a8:	90 1c 80 0c 	xor  %l2, %o4, %o0
400077ac:	92 1c c0 0d 	xor  %l3, %o5, %o1
400077b0:	94 10 00 10 	mov  %l0, %o2
400077b4:	40 00 0e c4 	call  4000b2c4 <__gtdf2>
400077b8:	96 10 00 11 	mov  %l1, %o3
400077bc:	80 a2 20 00 	cmp  %o0, 0
400077c0:	14 80 00 2f 	bg  4000787c <_dtoa_r+0x6f8>
400077c4:	da 07 a0 54 	ld  [ %fp + 0x54 ], %o5
400077c8:	c2 07 bf e0 	ld  [ %fp + -32 ], %g1
400077cc:	a8 10 00 16 	mov  %l6, %l4
400077d0:	aa 10 00 17 	mov  %l7, %l5
400077d4:	fa 07 bf d8 	ld  [ %fp + -40 ], %i5
400077d8:	c2 27 bf e4 	st  %g1, [ %fp + -28 ]
400077dc:	f0 07 bf b8 	ld  [ %fp + -72 ], %i0
400077e0:	d0 07 bf f4 	ld  [ %fp + -12 ], %o0
400077e4:	82 38 00 08 	xnor  %g0, %o0, %g1
400077e8:	83 30 60 1f 	srl  %g1, 0x1f, %g1
400077ec:	80 a7 60 0e 	cmp  %i5, 0xe
400077f0:	04 80 00 03 	ble  400077fc <_dtoa_r+0x678>
400077f4:	98 10 20 01 	mov  1, %o4
400077f8:	98 10 20 00 	clr  %o4
400077fc:	80 88 40 0c 	btst  %g1, %o4
40007800:	02 80 00 21 	be  40007884 <_dtoa_r+0x700>
40007804:	c2 07 bf d0 	ld  [ %fp + -48 ], %g1
40007808:	d6 07 bf e4 	ld  [ %fp + -28 ], %o3
4000780c:	82 02 ff ff 	add  %o3, -1, %g1
40007810:	1b 10 00 33 	sethi  %hi(0x4000cc00), %o5
40007814:	82 12 c0 01 	or  %o3, %g1, %g1
40007818:	99 2f 60 03 	sll  %i5, 3, %o4
4000781c:	9a 13 60 f8 	or  %o5, 0xf8, %o5
40007820:	96 03 40 0c 	add  %o5, %o4, %o3
40007824:	d8 07 a0 54 	ld  [ %fp + 0x54 ], %o4
40007828:	e4 1a c0 00 	ldd  [ %o3 ], %l2
4000782c:	80 88 40 0c 	btst  %g1, %o4
40007830:	16 80 00 a8 	bge  40007ad0 <_dtoa_r+0x94c>
40007834:	b2 10 20 01 	mov  1, %i1
40007838:	da 07 bf e4 	ld  [ %fp + -28 ], %o5
4000783c:	80 a3 60 00 	cmp  %o5, 0
40007840:	c0 27 bf bc 	clr  [ %fp + -68 ]
40007844:	06 80 00 0d 	bl  40007878 <_dtoa_r+0x6f4>
40007848:	b4 10 20 00 	clr  %i2
4000784c:	03 10 00 33 	sethi  %hi(0x4000cc00), %g1
40007850:	d4 18 60 50 	ldd  [ %g1 + 0x50 ], %o2	! 4000cc50 <zeroes.1+0xe8>
40007854:	90 10 00 12 	mov  %l2, %o0
40007858:	7f ff ee 7b 	call  40003244 <__muldf3>
4000785c:	92 10 00 13 	mov  %l3, %o1
40007860:	94 10 00 14 	mov  %l4, %o2
40007864:	40 00 0e b1 	call  4000b328 <__gedf2>
40007868:	96 10 00 15 	mov  %l5, %o3
4000786c:	80 a2 20 00 	cmp  %o0, 0
40007870:	06 bf ff a8 	bl  40007710 <_dtoa_r+0x58c>
40007874:	d6 07 bf b8 	ld  [ %fp + -72 ], %o3
40007878:	da 07 a0 54 	ld  [ %fp + 0x54 ], %o5
4000787c:	10 bf ff a9 	b  40007720 <_dtoa_r+0x59c>
40007880:	ba 38 00 0d 	xnor  %g0, %o5, %i5
40007884:	80 a0 60 00 	cmp  %g1, 0
40007888:	e4 07 bf ec 	ld  [ %fp + -20 ], %l2
4000788c:	e2 07 bf e8 	ld  [ %fp + -24 ], %l1
40007890:	c0 27 bf c0 	clr  [ %fp + -64 ]
40007894:	12 80 00 d8 	bne  40007bf4 <_dtoa_r+0xa70>
40007898:	c0 27 bf bc 	clr  [ %fp + -68 ]
4000789c:	9b 3c a0 1f 	sra  %l2, 0x1f, %o5
400078a0:	83 3f 20 1f 	sra  %i4, 0x1f, %g1
400078a4:	9a 23 40 12 	sub  %o5, %l2, %o5
400078a8:	82 20 40 1c 	sub  %g1, %i4, %g1
400078ac:	80 88 40 0d 	btst  %g1, %o5
400078b0:	16 80 00 0c 	bge  400078e0 <_dtoa_r+0x75c>
400078b4:	c2 07 bf e8 	ld  [ %fp + -24 ], %g1
400078b8:	80 a7 00 12 	cmp  %i4, %l2
400078bc:	04 80 00 03 	ble  400078c8 <_dtoa_r+0x744>
400078c0:	b2 10 00 1c 	mov  %i4, %i1
400078c4:	b2 10 00 12 	mov  %l2, %i1
400078c8:	da 07 bf ec 	ld  [ %fp + -20 ], %o5
400078cc:	9a 23 40 19 	sub  %o5, %i1, %o5
400078d0:	b8 27 00 19 	sub  %i4, %i1, %i4
400078d4:	da 27 bf ec 	st  %o5, [ %fp + -20 ]
400078d8:	a4 24 80 19 	sub  %l2, %i1, %l2
400078dc:	c2 07 bf e8 	ld  [ %fp + -24 ], %g1
400078e0:	80 a0 60 00 	cmp  %g1, 0
400078e4:	04 80 00 18 	ble  40007944 <_dtoa_r+0x7c0>
400078e8:	d6 07 bf d0 	ld  [ %fp + -48 ], %o3
400078ec:	80 a2 e0 00 	cmp  %o3, 0
400078f0:	02 80 02 76 	be  400082c8 <_dtoa_r+0x1144>
400078f4:	80 a4 60 00 	cmp  %l1, 0
400078f8:	04 80 00 0f 	ble  40007934 <_dtoa_r+0x7b0>
400078fc:	94 10 00 11 	mov  %l1, %o2
40007900:	d2 07 bf bc 	ld  [ %fp + -68 ], %o1
40007904:	40 00 09 3c 	call  40009df4 <_pow5mult>
40007908:	d0 07 a0 44 	ld  [ %fp + 0x44 ], %o0
4000790c:	d0 27 bf bc 	st  %o0, [ %fp + -68 ]
40007910:	d2 07 bf bc 	ld  [ %fp + -68 ], %o1
40007914:	d4 07 bf c4 	ld  [ %fp + -60 ], %o2
40007918:	40 00 08 bc 	call  40009c08 <_multiply>
4000791c:	d0 07 a0 44 	ld  [ %fp + 0x44 ], %o0
40007920:	a0 10 00 08 	mov  %o0, %l0
40007924:	d0 07 a0 44 	ld  [ %fp + 0x44 ], %o0
40007928:	40 00 07 e4 	call  400098b8 <_Bfree>
4000792c:	d2 07 bf c4 	ld  [ %fp + -60 ], %o1
40007930:	e0 27 bf c4 	st  %l0, [ %fp + -60 ]
40007934:	d8 07 bf e8 	ld  [ %fp + -24 ], %o4
40007938:	a0 a3 00 11 	subcc  %o4, %l1, %l0
4000793c:	12 80 02 7c 	bne  4000832c <_dtoa_r+0x11a8>
40007940:	d2 07 bf c4 	ld  [ %fp + -60 ], %o1
40007944:	d0 07 a0 44 	ld  [ %fp + 0x44 ], %o0
40007948:	40 00 08 a7 	call  40009be4 <_i2b>
4000794c:	92 10 20 01 	mov  1, %o1
40007950:	da 07 bf cc 	ld  [ %fp + -52 ], %o5
40007954:	80 a3 60 00 	cmp  %o5, 0
40007958:	04 80 00 07 	ble  40007974 <_dtoa_r+0x7f0>
4000795c:	b4 10 00 08 	mov  %o0, %i2
40007960:	92 10 00 08 	mov  %o0, %o1
40007964:	d0 07 a0 44 	ld  [ %fp + 0x44 ], %o0
40007968:	40 00 09 23 	call  40009df4 <_pow5mult>
4000796c:	94 10 00 0d 	mov  %o5, %o2
40007970:	b4 10 00 08 	mov  %o0, %i2
40007974:	80 a6 e0 01 	cmp  %i3, 1
40007978:	04 80 02 5a 	ble  400082e0 <_dtoa_r+0x115c>
4000797c:	a0 10 20 00 	clr  %l0
40007980:	82 07 20 01 	add  %i4, 1, %g1
40007984:	d6 07 bf cc 	ld  [ %fp + -52 ], %o3
40007988:	80 a2 e0 00 	cmp  %o3, 0
4000798c:	12 80 02 42 	bne  40008294 <_dtoa_r+0x1110>
40007990:	b2 08 60 1f 	and  %g1, 0x1f, %i1
40007994:	80 a6 60 00 	cmp  %i1, 0
40007998:	02 80 00 05 	be  400079ac <_dtoa_r+0x828>
4000799c:	80 a6 60 04 	cmp  %i1, 4
400079a0:	82 10 20 20 	mov  0x20, %g1
400079a4:	b2 20 40 19 	sub  %g1, %i1, %i1
400079a8:	80 a6 60 04 	cmp  %i1, 4
400079ac:	04 80 01 16 	ble  40007e04 <_dtoa_r+0xc80>
400079b0:	80 a6 60 03 	cmp  %i1, 3
400079b4:	b2 06 7f fc 	add  %i1, -4, %i1
400079b8:	d8 07 bf ec 	ld  [ %fp + -20 ], %o4
400079bc:	98 03 00 19 	add  %o4, %i1, %o4
400079c0:	b8 07 00 19 	add  %i4, %i1, %i4
400079c4:	d8 27 bf ec 	st  %o4, [ %fp + -20 ]
400079c8:	a4 04 80 19 	add  %l2, %i1, %l2
400079cc:	c2 07 bf ec 	ld  [ %fp + -20 ], %g1
400079d0:	80 a0 60 00 	cmp  %g1, 0
400079d4:	04 80 00 06 	ble  400079ec <_dtoa_r+0x868>
400079d8:	d2 07 bf c4 	ld  [ %fp + -60 ], %o1
400079dc:	94 10 00 01 	mov  %g1, %o2
400079e0:	40 00 09 4f 	call  40009f1c <_lshift>
400079e4:	d0 07 a0 44 	ld  [ %fp + 0x44 ], %o0
400079e8:	d0 27 bf c4 	st  %o0, [ %fp + -60 ]
400079ec:	80 a7 20 00 	cmp  %i4, 0
400079f0:	04 80 00 06 	ble  40007a08 <_dtoa_r+0x884>
400079f4:	92 10 00 1a 	mov  %i2, %o1
400079f8:	94 10 00 1c 	mov  %i4, %o2
400079fc:	40 00 09 48 	call  40009f1c <_lshift>
40007a00:	d0 07 a0 44 	ld  [ %fp + 0x44 ], %o0
40007a04:	b4 10 00 08 	mov  %o0, %i2
40007a08:	d6 07 bf d4 	ld  [ %fp + -44 ], %o3
40007a0c:	80 a2 e0 00 	cmp  %o3, 0
40007a10:	12 80 02 06 	bne  40008228 <_dtoa_r+0x10a4>
40007a14:	d0 07 bf c4 	ld  [ %fp + -60 ], %o0
40007a18:	d6 07 bf e4 	ld  [ %fp + -28 ], %o3
40007a1c:	82 02 ff ff 	add  %o3, -1, %g1
40007a20:	82 12 c0 01 	or  %o3, %g1, %g1
40007a24:	83 30 60 1f 	srl  %g1, 0x1f, %g1
40007a28:	80 a6 e0 02 	cmp  %i3, 2
40007a2c:	14 80 00 03 	bg  40007a38 <_dtoa_r+0x8b4>
40007a30:	9a 10 20 01 	mov  1, %o5
40007a34:	9a 10 20 00 	clr  %o5
40007a38:	80 88 40 0d 	btst  %g1, %o5
40007a3c:	02 80 00 fa 	be  40007e24 <_dtoa_r+0xca0>
40007a40:	d8 07 bf d0 	ld  [ %fp + -48 ], %o4
40007a44:	d8 07 bf e4 	ld  [ %fp + -28 ], %o4
40007a48:	80 a3 20 00 	cmp  %o4, 0
40007a4c:	06 bf ff 8b 	bl  40007878 <_dtoa_r+0x6f4>
40007a50:	92 10 00 1a 	mov  %i2, %o1
40007a54:	94 10 20 05 	mov  5, %o2
40007a58:	96 10 20 00 	clr  %o3
40007a5c:	40 00 07 a2 	call  400098e4 <_multadd>
40007a60:	d0 07 a0 44 	ld  [ %fp + 0x44 ], %o0
40007a64:	b4 10 00 08 	mov  %o0, %i2
40007a68:	d0 07 bf c4 	ld  [ %fp + -60 ], %o0
40007a6c:	40 00 09 71 	call  4000a030 <__mcmp>
40007a70:	92 10 00 1a 	mov  %i2, %o1
40007a74:	80 a2 20 00 	cmp  %o0, 0
40007a78:	14 bf ff 26 	bg  40007710 <_dtoa_r+0x58c>
40007a7c:	d6 07 bf b8 	ld  [ %fp + -72 ], %o3
40007a80:	da 07 a0 54 	ld  [ %fp + 0x54 ], %o5
40007a84:	10 bf ff 27 	b  40007720 <_dtoa_r+0x59c>
40007a88:	ba 38 00 0d 	xnor  %g0, %o5, %i5
40007a8c:	94 10 00 08 	mov  %o0, %o2
40007a90:	96 10 00 09 	mov  %o1, %o3
40007a94:	03 10 00 32 	sethi  %hi(0x4000c800), %g1
40007a98:	7f ff ed eb 	call  40003244 <__muldf3>
40007a9c:	d0 18 62 b0 	ldd  [ %g1 + 0x2b0 ], %o0	! 4000cab0 <___DTOR_END__+0x390>
40007aa0:	9a 10 00 09 	mov  %o1, %o5
40007aa4:	aa 10 00 0d 	mov  %o5, %l5
40007aa8:	98 10 00 08 	mov  %o0, %o4
40007aac:	1b 10 00 32 	sethi  %hi(0x4000c800), %o5
40007ab0:	90 10 00 0c 	mov  %o4, %o0
40007ab4:	a8 10 00 0c 	mov  %o4, %l4
40007ab8:	40 00 0d d1 	call  4000b1fc <__eqdf2>
40007abc:	d4 1b 62 e0 	ldd  [ %o5 + 0x2e0 ], %o2
40007ac0:	80 a2 20 00 	cmp  %o0, 0
40007ac4:	02 bf ff 2b 	be  40007770 <_dtoa_r+0x5ec>
40007ac8:	d0 07 a0 44 	ld  [ %fp + 0x44 ], %o0
40007acc:	b2 06 60 01 	inc  %i1
40007ad0:	94 10 00 12 	mov  %l2, %o2
40007ad4:	96 10 00 13 	mov  %l3, %o3
40007ad8:	90 10 00 14 	mov  %l4, %o0
40007adc:	7f ff ee 94 	call  4000352c <__divdf3>
40007ae0:	92 10 00 15 	mov  %l5, %o1
40007ae4:	40 00 0e 43 	call  4000b3f0 <__fixdfsi>
40007ae8:	01 00 00 00 	nop 
40007aec:	7f ff ef 10 	call  4000372c <__floatsidf>
40007af0:	b4 10 00 08 	mov  %o0, %i2
40007af4:	94 10 00 12 	mov  %l2, %o2
40007af8:	7f ff ed d3 	call  40003244 <__muldf3>
40007afc:	96 10 00 13 	mov  %l3, %o3
40007b00:	94 10 00 08 	mov  %o0, %o2
40007b04:	96 10 00 09 	mov  %o1, %o3
40007b08:	90 10 00 14 	mov  %l4, %o0
40007b0c:	7f ff ed b7 	call  400031e8 <__subdf3>
40007b10:	92 10 00 15 	mov  %l5, %o1
40007b14:	82 06 a0 30 	add  %i2, 0x30, %g1
40007b18:	c2 2e 00 00 	stb  %g1, [ %i0 ]
40007b1c:	c2 07 bf e4 	ld  [ %fp + -28 ], %g1
40007b20:	80 a6 40 01 	cmp  %i1, %g1
40007b24:	12 bf ff da 	bne  40007a8c <_dtoa_r+0x908>
40007b28:	b0 06 20 01 	inc  %i0
40007b2c:	94 10 00 08 	mov  %o0, %o2
40007b30:	7f ff ed 9a 	call  40003198 <__adddf3>
40007b34:	96 10 00 09 	mov  %o1, %o3
40007b38:	a0 10 00 08 	mov  %o0, %l0
40007b3c:	a2 10 00 09 	mov  %o1, %l1
40007b40:	90 10 00 12 	mov  %l2, %o0
40007b44:	92 10 00 13 	mov  %l3, %o1
40007b48:	94 10 00 10 	mov  %l0, %o2
40007b4c:	40 00 0e 10 	call  4000b38c <__ltdf2>
40007b50:	96 10 00 11 	mov  %l1, %o3
40007b54:	80 a2 20 00 	cmp  %o0, 0
40007b58:	06 80 00 0c 	bl  40007b88 <_dtoa_r+0xa04>
40007b5c:	90 10 00 12 	mov  %l2, %o0
40007b60:	92 10 00 13 	mov  %l3, %o1
40007b64:	94 10 00 10 	mov  %l0, %o2
40007b68:	40 00 0d a5 	call  4000b1fc <__eqdf2>
40007b6c:	96 10 00 11 	mov  %l1, %o3
40007b70:	80 a2 20 00 	cmp  %o0, 0
40007b74:	12 bf fe ff 	bne  40007770 <_dtoa_r+0x5ec>
40007b78:	d0 07 a0 44 	ld  [ %fp + 0x44 ], %o0
40007b7c:	80 8e a0 01 	btst  1, %i2
40007b80:	02 bf fe fc 	be  40007770 <_dtoa_r+0x5ec>
40007b84:	01 00 00 00 	nop 
40007b88:	b0 06 3f ff 	add  %i0, -1, %i0
40007b8c:	c2 4e 00 00 	ldsb  [ %i0 ], %g1
40007b90:	80 a0 60 39 	cmp  %g1, 0x39
40007b94:	12 80 00 09 	bne  40007bb8 <_dtoa_r+0xa34>
40007b98:	d6 07 bf b8 	ld  [ %fp + -72 ], %o3
40007b9c:	80 a6 00 0b 	cmp  %i0, %o3
40007ba0:	32 bf ff fb 	bne,a   40007b8c <_dtoa_r+0xa08>
40007ba4:	b0 06 3f ff 	add  %i0, -1, %i0
40007ba8:	82 10 20 30 	mov  0x30, %g1
40007bac:	d8 07 bf b8 	ld  [ %fp + -72 ], %o4
40007bb0:	c2 2b 00 00 	stb  %g1, [ %o4 ]
40007bb4:	ba 07 60 01 	inc  %i5
40007bb8:	c2 0e 00 00 	ldub  [ %i0 ], %g1
40007bbc:	82 00 60 01 	inc  %g1
40007bc0:	c2 2e 00 00 	stb  %g1, [ %i0 ]
40007bc4:	10 bf fe ea 	b  4000776c <_dtoa_r+0x5e8>
40007bc8:	b0 06 20 01 	inc  %i0
40007bcc:	03 10 00 33 	sethi  %hi(0x4000cc00), %g1
40007bd0:	90 10 00 14 	mov  %l4, %o0
40007bd4:	92 10 00 15 	mov  %l5, %o1
40007bd8:	7f ff ee 55 	call  4000352c <__divdf3>
40007bdc:	d4 18 60 f0 	ldd  [ %g1 + 0xf0 ], %o2
40007be0:	a8 10 00 08 	mov  %o0, %l4
40007be4:	aa 10 00 09 	mov  %o1, %l5
40007be8:	a0 0c 20 0f 	and  %l0, 0xf, %l0
40007bec:	10 bf fe 70 	b  400075ac <_dtoa_r+0x428>
40007bf0:	a2 10 20 03 	mov  3, %l1
40007bf4:	80 a6 e0 01 	cmp  %i3, 1
40007bf8:	04 80 01 d1 	ble  4000833c <_dtoa_r+0x11b8>
40007bfc:	d8 07 bf e4 	ld  [ %fp + -28 ], %o4
40007c00:	a0 03 3f ff 	add  %o4, -1, %l0
40007c04:	da 07 bf e8 	ld  [ %fp + -24 ], %o5
40007c08:	80 a3 40 10 	cmp  %o5, %l0
40007c0c:	16 80 00 09 	bge  40007c30 <_dtoa_r+0xaac>
40007c10:	a2 23 40 10 	sub  %o5, %l0, %l1
40007c14:	a0 24 00 0d 	sub  %l0, %o5, %l0
40007c18:	c2 07 bf cc 	ld  [ %fp + -52 ], %g1
40007c1c:	9a 03 40 10 	add  %o5, %l0, %o5
40007c20:	82 00 40 10 	add  %g1, %l0, %g1
40007c24:	da 27 bf e8 	st  %o5, [ %fp + -24 ]
40007c28:	c2 27 bf cc 	st  %g1, [ %fp + -52 ]
40007c2c:	a2 10 20 00 	clr  %l1
40007c30:	f2 07 bf e4 	ld  [ %fp + -28 ], %i1
40007c34:	80 a6 60 00 	cmp  %i1, 0
40007c38:	06 80 01 e0 	bl  400083b8 <_dtoa_r+0x1234>
40007c3c:	d6 07 bf ec 	ld  [ %fp + -20 ], %o3
40007c40:	d0 07 a0 44 	ld  [ %fp + 0x44 ], %o0
40007c44:	40 00 07 e8 	call  40009be4 <_i2b>
40007c48:	92 10 20 01 	mov  1, %o1
40007c4c:	d8 07 bf ec 	ld  [ %fp + -20 ], %o4
40007c50:	98 03 00 19 	add  %o4, %i1, %o4
40007c54:	d0 27 bf bc 	st  %o0, [ %fp + -68 ]
40007c58:	b8 07 00 19 	add  %i4, %i1, %i4
40007c5c:	10 bf ff 10 	b  4000789c <_dtoa_r+0x718>
40007c60:	d8 27 bf ec 	st  %o4, [ %fp + -20 ]
40007c64:	c0 27 bf d0 	clr  [ %fp + -48 ]
40007c68:	d8 07 a0 54 	ld  [ %fp + 0x54 ], %o4
40007c6c:	80 a3 20 00 	cmp  %o4, 0
40007c70:	04 80 01 b1 	ble  40008334 <_dtoa_r+0x11b0>
40007c74:	9a 10 20 01 	mov  1, %o5
40007c78:	f2 07 a0 54 	ld  [ %fp + 0x54 ], %i1
40007c7c:	f2 27 bf dc 	st  %i1, [ %fp + -36 ]
40007c80:	10 bf fe 21 	b  40007504 <_dtoa_r+0x380>
40007c84:	f2 27 bf e4 	st  %i1, [ %fp + -28 ]
40007c88:	b2 10 20 12 	mov  0x12, %i1
40007c8c:	10 bf fe 1e 	b  40007504 <_dtoa_r+0x380>
40007c90:	c0 27 a0 54 	clr  [ %fp + 0x54 ]
40007c94:	d6 07 bf d0 	ld  [ %fp + -48 ], %o3
40007c98:	80 a2 e0 00 	cmp  %o3, 0
40007c9c:	02 80 00 f8 	be  4000807c <_dtoa_r+0xef8>
40007ca0:	c2 07 bf e4 	ld  [ %fp + -28 ], %g1
40007ca4:	d8 07 bf e4 	ld  [ %fp + -28 ], %o4
40007ca8:	1b 10 00 33 	sethi  %hi(0x4000cc00), %o5
40007cac:	83 2b 20 03 	sll  %o4, 3, %g1
40007cb0:	9a 13 60 f8 	or  %o5, 0xf8, %o5
40007cb4:	82 00 40 0d 	add  %g1, %o5, %g1
40007cb8:	1b 10 00 32 	sethi  %hi(0x4000c800), %o5
40007cbc:	d4 18 7f f8 	ldd  [ %g1 + -8 ], %o2
40007cc0:	7f ff ee 1b 	call  4000352c <__divdf3>
40007cc4:	d0 1b 62 f0 	ldd  [ %o5 + 0x2f0 ], %o0
40007cc8:	94 10 00 12 	mov  %l2, %o2
40007ccc:	7f ff ed 47 	call  400031e8 <__subdf3>
40007cd0:	96 10 00 13 	mov  %l3, %o3
40007cd4:	a4 10 00 08 	mov  %o0, %l2
40007cd8:	a6 10 00 09 	mov  %o1, %l3
40007cdc:	10 80 00 0f 	b  40007d18 <_dtoa_r+0xb94>
40007ce0:	b2 10 20 00 	clr  %i1
40007ce4:	94 10 00 12 	mov  %l2, %o2
40007ce8:	96 10 00 13 	mov  %l3, %o3
40007cec:	7f ff ed 56 	call  40003244 <__muldf3>
40007cf0:	d0 18 62 b0 	ldd  [ %g1 + 0x2b0 ], %o0
40007cf4:	19 10 00 32 	sethi  %hi(0x4000c800), %o4
40007cf8:	a4 10 00 08 	mov  %o0, %l2
40007cfc:	a6 10 00 09 	mov  %o1, %l3
40007d00:	94 10 00 10 	mov  %l0, %o2
40007d04:	96 10 00 11 	mov  %l1, %o3
40007d08:	7f ff ed 4f 	call  40003244 <__muldf3>
40007d0c:	d0 1b 22 b0 	ldd  [ %o4 + 0x2b0 ], %o0
40007d10:	a8 10 00 08 	mov  %o0, %l4
40007d14:	aa 10 00 09 	mov  %o1, %l5
40007d18:	92 10 00 15 	mov  %l5, %o1
40007d1c:	40 00 0d b5 	call  4000b3f0 <__fixdfsi>
40007d20:	90 10 00 14 	mov  %l4, %o0
40007d24:	7f ff ee 82 	call  4000372c <__floatsidf>
40007d28:	b4 10 00 08 	mov  %o0, %i2
40007d2c:	94 10 00 08 	mov  %o0, %o2
40007d30:	96 10 00 09 	mov  %o1, %o3
40007d34:	90 10 00 14 	mov  %l4, %o0
40007d38:	7f ff ed 2c 	call  400031e8 <__subdf3>
40007d3c:	92 10 00 15 	mov  %l5, %o1
40007d40:	82 06 a0 30 	add  %i2, 0x30, %g1
40007d44:	a0 10 00 08 	mov  %o0, %l0
40007d48:	c2 2e 00 00 	stb  %g1, [ %i0 ]
40007d4c:	a2 10 00 09 	mov  %o1, %l1
40007d50:	90 10 00 10 	mov  %l0, %o0
40007d54:	94 10 00 12 	mov  %l2, %o2
40007d58:	40 00 0d 8d 	call  4000b38c <__ltdf2>
40007d5c:	96 10 00 13 	mov  %l3, %o3
40007d60:	80 a2 20 00 	cmp  %o0, 0
40007d64:	06 bf fe 82 	bl  4000776c <_dtoa_r+0x5e8>
40007d68:	b0 06 20 01 	inc  %i0
40007d6c:	03 10 00 33 	sethi  %hi(0x4000cc00), %g1
40007d70:	d0 18 60 40 	ldd  [ %g1 + 0x40 ], %o0	! 4000cc40 <zeroes.1+0xd8>
40007d74:	94 10 00 10 	mov  %l0, %o2
40007d78:	7f ff ed 1c 	call  400031e8 <__subdf3>
40007d7c:	96 10 00 11 	mov  %l1, %o3
40007d80:	94 10 00 12 	mov  %l2, %o2
40007d84:	40 00 0d 82 	call  4000b38c <__ltdf2>
40007d88:	96 10 00 13 	mov  %l3, %o3
40007d8c:	80 a2 20 00 	cmp  %o0, 0
40007d90:	06 bf ff 7e 	bl  40007b88 <_dtoa_r+0xa04>
40007d94:	da 07 bf e4 	ld  [ %fp + -28 ], %o5
40007d98:	b2 06 60 01 	inc  %i1
40007d9c:	80 a6 40 0d 	cmp  %i1, %o5
40007da0:	26 bf ff d1 	bl,a   40007ce4 <_dtoa_r+0xb60>
40007da4:	03 10 00 32 	sethi  %hi(0x4000c800), %g1
40007da8:	10 bf fe 89 	b  400077cc <_dtoa_r+0x648>
40007dac:	c2 07 bf e0 	ld  [ %fp + -32 ], %g1
40007db0:	7f ff ee 5f 	call  4000372c <__floatsidf>
40007db4:	90 10 00 1d 	mov  %i5, %o0
40007db8:	94 10 00 12 	mov  %l2, %o2
40007dbc:	40 00 0d 29 	call  4000b260 <__nedf2>
40007dc0:	96 10 00 13 	mov  %l3, %o3
40007dc4:	80 a0 00 08 	cmp  %g0, %o0
40007dc8:	10 bf fd 5b 	b  40007334 <_dtoa_r+0x1b0>
40007dcc:	ba 67 60 00 	subx  %i5, 0, %i5
40007dd0:	98 23 00 1d 	sub  %o4, %i5, %o4
40007dd4:	9a 20 00 1d 	neg  %i5, %o5
40007dd8:	d8 27 bf ec 	st  %o4, [ %fp + -20 ]
40007ddc:	da 27 bf e8 	st  %o5, [ %fp + -24 ]
40007de0:	10 bf fd 72 	b  400073a8 <_dtoa_r+0x224>
40007de4:	c0 27 bf cc 	clr  [ %fp + -52 ]
40007de8:	e0 27 bf ec 	st  %l0, [ %fp + -20 ]
40007dec:	10 bf fd 69 	b  40007390 <_dtoa_r+0x20c>
40007df0:	b8 10 20 00 	clr  %i4
40007df4:	40 00 06 b1 	call  400098b8 <_Bfree>
40007df8:	d0 07 a0 44 	ld  [ %fp + 0x44 ], %o0
40007dfc:	10 bf fe 5a 	b  40007764 <_dtoa_r+0x5e0>
40007e00:	d2 07 bf bc 	ld  [ %fp + -68 ], %o1
40007e04:	14 bf fe f3 	bg  400079d0 <_dtoa_r+0x84c>
40007e08:	c2 07 bf ec 	ld  [ %fp + -20 ], %g1
40007e0c:	b2 06 60 1c 	add  %i1, 0x1c, %i1
40007e10:	da 07 bf ec 	ld  [ %fp + -20 ], %o5
40007e14:	9a 03 40 19 	add  %o5, %i1, %o5
40007e18:	b8 07 00 19 	add  %i4, %i1, %i4
40007e1c:	10 bf fe eb 	b  400079c8 <_dtoa_r+0x844>
40007e20:	da 27 bf ec 	st  %o5, [ %fp + -20 ]
40007e24:	80 a3 20 00 	cmp  %o4, 0
40007e28:	02 80 00 55 	be  40007f7c <_dtoa_r+0xdf8>
40007e2c:	b2 10 20 01 	mov  1, %i1
40007e30:	80 a4 a0 00 	cmp  %l2, 0
40007e34:	04 80 00 06 	ble  40007e4c <_dtoa_r+0xcc8>
40007e38:	d2 07 bf bc 	ld  [ %fp + -68 ], %o1
40007e3c:	94 10 00 12 	mov  %l2, %o2
40007e40:	40 00 08 37 	call  40009f1c <_lshift>
40007e44:	d0 07 a0 44 	ld  [ %fp + 0x44 ], %o0
40007e48:	d0 27 bf bc 	st  %o0, [ %fp + -68 ]
40007e4c:	da 07 bf bc 	ld  [ %fp + -68 ], %o5
40007e50:	80 a4 20 00 	cmp  %l0, 0
40007e54:	12 80 00 6b 	bne  40008000 <_dtoa_r+0xe7c>
40007e58:	da 27 bf c0 	st  %o5, [ %fp + -64 ]
40007e5c:	b2 10 20 01 	mov  1, %i1
40007e60:	92 10 00 1a 	mov  %i2, %o1
40007e64:	7f ff fc 4a 	call  40006f8c <quorem>
40007e68:	d0 07 bf c4 	ld  [ %fp + -60 ], %o0
40007e6c:	a6 02 20 30 	add  %o0, 0x30, %l3
40007e70:	d2 07 bf c0 	ld  [ %fp + -64 ], %o1
40007e74:	40 00 08 6f 	call  4000a030 <__mcmp>
40007e78:	d0 07 bf c4 	ld  [ %fp + -60 ], %o0
40007e7c:	a0 10 00 08 	mov  %o0, %l0
40007e80:	d0 07 a0 44 	ld  [ %fp + 0x44 ], %o0
40007e84:	92 10 00 1a 	mov  %i2, %o1
40007e88:	40 00 08 84 	call  4000a098 <__mdiff>
40007e8c:	d4 07 bf bc 	ld  [ %fp + -68 ], %o2
40007e90:	c2 02 20 0c 	ld  [ %o0 + 0xc ], %g1
40007e94:	a2 10 00 08 	mov  %o0, %l1
40007e98:	80 a0 60 00 	cmp  %g1, 0
40007e9c:	02 80 00 6a 	be  40008044 <_dtoa_r+0xec0>
40007ea0:	a4 10 20 01 	mov  1, %l2
40007ea4:	92 10 00 11 	mov  %l1, %o1
40007ea8:	40 00 06 84 	call  400098b8 <_Bfree>
40007eac:	d0 07 a0 44 	ld  [ %fp + 0x44 ], %o0
40007eb0:	80 94 80 1b 	orcc  %l2, %i3, %g0
40007eb4:	12 80 00 05 	bne  40007ec8 <_dtoa_r+0xd44>
40007eb8:	80 a4 20 00 	cmp  %l0, 0
40007ebc:	80 8d 60 01 	btst  1, %l5
40007ec0:	02 80 01 51 	be  40008404 <_dtoa_r+0x1280>
40007ec4:	80 a4 20 00 	cmp  %l0, 0
40007ec8:	06 80 01 25 	bl  4000835c <_dtoa_r+0x11d8>
40007ecc:	80 94 00 1b 	orcc  %l0, %i3, %g0
40007ed0:	12 80 00 05 	bne  40007ee4 <_dtoa_r+0xd60>
40007ed4:	80 a4 a0 00 	cmp  %l2, 0
40007ed8:	80 8d 60 01 	btst  1, %l5
40007edc:	02 80 01 20 	be  4000835c <_dtoa_r+0x11d8>
40007ee0:	80 a4 a0 00 	cmp  %l2, 0
40007ee4:	14 80 01 43 	bg  400083f0 <_dtoa_r+0x126c>
40007ee8:	80 a4 e0 39 	cmp  %l3, 0x39
40007eec:	e6 2e 00 00 	stb  %l3, [ %i0 ]
40007ef0:	d6 07 bf e4 	ld  [ %fp + -28 ], %o3
40007ef4:	80 a6 40 0b 	cmp  %i1, %o3
40007ef8:	02 80 00 2a 	be  40007fa0 <_dtoa_r+0xe1c>
40007efc:	b0 06 20 01 	inc  %i0
40007f00:	d2 07 bf c4 	ld  [ %fp + -60 ], %o1
40007f04:	d0 07 a0 44 	ld  [ %fp + 0x44 ], %o0
40007f08:	94 10 20 0a 	mov  0xa, %o2
40007f0c:	40 00 06 76 	call  400098e4 <_multadd>
40007f10:	96 10 20 00 	clr  %o3
40007f14:	d8 07 bf c0 	ld  [ %fp + -64 ], %o4
40007f18:	da 07 bf bc 	ld  [ %fp + -68 ], %o5
40007f1c:	80 a3 00 0d 	cmp  %o4, %o5
40007f20:	02 80 00 4e 	be  40008058 <_dtoa_r+0xed4>
40007f24:	d0 27 bf c4 	st  %o0, [ %fp + -60 ]
40007f28:	d2 07 bf c0 	ld  [ %fp + -64 ], %o1
40007f2c:	94 10 20 0a 	mov  0xa, %o2
40007f30:	96 10 20 00 	clr  %o3
40007f34:	40 00 06 6c 	call  400098e4 <_multadd>
40007f38:	d0 07 a0 44 	ld  [ %fp + 0x44 ], %o0
40007f3c:	d0 27 bf c0 	st  %o0, [ %fp + -64 ]
40007f40:	d0 07 a0 44 	ld  [ %fp + 0x44 ], %o0
40007f44:	d2 07 bf bc 	ld  [ %fp + -68 ], %o1
40007f48:	94 10 20 0a 	mov  0xa, %o2
40007f4c:	40 00 06 66 	call  400098e4 <_multadd>
40007f50:	96 10 20 00 	clr  %o3
40007f54:	d0 27 bf bc 	st  %o0, [ %fp + -68 ]
40007f58:	10 bf ff c2 	b  40007e60 <_dtoa_r+0xcdc>
40007f5c:	b2 06 60 01 	inc  %i1
40007f60:	d2 07 bf c4 	ld  [ %fp + -60 ], %o1
40007f64:	d0 07 a0 44 	ld  [ %fp + 0x44 ], %o0
40007f68:	94 10 20 0a 	mov  0xa, %o2
40007f6c:	40 00 06 5e 	call  400098e4 <_multadd>
40007f70:	96 10 20 00 	clr  %o3
40007f74:	d0 27 bf c4 	st  %o0, [ %fp + -60 ]
40007f78:	b2 06 60 01 	inc  %i1
40007f7c:	d0 07 bf c4 	ld  [ %fp + -60 ], %o0
40007f80:	7f ff fc 03 	call  40006f8c <quorem>
40007f84:	92 10 00 1a 	mov  %i2, %o1
40007f88:	a6 02 20 30 	add  %o0, 0x30, %l3
40007f8c:	e6 2e 00 00 	stb  %l3, [ %i0 ]
40007f90:	c2 07 bf e4 	ld  [ %fp + -28 ], %g1
40007f94:	80 a6 40 01 	cmp  %i1, %g1
40007f98:	06 bf ff f2 	bl  40007f60 <_dtoa_r+0xddc>
40007f9c:	b0 06 20 01 	inc  %i0
40007fa0:	d2 07 bf c4 	ld  [ %fp + -60 ], %o1
40007fa4:	94 10 20 01 	mov  1, %o2
40007fa8:	40 00 07 dd 	call  40009f1c <_lshift>
40007fac:	d0 07 a0 44 	ld  [ %fp + 0x44 ], %o0
40007fb0:	d0 27 bf c4 	st  %o0, [ %fp + -60 ]
40007fb4:	40 00 08 1f 	call  4000a030 <__mcmp>
40007fb8:	92 10 00 1a 	mov  %i2, %o1
40007fbc:	a0 92 20 00 	orcc  %o0, 0, %l0
40007fc0:	04 80 01 01 	ble  400083c4 <_dtoa_r+0x1240>
40007fc4:	80 a4 20 00 	cmp  %l0, 0
40007fc8:	b0 06 3f ff 	add  %i0, -1, %i0
40007fcc:	c2 4e 00 00 	ldsb  [ %i0 ], %g1
40007fd0:	80 a0 60 39 	cmp  %g1, 0x39
40007fd4:	12 80 00 b8 	bne  400082b4 <_dtoa_r+0x1130>
40007fd8:	d6 07 bf b8 	ld  [ %fp + -72 ], %o3
40007fdc:	80 a6 00 0b 	cmp  %i0, %o3
40007fe0:	32 bf ff fb 	bne,a   40007fcc <_dtoa_r+0xe48>
40007fe4:	b0 06 3f ff 	add  %i0, -1, %i0
40007fe8:	d8 07 bf b8 	ld  [ %fp + -72 ], %o4
40007fec:	82 10 20 31 	mov  0x31, %g1
40007ff0:	c2 2b 00 00 	stb  %g1, [ %o4 ]
40007ff4:	ba 07 60 01 	inc  %i5
40007ff8:	10 bf fd ca 	b  40007720 <_dtoa_r+0x59c>
40007ffc:	b0 03 20 01 	add  %o4, 1, %i0
40008000:	d2 03 60 04 	ld  [ %o5 + 4 ], %o1
40008004:	40 00 06 04 	call  40009814 <_Balloc>
40008008:	d0 07 a0 44 	ld  [ %fp + 0x44 ], %o0
4000800c:	c2 07 bf c0 	ld  [ %fp + -64 ], %g1
40008010:	d4 00 60 10 	ld  [ %g1 + 0x10 ], %o2
40008014:	d0 27 bf bc 	st  %o0, [ %fp + -68 ]
40008018:	95 2a a0 02 	sll  %o2, 2, %o2
4000801c:	92 00 60 0c 	add  %g1, 0xc, %o1
40008020:	94 02 a0 08 	add  %o2, 8, %o2
40008024:	40 00 05 52 	call  4000956c <memcpy>
40008028:	90 02 20 0c 	add  %o0, 0xc, %o0
4000802c:	d0 07 a0 44 	ld  [ %fp + 0x44 ], %o0
40008030:	d2 07 bf bc 	ld  [ %fp + -68 ], %o1
40008034:	40 00 07 ba 	call  40009f1c <_lshift>
40008038:	94 10 20 01 	mov  1, %o2
4000803c:	10 bf ff 88 	b  40007e5c <_dtoa_r+0xcd8>
40008040:	d0 27 bf bc 	st  %o0, [ %fp + -68 ]
40008044:	d0 07 bf c4 	ld  [ %fp + -60 ], %o0
40008048:	40 00 07 fa 	call  4000a030 <__mcmp>
4000804c:	92 10 00 11 	mov  %l1, %o1
40008050:	10 bf ff 95 	b  40007ea4 <_dtoa_r+0xd20>
40008054:	a4 10 00 08 	mov  %o0, %l2
40008058:	92 10 00 0d 	mov  %o5, %o1
4000805c:	d0 07 a0 44 	ld  [ %fp + 0x44 ], %o0
40008060:	94 10 20 0a 	mov  0xa, %o2
40008064:	40 00 06 20 	call  400098e4 <_multadd>
40008068:	96 10 20 00 	clr  %o3
4000806c:	d0 27 bf bc 	st  %o0, [ %fp + -68 ]
40008070:	d0 27 bf c0 	st  %o0, [ %fp + -64 ]
40008074:	10 bf ff 7b 	b  40007e60 <_dtoa_r+0xcdc>
40008078:	b2 06 60 01 	inc  %i1
4000807c:	9b 28 60 03 	sll  %g1, 3, %o5
40008080:	03 10 00 33 	sethi  %hi(0x4000cc00), %g1
40008084:	82 10 60 f8 	or  %g1, 0xf8, %g1	! 4000ccf8 <__mprec_tens>
40008088:	9a 03 40 01 	add  %o5, %g1, %o5
4000808c:	96 10 00 09 	mov  %o1, %o3
40008090:	94 10 00 12 	mov  %l2, %o2
40008094:	7f ff ec 6c 	call  40003244 <__muldf3>
40008098:	d0 1b 7f f8 	ldd  [ %o5 + -8 ], %o0
4000809c:	a4 10 00 08 	mov  %o0, %l2
400080a0:	a6 10 00 09 	mov  %o1, %l3
400080a4:	10 80 00 0a 	b  400080cc <_dtoa_r+0xf48>
400080a8:	b2 10 20 01 	mov  1, %i1
400080ac:	03 10 00 32 	sethi  %hi(0x4000c800), %g1
400080b0:	d0 18 62 b0 	ldd  [ %g1 + 0x2b0 ], %o0	! 4000cab0 <___DTOR_END__+0x390>
400080b4:	94 10 00 10 	mov  %l0, %o2
400080b8:	7f ff ec 63 	call  40003244 <__muldf3>
400080bc:	96 10 00 11 	mov  %l1, %o3
400080c0:	a8 10 00 08 	mov  %o0, %l4
400080c4:	aa 10 00 09 	mov  %o1, %l5
400080c8:	b2 06 60 01 	inc  %i1
400080cc:	92 10 00 15 	mov  %l5, %o1
400080d0:	40 00 0c c8 	call  4000b3f0 <__fixdfsi>
400080d4:	90 10 00 14 	mov  %l4, %o0
400080d8:	7f ff ed 95 	call  4000372c <__floatsidf>
400080dc:	b4 10 00 08 	mov  %o0, %i2
400080e0:	96 10 00 09 	mov  %o1, %o3
400080e4:	94 10 00 08 	mov  %o0, %o2
400080e8:	90 10 00 14 	mov  %l4, %o0
400080ec:	7f ff ec 3f 	call  400031e8 <__subdf3>
400080f0:	92 10 00 15 	mov  %l5, %o1
400080f4:	82 06 a0 30 	add  %i2, 0x30, %g1
400080f8:	c2 2e 00 00 	stb  %g1, [ %i0 ]
400080fc:	d6 07 bf e4 	ld  [ %fp + -28 ], %o3
40008100:	a0 10 00 08 	mov  %o0, %l0
40008104:	a2 10 00 09 	mov  %o1, %l1
40008108:	80 a6 40 0b 	cmp  %i1, %o3
4000810c:	12 bf ff e8 	bne  400080ac <_dtoa_r+0xf28>
40008110:	b0 06 20 01 	inc  %i0
40008114:	19 10 00 32 	sethi  %hi(0x4000c800), %o4
40008118:	94 10 00 12 	mov  %l2, %o2
4000811c:	96 10 00 13 	mov  %l3, %o3
40008120:	7f ff ec 1e 	call  40003198 <__adddf3>
40008124:	d0 1b 22 f0 	ldd  [ %o4 + 0x2f0 ], %o0
40008128:	94 10 00 10 	mov  %l0, %o2
4000812c:	40 00 0c 98 	call  4000b38c <__ltdf2>
40008130:	96 10 00 11 	mov  %l1, %o3
40008134:	80 a2 20 00 	cmp  %o0, 0
40008138:	06 bf fe 94 	bl  40007b88 <_dtoa_r+0xa04>
4000813c:	1b 10 00 32 	sethi  %hi(0x4000c800), %o5
40008140:	94 10 00 12 	mov  %l2, %o2
40008144:	96 10 00 13 	mov  %l3, %o3
40008148:	7f ff ec 28 	call  400031e8 <__subdf3>
4000814c:	d0 1b 62 f0 	ldd  [ %o5 + 0x2f0 ], %o0
40008150:	94 10 00 10 	mov  %l0, %o2
40008154:	40 00 0c 5c 	call  4000b2c4 <__gtdf2>
40008158:	96 10 00 11 	mov  %l1, %o3
4000815c:	80 a2 20 00 	cmp  %o0, 0
40008160:	04 bf fd 9b 	ble  400077cc <_dtoa_r+0x648>
40008164:	c2 07 bf e0 	ld  [ %fp + -32 ], %g1
40008168:	b0 06 3f ff 	add  %i0, -1, %i0
4000816c:	c2 4e 00 00 	ldsb  [ %i0 ], %g1
40008170:	80 a0 60 30 	cmp  %g1, 0x30
40008174:	22 bf ff fe 	be,a   4000816c <_dtoa_r+0xfe8>
40008178:	b0 06 3f ff 	add  %i0, -1, %i0
4000817c:	10 bf fd 7c 	b  4000776c <_dtoa_r+0x5e8>
40008180:	b0 06 20 01 	inc  %i0
40008184:	a4 a0 00 1d 	subcc  %g0, %i5, %l2
40008188:	02 bf fd 25 	be  4000761c <_dtoa_r+0x498>
4000818c:	da 07 bf d4 	ld  [ %fp + -44 ], %o5
40008190:	9a 0c a0 0f 	and  %l2, 0xf, %o5
40008194:	03 10 00 33 	sethi  %hi(0x4000cc00), %g1
40008198:	9b 2b 60 03 	sll  %o5, 3, %o5
4000819c:	82 10 60 f8 	or  %g1, 0xf8, %g1
400081a0:	96 00 40 0d 	add  %g1, %o5, %o3
400081a4:	d0 1a c0 00 	ldd  [ %o3 ], %o0
400081a8:	94 10 00 14 	mov  %l4, %o2
400081ac:	7f ff ec 26 	call  40003244 <__muldf3>
400081b0:	96 10 00 15 	mov  %l5, %o3
400081b4:	a1 3c a0 04 	sra  %l2, 4, %l0
400081b8:	a8 10 00 08 	mov  %o0, %l4
400081bc:	80 a4 20 00 	cmp  %l0, 0
400081c0:	02 bf fd 16 	be  40007618 <_dtoa_r+0x494>
400081c4:	aa 10 00 09 	mov  %o1, %l5
400081c8:	03 10 00 33 	sethi  %hi(0x4000cc00), %g1
400081cc:	a4 10 60 d0 	or  %g1, 0xd0, %l2	! 4000ccd0 <__mprec_bigtens>
400081d0:	80 8c 20 01 	btst  1, %l0
400081d4:	22 80 00 0c 	be,a   40008204 <_dtoa_r+0x1080>
400081d8:	a1 3c 20 01 	sra  %l0, 1, %l0
400081dc:	83 2e 60 03 	sll  %i1, 3, %g1
400081e0:	98 04 80 01 	add  %l2, %g1, %o4
400081e4:	94 10 00 14 	mov  %l4, %o2
400081e8:	96 10 00 15 	mov  %l5, %o3
400081ec:	7f ff ec 16 	call  40003244 <__muldf3>
400081f0:	d0 1b 00 00 	ldd  [ %o4 ], %o0
400081f4:	a8 10 00 08 	mov  %o0, %l4
400081f8:	aa 10 00 09 	mov  %o1, %l5
400081fc:	a2 04 60 01 	inc  %l1
40008200:	a1 3c 20 01 	sra  %l0, 1, %l0
40008204:	80 a4 20 00 	cmp  %l0, 0
40008208:	12 bf ff f2 	bne  400081d0 <_dtoa_r+0x104c>
4000820c:	b2 06 60 01 	inc  %i1
40008210:	10 bf fd 03 	b  4000761c <_dtoa_r+0x498>
40008214:	da 07 bf d4 	ld  [ %fp + -44 ], %o5
40008218:	7f ff eb e0 	call  40003198 <__adddf3>
4000821c:	d4 18 60 18 	ldd  [ %g1 + 0x18 ], %o2
40008220:	10 bf fc 1c 	b  40007290 <_dtoa_r+0x10c>
40008224:	03 3f 84 00 	sethi  %hi(0xfe100000), %g1
40008228:	40 00 07 82 	call  4000a030 <__mcmp>
4000822c:	92 10 00 1a 	mov  %i2, %o1
40008230:	80 a2 20 00 	cmp  %o0, 0
40008234:	16 bf fd fa 	bge  40007a1c <_dtoa_r+0x898>
40008238:	d6 07 bf e4 	ld  [ %fp + -28 ], %o3
4000823c:	d2 07 bf c4 	ld  [ %fp + -60 ], %o1
40008240:	d0 07 a0 44 	ld  [ %fp + 0x44 ], %o0
40008244:	94 10 20 0a 	mov  0xa, %o2
40008248:	40 00 05 a7 	call  400098e4 <_multadd>
4000824c:	96 10 20 00 	clr  %o3
40008250:	d8 07 bf d0 	ld  [ %fp + -48 ], %o4
40008254:	d0 27 bf c4 	st  %o0, [ %fp + -60 ]
40008258:	80 a3 20 00 	cmp  %o4, 0
4000825c:	12 80 00 05 	bne  40008270 <_dtoa_r+0x10ec>
40008260:	ba 07 7f ff 	add  %i5, -1, %i5
40008264:	da 07 bf dc 	ld  [ %fp + -36 ], %o5
40008268:	10 bf fd ec 	b  40007a18 <_dtoa_r+0x894>
4000826c:	da 27 bf e4 	st  %o5, [ %fp + -28 ]
40008270:	d2 07 bf bc 	ld  [ %fp + -68 ], %o1
40008274:	d0 07 a0 44 	ld  [ %fp + 0x44 ], %o0
40008278:	94 10 20 0a 	mov  0xa, %o2
4000827c:	40 00 05 9a 	call  400098e4 <_multadd>
40008280:	96 10 20 00 	clr  %o3
40008284:	da 07 bf dc 	ld  [ %fp + -36 ], %o5
40008288:	d0 27 bf bc 	st  %o0, [ %fp + -68 ]
4000828c:	10 bf fd e3 	b  40007a18 <_dtoa_r+0x894>
40008290:	da 27 bf e4 	st  %o5, [ %fp + -28 ]
40008294:	c2 06 a0 10 	ld  [ %i2 + 0x10 ], %g1
40008298:	83 28 60 02 	sll  %g1, 2, %g1
4000829c:	82 00 40 1a 	add  %g1, %i2, %g1
400082a0:	40 00 05 fd 	call  40009a94 <_hi0bits>
400082a4:	d0 00 60 10 	ld  [ %g1 + 0x10 ], %o0
400082a8:	90 27 00 08 	sub  %i4, %o0, %o0
400082ac:	10 bf fd ba 	b  40007994 <_dtoa_r+0x810>
400082b0:	b2 0a 20 1f 	and  %o0, 0x1f, %i1
400082b4:	c2 0e 00 00 	ldub  [ %i0 ], %g1
400082b8:	82 00 60 01 	inc  %g1
400082bc:	c2 2e 00 00 	stb  %g1, [ %i0 ]
400082c0:	10 bf fd 18 	b  40007720 <_dtoa_r+0x59c>
400082c4:	b0 06 20 01 	inc  %i0
400082c8:	d2 07 bf c4 	ld  [ %fp + -60 ], %o1
400082cc:	d4 07 bf e8 	ld  [ %fp + -24 ], %o2
400082d0:	40 00 06 c9 	call  40009df4 <_pow5mult>
400082d4:	d0 07 a0 44 	ld  [ %fp + 0x44 ], %o0
400082d8:	10 bf fd 9b 	b  40007944 <_dtoa_r+0x7c0>
400082dc:	d0 27 bf c4 	st  %o0, [ %fp + -60 ]
400082e0:	80 a5 60 00 	cmp  %l5, 0
400082e4:	12 bf fd a8 	bne  40007984 <_dtoa_r+0x800>
400082e8:	82 07 20 01 	add  %i4, 1, %g1
400082ec:	03 3f fc 00 	sethi  %hi(0xfff00000), %g1
400082f0:	80 ad 00 01 	andncc  %l4, %g1, %g0
400082f4:	12 bf fd a4 	bne  40007984 <_dtoa_r+0x800>
400082f8:	82 07 20 01 	add  %i4, 1, %g1
400082fc:	03 1f fc 00 	sethi  %hi(0x7ff00000), %g1
40008300:	80 88 40 14 	btst  %g1, %l4
40008304:	02 bf fd a0 	be  40007984 <_dtoa_r+0x800>
40008308:	82 07 20 01 	add  %i4, 1, %g1
4000830c:	c2 07 bf ec 	ld  [ %fp + -20 ], %g1
40008310:	82 00 60 01 	inc  %g1
40008314:	c2 27 bf ec 	st  %g1, [ %fp + -20 ]
40008318:	b8 07 20 01 	inc  %i4
4000831c:	10 bf fd 99 	b  40007980 <_dtoa_r+0x7fc>
40008320:	a0 10 20 01 	mov  1, %l0
40008324:	10 bf fc c8 	b  40007644 <_dtoa_r+0x4c0>
40008328:	9a 10 20 01 	mov  1, %o5
4000832c:	10 bf ff e9 	b  400082d0 <_dtoa_r+0x114c>
40008330:	94 10 00 10 	mov  %l0, %o2
40008334:	10 bf fe 51 	b  40007c78 <_dtoa_r+0xaf4>
40008338:	da 27 a0 54 	st  %o5, [ %fp + 0x54 ]
4000833c:	d6 07 bf c8 	ld  [ %fp + -56 ], %o3
40008340:	80 a2 e0 00 	cmp  %o3, 0
40008344:	12 bf fe 3f 	bne  40007c40 <_dtoa_r+0xabc>
40008348:	b2 02 24 33 	add  %o0, 0x433, %i1
4000834c:	9a 10 20 36 	mov  0x36, %o5
40008350:	c2 07 bf f0 	ld  [ %fp + -16 ], %g1
40008354:	10 bf fe 3b 	b  40007c40 <_dtoa_r+0xabc>
40008358:	b2 23 40 01 	sub  %o5, %g1, %i1
4000835c:	80 a4 a0 00 	cmp  %l2, 0
40008360:	04 80 00 0f 	ble  4000839c <_dtoa_r+0x1218>
40008364:	d2 07 bf c4 	ld  [ %fp + -60 ], %o1
40008368:	94 10 20 01 	mov  1, %o2
4000836c:	40 00 06 ec 	call  40009f1c <_lshift>
40008370:	d0 07 a0 44 	ld  [ %fp + 0x44 ], %o0
40008374:	d0 27 bf c4 	st  %o0, [ %fp + -60 ]
40008378:	40 00 07 2e 	call  4000a030 <__mcmp>
4000837c:	92 10 00 1a 	mov  %i2, %o1
40008380:	a4 92 20 00 	orcc  %o0, 0, %l2
40008384:	04 80 00 28 	ble  40008424 <_dtoa_r+0x12a0>
40008388:	80 a4 a0 00 	cmp  %l2, 0
4000838c:	a6 04 e0 01 	inc  %l3
40008390:	80 a4 e0 3a 	cmp  %l3, 0x3a
40008394:	02 80 00 06 	be  400083ac <_dtoa_r+0x1228>
40008398:	82 10 20 39 	mov  0x39, %g1
4000839c:	e6 2e 00 00 	stb  %l3, [ %i0 ]
400083a0:	10 bf fc e0 	b  40007720 <_dtoa_r+0x59c>
400083a4:	b0 06 20 01 	inc  %i0
400083a8:	82 10 20 39 	mov  0x39, %g1
400083ac:	c2 2e 00 00 	stb  %g1, [ %i0 ]
400083b0:	10 bf ff 06 	b  40007fc8 <_dtoa_r+0xe44>
400083b4:	b0 06 20 01 	inc  %i0
400083b8:	a4 22 c0 19 	sub  %o3, %i1, %l2
400083bc:	10 bf fe 21 	b  40007c40 <_dtoa_r+0xabc>
400083c0:	b2 10 20 00 	clr  %i1
400083c4:	12 80 00 05 	bne  400083d8 <_dtoa_r+0x1254>
400083c8:	b0 06 3f ff 	add  %i0, -1, %i0
400083cc:	80 8c e0 01 	btst  1, %l3
400083d0:	12 bf fe ff 	bne  40007fcc <_dtoa_r+0xe48>
400083d4:	01 00 00 00 	nop 
400083d8:	c2 4e 00 00 	ldsb  [ %i0 ], %g1
400083dc:	80 a0 60 30 	cmp  %g1, 0x30
400083e0:	22 bf ff fe 	be,a   400083d8 <_dtoa_r+0x1254>
400083e4:	b0 06 3f ff 	add  %i0, -1, %i0
400083e8:	10 bf fc ce 	b  40007720 <_dtoa_r+0x59c>
400083ec:	b0 06 20 01 	inc  %i0
400083f0:	02 bf ff ee 	be  400083a8 <_dtoa_r+0x1224>
400083f4:	82 04 e0 01 	add  %l3, 1, %g1
400083f8:	c2 2e 00 00 	stb  %g1, [ %i0 ]
400083fc:	10 bf fc c9 	b  40007720 <_dtoa_r+0x59c>
40008400:	b0 06 20 01 	inc  %i0
40008404:	80 a4 e0 39 	cmp  %l3, 0x39
40008408:	02 bf ff e8 	be  400083a8 <_dtoa_r+0x1224>
4000840c:	83 3c 20 1f 	sra  %l0, 0x1f, %g1
40008410:	82 20 40 10 	sub  %g1, %l0, %g1
40008414:	83 30 60 1f 	srl  %g1, 0x1f, %g1
40008418:	a6 04 c0 01 	add  %l3, %g1, %l3
4000841c:	10 bf ff e1 	b  400083a0 <_dtoa_r+0x121c>
40008420:	e6 2e 00 00 	stb  %l3, [ %i0 ]
40008424:	32 bf ff df 	bne,a   400083a0 <_dtoa_r+0x121c>
40008428:	e6 2e 00 00 	stb  %l3, [ %i0 ]
4000842c:	80 8c e0 01 	btst  1, %l3
40008430:	32 bf ff d8 	bne,a   40008390 <_dtoa_r+0x120c>
40008434:	a6 04 e0 01 	inc  %l3
40008438:	10 bf ff da 	b  400083a0 <_dtoa_r+0x121c>
4000843c:	e6 2e 00 00 	stb  %l3, [ %i0 ]
40008440:	81 c7 e0 08 	ret 
40008444:	91 e8 00 01 	restore  %g0, %g1, %o0

40008448 <fflush>:
40008448:	9d e3 bf 98 	save  %sp, -104, %sp
4000844c:	80 a6 20 00 	cmp  %i0, 0
40008450:	02 80 00 48 	be  40008570 <fflush+0x128>
40008454:	03 10 00 33 	sethi  %hi(0x4000cc00), %g1
40008458:	c2 16 20 0c 	lduh  [ %i0 + 0xc ], %g1
4000845c:	80 88 62 00 	btst  0x200, %g1
40008460:	02 80 00 3e 	be  40008558 <fflush+0x110>
40008464:	01 00 00 00 	nop 
40008468:	03 10 00 36 	sethi  %hi(0x4000d800), %g1
4000846c:	d0 00 61 a8 	ld  [ %g1 + 0x1a8 ], %o0	! 4000d9a8 <_impure_ptr>
40008470:	80 a2 20 00 	cmp  %o0, 0
40008474:	32 80 00 26 	bne,a   4000850c <fflush+0xc4>
40008478:	c2 02 20 38 	ld  [ %o0 + 0x38 ], %g1
4000847c:	da 16 20 0c 	lduh  [ %i0 + 0xc ], %o5
40008480:	83 2b 60 10 	sll  %o5, 0x10, %g1
40008484:	91 38 60 10 	sra  %g1, 0x10, %o0
40008488:	80 8a 20 08 	btst  8, %o0
4000848c:	22 80 00 2c 	be,a   4000853c <fflush+0xf4>
40008490:	83 30 60 10 	srl  %g1, 0x10, %g1
40008494:	e0 06 20 10 	ld  [ %i0 + 0x10 ], %l0
40008498:	80 a4 20 00 	cmp  %l0, 0
4000849c:	02 80 00 27 	be  40008538 <fflush+0xf0>
400084a0:	80 8a 20 03 	btst  3, %o0
400084a4:	c2 06 00 00 	ld  [ %i0 ], %g1
400084a8:	b2 20 40 10 	sub  %g1, %l0, %i1
400084ac:	e0 26 00 00 	st  %l0, [ %i0 ]
400084b0:	02 80 00 2e 	be  40008568 <fflush+0x120>
400084b4:	82 10 20 00 	clr  %g1
400084b8:	80 a6 60 00 	cmp  %i1, 0
400084bc:	04 80 00 0f 	ble  400084f8 <fflush+0xb0>
400084c0:	c2 26 20 08 	st  %g1, [ %i0 + 8 ]
400084c4:	92 10 00 10 	mov  %l0, %o1
400084c8:	94 10 00 19 	mov  %i1, %o2
400084cc:	c2 06 20 24 	ld  [ %i0 + 0x24 ], %g1
400084d0:	9f c0 40 00 	call  %g1
400084d4:	d0 06 20 1c 	ld  [ %i0 + 0x1c ], %o0
400084d8:	b2 26 40 08 	sub  %i1, %o0, %i1
400084dc:	80 a2 20 00 	cmp  %o0, 0
400084e0:	04 80 00 28 	ble  40008580 <fflush+0x138>
400084e4:	a0 04 00 08 	add  %l0, %o0, %l0
400084e8:	80 a6 60 00 	cmp  %i1, 0
400084ec:	14 bf ff f7 	bg  400084c8 <fflush+0x80>
400084f0:	92 10 00 10 	mov  %l0, %o1
400084f4:	da 16 20 0c 	lduh  [ %i0 + 0xc ], %o5
400084f8:	80 8b 62 00 	btst  0x200, %o5
400084fc:	02 80 00 13 	be  40008548 <fflush+0x100>
40008500:	01 00 00 00 	nop 
40008504:	10 80 00 29 	b  400085a8 <fflush+0x160>
40008508:	b0 10 20 00 	clr  %i0	! 0 <_trap_table-0x40000000>
4000850c:	80 a0 60 00 	cmp  %g1, 0
40008510:	32 bf ff dc 	bne,a   40008480 <fflush+0x38>
40008514:	da 16 20 0c 	lduh  [ %i0 + 0xc ], %o5
40008518:	40 00 00 5e 	call  40008690 <__sinit>
4000851c:	01 00 00 00 	nop 
40008520:	da 16 20 0c 	lduh  [ %i0 + 0xc ], %o5
40008524:	83 2b 60 10 	sll  %o5, 0x10, %g1
40008528:	91 38 60 10 	sra  %g1, 0x10, %o0
4000852c:	80 8a 20 08 	btst  8, %o0
40008530:	32 bf ff da 	bne,a   40008498 <fflush+0x50>
40008534:	e0 06 20 10 	ld  [ %i0 + 0x10 ], %l0
40008538:	83 30 60 10 	srl  %g1, 0x10, %g1
4000853c:	80 88 62 00 	btst  0x200, %g1
40008540:	32 80 00 1a 	bne,a   400085a8 <fflush+0x160>
40008544:	b0 10 20 00 	clr  %i0
40008548:	40 00 0d 03 	call  4000b954 <___st_pthread_mutex_unlock>
4000854c:	90 06 20 58 	add  %i0, 0x58, %o0
40008550:	10 80 00 16 	b  400085a8 <fflush+0x160>
40008554:	b0 10 20 00 	clr  %i0
40008558:	40 00 0c e7 	call  4000b8f4 <___st_pthread_mutex_lock>
4000855c:	90 06 20 58 	add  %i0, 0x58, %o0
40008560:	10 bf ff c3 	b  4000846c <fflush+0x24>
40008564:	03 10 00 36 	sethi  %hi(0x4000d800), %g1
40008568:	10 bf ff d4 	b  400084b8 <fflush+0x70>
4000856c:	c2 06 20 14 	ld  [ %i0 + 0x14 ], %g1
40008570:	33 10 00 21 	sethi  %hi(0x40008400), %i1
40008574:	f0 00 60 58 	ld  [ %g1 + 0x58 ], %i0
40008578:	40 00 02 cf 	call  400090b4 <_fwalk>
4000857c:	93 ee 60 48 	restore  %i1, 0x48, %o1
40008580:	c2 16 20 0c 	lduh  [ %i0 + 0xc ], %g1
40008584:	82 10 60 40 	or  %g1, 0x40, %g1
40008588:	80 88 62 00 	btst  0x200, %g1
4000858c:	02 80 00 04 	be  4000859c <fflush+0x154>
40008590:	c2 36 20 0c 	sth  %g1, [ %i0 + 0xc ]
40008594:	10 80 00 05 	b  400085a8 <fflush+0x160>
40008598:	b0 10 3f ff 	mov  -1, %i0
4000859c:	40 00 0c ee 	call  4000b954 <___st_pthread_mutex_unlock>
400085a0:	90 06 20 58 	add  %i0, 0x58, %o0
400085a4:	b0 10 3f ff 	mov  -1, %i0
400085a8:	81 c7 e0 08 	ret 
400085ac:	81 e8 00 00 	restore 

400085b0 <std>:
400085b0:	9d e3 bf 88 	save  %sp, -120, %sp
400085b4:	03 10 00 2b 	sethi  %hi(0x4000ac00), %g1
400085b8:	1b 10 00 2b 	sethi  %hi(0x4000ac00), %o5
400085bc:	82 10 60 88 	or  %g1, 0x88, %g1
400085c0:	9a 13 60 d4 	or  %o5, 0xd4, %o5
400085c4:	c2 26 20 20 	st  %g1, [ %i0 + 0x20 ]
400085c8:	da 26 20 24 	st  %o5, [ %i0 + 0x24 ]
400085cc:	03 10 00 2b 	sethi  %hi(0x4000ac00), %g1
400085d0:	1b 10 00 2b 	sethi  %hi(0x4000ac00), %o5
400085d4:	a0 07 bf e8 	add  %fp, -24, %l0
400085d8:	82 10 61 4c 	or  %g1, 0x14c, %g1
400085dc:	9a 13 61 a0 	or  %o5, 0x1a0, %o5
400085e0:	c2 26 20 28 	st  %g1, [ %i0 + 0x28 ]
400085e4:	da 26 20 2c 	st  %o5, [ %i0 + 0x2c ]
400085e8:	f2 36 20 0c 	sth  %i1, [ %i0 + 0xc ]
400085ec:	f4 36 20 0e 	sth  %i2, [ %i0 + 0xe ]
400085f0:	c0 26 00 00 	clr  [ %i0 ]
400085f4:	c0 26 20 04 	clr  [ %i0 + 4 ]
400085f8:	c0 26 20 08 	clr  [ %i0 + 8 ]
400085fc:	c0 26 20 10 	clr  [ %i0 + 0x10 ]
40008600:	c0 26 20 14 	clr  [ %i0 + 0x14 ]
40008604:	c0 26 20 18 	clr  [ %i0 + 0x18 ]
40008608:	f0 26 20 1c 	st  %i0, [ %i0 + 0x1c ]
4000860c:	40 00 0c de 	call  4000b984 <___st_pthread_mutexattr_init>
40008610:	90 10 00 10 	mov  %l0, %o0
40008614:	92 10 20 01 	mov  1, %o1
40008618:	40 00 0c f3 	call  4000b9e4 <___st_pthread_mutexattr_settype>
4000861c:	90 10 00 10 	mov  %l0, %o0
40008620:	90 06 20 58 	add  %i0, 0x58, %o0
40008624:	40 00 0c 9b 	call  4000b890 <___st_pthread_mutex_init>
40008628:	92 10 00 10 	mov  %l0, %o1
4000862c:	40 00 0c e2 	call  4000b9b4 <___st_pthread_mutexattr_destroy>
40008630:	90 10 00 10 	mov  %l0, %o0
40008634:	01 00 00 00 	nop 
40008638:	81 c7 e0 08 	ret 
4000863c:	81 e8 00 00 	restore 

40008640 <__sfmoreglue>:
40008640:	9d e3 bf 98 	save  %sp, -104, %sp
40008644:	a0 5e 60 cc 	smul  %i1, 0xcc, %l0
40008648:	90 10 00 18 	mov  %i0, %o0
4000864c:	7f ff ee 3c 	call  40003f3c <_malloc_r>
40008650:	92 04 20 0c 	add  %l0, 0xc, %o1
40008654:	a2 10 00 08 	mov  %o0, %l1
40008658:	82 02 20 0c 	add  %o0, 0xc, %g1
4000865c:	90 10 00 01 	mov  %g1, %o0
40008660:	94 10 00 10 	mov  %l0, %o2
40008664:	92 10 20 00 	clr  %o1
40008668:	80 a4 60 00 	cmp  %l1, 0
4000866c:	02 80 00 07 	be  40008688 <__sfmoreglue+0x48>
40008670:	b0 10 20 00 	clr  %i0
40008674:	f2 24 60 04 	st  %i1, [ %l1 + 4 ]
40008678:	c0 24 40 00 	clr  [ %l1 ]
4000867c:	40 00 04 3a 	call  40009764 <memset>
40008680:	c2 24 60 08 	st  %g1, [ %l1 + 8 ]
40008684:	b0 10 00 11 	mov  %l1, %i0
40008688:	81 c7 e0 08 	ret 
4000868c:	81 e8 00 00 	restore 

40008690 <__sinit>:
40008690:	9d e3 bf 98 	save  %sp, -104, %sp
40008694:	03 10 00 21 	sethi  %hi(0x40008400), %g1
40008698:	82 10 62 fc 	or  %g1, 0x2fc, %g1	! 400086fc <_cleanup_r>
4000869c:	c2 26 20 3c 	st  %g1, [ %i0 + 0x3c ]
400086a0:	98 06 22 ec 	add  %i0, 0x2ec, %o4
400086a4:	9a 10 20 01 	mov  1, %o5
400086a8:	82 10 20 03 	mov  3, %g1
400086ac:	da 26 20 38 	st  %o5, [ %i0 + 0x38 ]
400086b0:	c2 26 22 e4 	st  %g1, [ %i0 + 0x2e4 ]
400086b4:	d8 26 22 e8 	st  %o4, [ %i0 + 0x2e8 ]
400086b8:	d0 06 20 04 	ld  [ %i0 + 4 ], %o0
400086bc:	96 10 00 18 	mov  %i0, %o3
400086c0:	c0 26 22 e0 	clr  [ %i0 + 0x2e0 ]
400086c4:	92 10 20 06 	mov  6, %o1
400086c8:	7f ff ff ba 	call  400085b0 <std>
400086cc:	94 10 20 00 	clr  %o2
400086d0:	d0 06 20 08 	ld  [ %i0 + 8 ], %o0
400086d4:	96 10 00 18 	mov  %i0, %o3
400086d8:	92 10 20 0a 	mov  0xa, %o1
400086dc:	7f ff ff b5 	call  400085b0 <std>
400086e0:	94 10 20 01 	mov  1, %o2
400086e4:	b6 10 00 18 	mov  %i0, %i3
400086e8:	f0 06 20 0c 	ld  [ %i0 + 0xc ], %i0
400086ec:	b2 10 20 0a 	mov  0xa, %i1
400086f0:	7f ff ff b0 	call  400085b0 <std>
400086f4:	95 e8 20 02 	restore  %g0, 2, %o2
400086f8:	01 00 00 00 	nop 

400086fc <_cleanup_r>:
400086fc:	13 10 00 2c 	sethi  %hi(0x4000b000), %o1
40008700:	92 12 61 24 	or  %o1, 0x124, %o1	! 4000b124 <fclose>
40008704:	82 13 c0 00 	mov  %o7, %g1
40008708:	40 00 02 6b 	call  400090b4 <_fwalk>
4000870c:	9e 10 40 00 	mov  %g1, %o7
40008710:	01 00 00 00 	nop 

40008714 <_cleanup>:
40008714:	03 10 00 33 	sethi  %hi(0x4000cc00), %g1
40008718:	d0 00 60 58 	ld  [ %g1 + 0x58 ], %o0	! 4000cc58 <_global_impure_ptr>
4000871c:	82 13 c0 00 	mov  %o7, %g1
40008720:	7f ff ff f7 	call  400086fc <_cleanup_r>
40008724:	9e 10 40 00 	mov  %g1, %o7
40008728:	01 00 00 00 	nop 

4000872c <__sfp_lock_acquire>:
4000872c:	11 10 00 34 	sethi  %hi(0x4000d000), %o0
40008730:	90 12 23 e4 	or  %o0, 0x3e4, %o0	! 4000d3e4 <__sfp_lock>
40008734:	82 13 c0 00 	mov  %o7, %g1
40008738:	40 00 0c 6f 	call  4000b8f4 <___st_pthread_mutex_lock>
4000873c:	9e 10 40 00 	mov  %g1, %o7
40008740:	01 00 00 00 	nop 

40008744 <__sfp_lock_release>:
40008744:	11 10 00 34 	sethi  %hi(0x4000d000), %o0
40008748:	90 12 23 e4 	or  %o0, 0x3e4, %o0	! 4000d3e4 <__sfp_lock>
4000874c:	82 13 c0 00 	mov  %o7, %g1
40008750:	40 00 0c 81 	call  4000b954 <___st_pthread_mutex_unlock>
40008754:	9e 10 40 00 	mov  %g1, %o7
40008758:	01 00 00 00 	nop 

4000875c <__sfp>:
4000875c:	9d e3 bf 88 	save  %sp, -120, %sp
40008760:	7f ff ff f3 	call  4000872c <__sfp_lock_acquire>
40008764:	a2 10 00 18 	mov  %i0, %l1
40008768:	03 10 00 33 	sethi  %hi(0x4000cc00), %g1
4000876c:	e0 00 60 58 	ld  [ %g1 + 0x58 ], %l0	! 4000cc58 <_global_impure_ptr>
40008770:	da 04 20 38 	ld  [ %l0 + 0x38 ], %o5
40008774:	80 a3 60 00 	cmp  %o5, 0
40008778:	02 80 00 13 	be  400087c4 <__sfp+0x68>
4000877c:	01 00 00 00 	nop 
40008780:	a0 04 22 e0 	add  %l0, 0x2e0, %l0
40008784:	da 04 20 04 	ld  [ %l0 + 4 ], %o5
40008788:	9a 83 7f ff 	addcc  %o5, -1, %o5
4000878c:	0c 80 00 08 	bneg  400087ac <__sfp+0x50>
40008790:	f0 04 20 08 	ld  [ %l0 + 8 ], %i0
40008794:	c2 56 20 0c 	ldsh  [ %i0 + 0xc ], %g1
40008798:	80 a0 60 00 	cmp  %g1, 0
4000879c:	02 80 00 18 	be  400087fc <__sfp+0xa0>
400087a0:	9a 83 7f ff 	addcc  %o5, -1, %o5
400087a4:	1c bf ff fc 	bpos  40008794 <__sfp+0x38>
400087a8:	b0 06 20 cc 	add  %i0, 0xcc, %i0
400087ac:	d0 04 00 00 	ld  [ %l0 ], %o0
400087b0:	80 a2 20 00 	cmp  %o0, 0
400087b4:	22 80 00 08 	be,a   400087d4 <__sfp+0x78>
400087b8:	90 10 00 11 	mov  %l1, %o0
400087bc:	10 bf ff f2 	b  40008784 <__sfp+0x28>
400087c0:	a0 10 00 08 	mov  %o0, %l0
400087c4:	7f ff ff b3 	call  40008690 <__sinit>
400087c8:	90 10 00 10 	mov  %l0, %o0
400087cc:	10 bf ff ee 	b  40008784 <__sfp+0x28>
400087d0:	a0 04 22 e0 	add  %l0, 0x2e0, %l0
400087d4:	7f ff ff 9b 	call  40008640 <__sfmoreglue>
400087d8:	92 10 20 04 	mov  4, %o1
400087dc:	80 a2 20 00 	cmp  %o0, 0
400087e0:	12 bf ff f7 	bne  400087bc <__sfp+0x60>
400087e4:	d0 24 00 00 	st  %o0, [ %l0 ]
400087e8:	7f ff ff d7 	call  40008744 <__sfp_lock_release>
400087ec:	b0 10 20 00 	clr  %i0
400087f0:	82 10 20 0c 	mov  0xc, %g1
400087f4:	10 80 00 1d 	b  40008868 <__sfp+0x10c>
400087f8:	c2 24 40 00 	st  %g1, [ %l1 ]
400087fc:	82 10 3f ff 	mov  -1, %g1
40008800:	9a 10 20 01 	mov  1, %o5
40008804:	a0 07 bf e8 	add  %fp, -24, %l0
40008808:	c2 36 20 0e 	sth  %g1, [ %i0 + 0xe ]
4000880c:	da 36 20 0c 	sth  %o5, [ %i0 + 0xc ]
40008810:	40 00 0c 5d 	call  4000b984 <___st_pthread_mutexattr_init>
40008814:	90 10 00 10 	mov  %l0, %o0
40008818:	92 10 20 01 	mov  1, %o1
4000881c:	40 00 0c 72 	call  4000b9e4 <___st_pthread_mutexattr_settype>
40008820:	90 10 00 10 	mov  %l0, %o0
40008824:	92 10 00 10 	mov  %l0, %o1
40008828:	40 00 0c 1a 	call  4000b890 <___st_pthread_mutex_init>
4000882c:	90 06 20 58 	add  %i0, 0x58, %o0
40008830:	40 00 0c 61 	call  4000b9b4 <___st_pthread_mutexattr_destroy>
40008834:	90 10 00 10 	mov  %l0, %o0
40008838:	7f ff ff c3 	call  40008744 <__sfp_lock_release>
4000883c:	01 00 00 00 	nop 
40008840:	c0 26 00 00 	clr  [ %i0 ]
40008844:	c0 26 20 08 	clr  [ %i0 + 8 ]
40008848:	c0 26 20 04 	clr  [ %i0 + 4 ]
4000884c:	c0 26 20 10 	clr  [ %i0 + 0x10 ]
40008850:	c0 26 20 14 	clr  [ %i0 + 0x14 ]
40008854:	c0 26 20 18 	clr  [ %i0 + 0x18 ]
40008858:	c0 26 20 30 	clr  [ %i0 + 0x30 ]
4000885c:	c0 26 20 34 	clr  [ %i0 + 0x34 ]
40008860:	c0 26 20 44 	clr  [ %i0 + 0x44 ]
40008864:	c0 26 20 48 	clr  [ %i0 + 0x48 ]
40008868:	81 c7 e0 08 	ret 
4000886c:	81 e8 00 00 	restore 

40008870 <__fp_lock>:
40008870:	9d e3 bf 98 	save  %sp, -104, %sp
40008874:	c2 16 20 0c 	lduh  [ %i0 + 0xc ], %g1
40008878:	80 88 62 00 	btst  0x200, %g1
4000887c:	12 80 00 04 	bne  4000888c <__fp_lock+0x1c>
40008880:	90 06 20 58 	add  %i0, 0x58, %o0
40008884:	40 00 0c 1c 	call  4000b8f4 <___st_pthread_mutex_lock>
40008888:	01 00 00 00 	nop 
4000888c:	81 c7 e0 08 	ret 
40008890:	91 e8 20 00 	restore  %g0, 0, %o0

40008894 <__fp_unlock>:
40008894:	9d e3 bf 98 	save  %sp, -104, %sp
40008898:	c2 16 20 0c 	lduh  [ %i0 + 0xc ], %g1
4000889c:	80 88 62 00 	btst  0x200, %g1
400088a0:	12 80 00 04 	bne  400088b0 <__fp_unlock+0x1c>
400088a4:	90 06 20 58 	add  %i0, 0x58, %o0
400088a8:	40 00 0c 2b 	call  4000b954 <___st_pthread_mutex_unlock>
400088ac:	01 00 00 00 	nop 
400088b0:	81 c7 e0 08 	ret 
400088b4:	91 e8 20 00 	restore  %g0, 0, %o0

400088b8 <__fp_lock_all>:
400088b8:	9d e3 bf 98 	save  %sp, -104, %sp
400088bc:	7f ff ff 9c 	call  4000872c <__sfp_lock_acquire>
400088c0:	33 10 00 22 	sethi  %hi(0x40008800), %i1
400088c4:	03 10 00 36 	sethi  %hi(0x4000d800), %g1
400088c8:	f0 00 61 a8 	ld  [ %g1 + 0x1a8 ], %i0	! 4000d9a8 <_impure_ptr>
400088cc:	40 00 01 fa 	call  400090b4 <_fwalk>
400088d0:	93 ee 60 70 	restore  %i1, 0x70, %o1
400088d4:	01 00 00 00 	nop 

400088d8 <__fp_unlock_all>:
400088d8:	9d e3 bf 98 	save  %sp, -104, %sp
400088dc:	03 10 00 36 	sethi  %hi(0x4000d800), %g1
400088e0:	13 10 00 22 	sethi  %hi(0x40008800), %o1
400088e4:	92 12 60 94 	or  %o1, 0x94, %o1	! 40008894 <__fp_unlock>
400088e8:	40 00 01 f3 	call  400090b4 <_fwalk>
400088ec:	d0 00 61 a8 	ld  [ %g1 + 0x1a8 ], %o0
400088f0:	7f ff ff 95 	call  40008744 <__sfp_lock_release>
400088f4:	81 e8 00 00 	restore 
400088f8:	01 00 00 00 	nop 

400088fc <_malloc_trim_r>:
400088fc:	9d e3 bf 98 	save  %sp, -104, %sp
40008900:	7f ff ef 4c 	call  40004630 <__malloc_lock>
40008904:	90 10 00 18 	mov  %i0, %o0
40008908:	03 10 00 33 	sethi  %hi(0x4000cc00), %g1
4000890c:	a2 10 63 68 	or  %g1, 0x368, %l1	! 4000cf68 <__malloc_av_>
40008910:	da 04 60 08 	ld  [ %l1 + 8 ], %o5
40008914:	c2 03 60 04 	ld  [ %o5 + 4 ], %g1
40008918:	a0 08 7f fc 	and  %g1, -4, %l0
4000891c:	b2 24 00 19 	sub  %l0, %i1, %i1
40008920:	b2 06 6f ef 	add  %i1, 0xfef, %i1
40008924:	b2 0e 70 00 	and  %i1, -4096, %i1
40008928:	b2 06 70 00 	add  %i1, -4096, %i1
4000892c:	92 10 20 00 	clr  %o1
40008930:	80 a6 6f ff 	cmp  %i1, 0xfff
40008934:	04 80 00 0a 	ble  4000895c <_malloc_trim_r+0x60>
40008938:	90 10 00 18 	mov  %i0, %o0
4000893c:	7f ff ef af 	call  400047f8 <_sbrk_r>
40008940:	01 00 00 00 	nop 
40008944:	c2 04 60 08 	ld  [ %l1 + 8 ], %g1
40008948:	82 00 40 10 	add  %g1, %l0, %g1
4000894c:	80 a0 40 08 	cmp  %g1, %o0
40008950:	92 20 00 19 	neg  %i1, %o1
40008954:	02 80 00 05 	be  40008968 <_malloc_trim_r+0x6c>
40008958:	90 10 00 18 	mov  %i0, %o0
4000895c:	7f ff ef 3b 	call  40004648 <__malloc_unlock>
40008960:	b0 10 20 00 	clr  %i0
40008964:	30 80 00 23 	b,a   400089f0 <_malloc_trim_r+0xf4>
40008968:	7f ff ef a4 	call  400047f8 <_sbrk_r>
4000896c:	90 10 00 18 	mov  %i0, %o0
40008970:	82 24 00 19 	sub  %l0, %i1, %g1
40008974:	80 a2 3f ff 	cmp  %o0, -1
40008978:	82 10 60 01 	or  %g1, 1, %g1
4000897c:	92 10 20 00 	clr  %o1
40008980:	19 10 00 36 	sethi  %hi(0x4000d800), %o4
40008984:	02 80 00 0b 	be  400089b0 <_malloc_trim_r+0xb4>
40008988:	90 10 00 18 	mov  %i0, %o0
4000898c:	da 04 60 08 	ld  [ %l1 + 8 ], %o5
40008990:	c2 23 60 04 	st  %g1, [ %o5 + 4 ]
40008994:	c2 03 22 3c 	ld  [ %o4 + 0x23c ], %g1
40008998:	82 20 40 19 	sub  %g1, %i1, %g1
4000899c:	90 10 00 18 	mov  %i0, %o0
400089a0:	7f ff ef 2a 	call  40004648 <__malloc_unlock>
400089a4:	c2 23 22 3c 	st  %g1, [ %o4 + 0x23c ]
400089a8:	10 80 00 12 	b  400089f0 <_malloc_trim_r+0xf4>
400089ac:	b0 10 20 01 	mov  1, %i0
400089b0:	7f ff ef 92 	call  400047f8 <_sbrk_r>
400089b4:	01 00 00 00 	nop 
400089b8:	98 10 00 08 	mov  %o0, %o4
400089bc:	d6 04 60 08 	ld  [ %l1 + 8 ], %o3
400089c0:	a0 23 00 0b 	sub  %o4, %o3, %l0
400089c4:	90 10 00 18 	mov  %i0, %o0
400089c8:	80 a4 20 0f 	cmp  %l0, 0xf
400089cc:	04 bf ff e4 	ble  4000895c <_malloc_trim_r+0x60>
400089d0:	b2 14 20 01 	or  %l0, 1, %i1
400089d4:	03 10 00 33 	sethi  %hi(0x4000cc00), %g1
400089d8:	da 00 63 60 	ld  [ %g1 + 0x360 ], %o5	! 4000cf60 <__malloc_sbrk_base>
400089dc:	9a 23 00 0d 	sub  %o4, %o5, %o5
400089e0:	03 10 00 36 	sethi  %hi(0x4000d800), %g1
400089e4:	da 20 62 3c 	st  %o5, [ %g1 + 0x23c ]	! 4000da3c <__malloc_current_mallinfo>
400089e8:	10 bf ff dd 	b  4000895c <_malloc_trim_r+0x60>
400089ec:	f2 22 e0 04 	st  %i1, [ %o3 + 4 ]
400089f0:	81 c7 e0 08 	ret 
400089f4:	81 e8 00 00 	restore 

400089f8 <_free_r>:
400089f8:	9d e3 bf 98 	save  %sp, -104, %sp
400089fc:	80 a6 60 00 	cmp  %i1, 0
40008a00:	02 80 00 9d 	be  40008c74 <_free_r+0x27c>
40008a04:	a4 10 00 18 	mov  %i0, %l2
40008a08:	7f ff ef 0a 	call  40004630 <__malloc_lock>
40008a0c:	90 10 00 18 	mov  %i0, %o0
40008a10:	a0 06 7f f8 	add  %i1, -8, %l0
40008a14:	d6 04 20 04 	ld  [ %l0 + 4 ], %o3
40008a18:	90 0a ff fe 	and  %o3, -2, %o0
40008a1c:	19 10 00 33 	sethi  %hi(0x4000cc00), %o4
40008a20:	94 04 00 08 	add  %l0, %o0, %o2
40008a24:	a2 13 23 68 	or  %o4, 0x368, %l1
40008a28:	da 02 a0 04 	ld  [ %o2 + 4 ], %o5
40008a2c:	c2 04 60 08 	ld  [ %l1 + 8 ], %g1
40008a30:	80 a0 40 0a 	cmp  %g1, %o2
40008a34:	02 80 00 44 	be  40008b44 <_free_r+0x14c>
40008a38:	9e 0b 7f fc 	and  %o5, -4, %o7
40008a3c:	80 8a e0 01 	btst  1, %o3
40008a40:	de 22 a0 04 	st  %o7, [ %o2 + 4 ]
40008a44:	12 80 00 0c 	bne  40008a74 <_free_r+0x7c>
40008a48:	b0 10 20 00 	clr  %i0
40008a4c:	f2 06 7f f8 	ld  [ %i1 + -8 ], %i1
40008a50:	a0 24 00 19 	sub  %l0, %i1, %l0
40008a54:	82 04 60 08 	add  %l1, 8, %g1
40008a58:	da 04 20 08 	ld  [ %l0 + 8 ], %o5
40008a5c:	80 a3 40 01 	cmp  %o5, %g1
40008a60:	02 80 00 7d 	be  40008c54 <_free_r+0x25c>
40008a64:	90 02 00 19 	add  %o0, %i1, %o0
40008a68:	d2 04 20 0c 	ld  [ %l0 + 0xc ], %o1
40008a6c:	da 22 60 08 	st  %o5, [ %o1 + 8 ]
40008a70:	d2 23 60 0c 	st  %o1, [ %o5 + 0xc ]
40008a74:	82 02 80 0f 	add  %o2, %o7, %g1
40008a78:	da 00 60 04 	ld  [ %g1 + 4 ], %o5
40008a7c:	80 8b 60 01 	btst  1, %o5
40008a80:	12 80 00 0a 	bne  40008aa8 <_free_r+0xb0>
40008a84:	82 12 20 01 	or  %o0, 1, %g1
40008a88:	80 a6 20 00 	cmp  %i0, 0
40008a8c:	02 80 00 22 	be  40008b14 <_free_r+0x11c>
40008a90:	90 02 00 0f 	add  %o0, %o7, %o0
40008a94:	da 02 a0 08 	ld  [ %o2 + 8 ], %o5
40008a98:	d2 02 a0 0c 	ld  [ %o2 + 0xc ], %o1
40008a9c:	da 22 60 08 	st  %o5, [ %o1 + 8 ]
40008aa0:	d2 23 60 0c 	st  %o1, [ %o5 + 0xc ]
40008aa4:	82 12 20 01 	or  %o0, 1, %g1
40008aa8:	c2 24 20 04 	st  %g1, [ %l0 + 4 ]
40008aac:	80 a6 20 00 	cmp  %i0, 0
40008ab0:	02 80 00 05 	be  40008ac4 <_free_r+0xcc>
40008ab4:	d0 24 00 08 	st  %o0, [ %l0 + %o0 ]
40008ab8:	b0 10 00 12 	mov  %l2, %i0
40008abc:	7f ff ee e3 	call  40004648 <__malloc_unlock>
40008ac0:	81 e8 00 00 	restore 
40008ac4:	80 a2 21 ff 	cmp  %o0, 0x1ff
40008ac8:	18 80 00 36 	bgu  40008ba0 <_free_r+0x1a8>
40008acc:	97 32 20 09 	srl  %o0, 9, %o3
40008ad0:	9b 32 20 03 	srl  %o0, 3, %o5
40008ad4:	98 13 23 68 	or  %o4, 0x368, %o4
40008ad8:	83 2b 60 03 	sll  %o5, 3, %g1
40008adc:	92 00 40 0c 	add  %g1, %o4, %o1
40008ae0:	9b 33 60 02 	srl  %o5, 2, %o5
40008ae4:	82 10 20 01 	mov  1, %g1
40008ae8:	83 28 40 0d 	sll  %g1, %o5, %g1
40008aec:	d6 02 60 08 	ld  [ %o1 + 8 ], %o3
40008af0:	da 03 20 04 	ld  [ %o4 + 4 ], %o5
40008af4:	9a 13 40 01 	or  %o5, %g1, %o5
40008af8:	d2 24 20 0c 	st  %o1, [ %l0 + 0xc ]
40008afc:	d6 24 20 08 	st  %o3, [ %l0 + 8 ]
40008b00:	e0 22 e0 0c 	st  %l0, [ %o3 + 0xc ]
40008b04:	da 23 20 04 	st  %o5, [ %o4 + 4 ]
40008b08:	e0 22 60 08 	st  %l0, [ %o1 + 8 ]
40008b0c:	10 bf ff ec 	b  40008abc <_free_r+0xc4>
40008b10:	b0 10 00 12 	mov  %l2, %i0
40008b14:	03 10 00 33 	sethi  %hi(0x4000cc00), %g1
40008b18:	da 02 a0 08 	ld  [ %o2 + 8 ], %o5
40008b1c:	82 10 63 70 	or  %g1, 0x370, %g1
40008b20:	80 a3 40 01 	cmp  %o5, %g1
40008b24:	32 bf ff de 	bne,a   40008a9c <_free_r+0xa4>
40008b28:	d2 02 a0 0c 	ld  [ %o2 + 0xc ], %o1
40008b2c:	e0 23 60 0c 	st  %l0, [ %o5 + 0xc ]
40008b30:	e0 23 60 08 	st  %l0, [ %o5 + 8 ]
40008b34:	da 24 20 08 	st  %o5, [ %l0 + 8 ]
40008b38:	da 24 20 0c 	st  %o5, [ %l0 + 0xc ]
40008b3c:	10 bf ff da 	b  40008aa4 <_free_r+0xac>
40008b40:	b0 10 20 01 	mov  1, %i0
40008b44:	80 8a e0 01 	btst  1, %o3
40008b48:	12 80 00 09 	bne  40008b6c <_free_r+0x174>
40008b4c:	90 02 00 0f 	add  %o0, %o7, %o0
40008b50:	f2 06 7f f8 	ld  [ %i1 + -8 ], %i1
40008b54:	a0 24 00 19 	sub  %l0, %i1, %l0
40008b58:	d2 04 20 0c 	ld  [ %l0 + 0xc ], %o1
40008b5c:	d6 04 20 08 	ld  [ %l0 + 8 ], %o3
40008b60:	d6 22 60 08 	st  %o3, [ %o1 + 8 ]
40008b64:	90 02 00 19 	add  %o0, %i1, %o0
40008b68:	d2 22 e0 0c 	st  %o1, [ %o3 + 0xc ]
40008b6c:	03 10 00 33 	sethi  %hi(0x4000cc00), %g1
40008b70:	da 00 63 64 	ld  [ %g1 + 0x364 ], %o5	! 4000cf64 <__malloc_trim_threshold>
40008b74:	98 12 20 01 	or  %o0, 1, %o4
40008b78:	e0 24 60 08 	st  %l0, [ %l1 + 8 ]
40008b7c:	80 a2 00 0d 	cmp  %o0, %o5
40008b80:	0a bf ff cf 	bcs  40008abc <_free_r+0xc4>
40008b84:	d8 24 20 04 	st  %o4, [ %l0 + 4 ]
40008b88:	03 10 00 36 	sethi  %hi(0x4000d800), %g1
40008b8c:	d2 00 62 6c 	ld  [ %g1 + 0x26c ], %o1	! 4000da6c <__malloc_top_pad>
40008b90:	7f ff ff 5b 	call  400088fc <_malloc_trim_r>
40008b94:	90 10 00 12 	mov  %l2, %o0
40008b98:	7f ff ee ac 	call  40004648 <__malloc_unlock>
40008b9c:	81 e8 00 00 	restore 
40008ba0:	80 a2 e0 00 	cmp  %o3, 0
40008ba4:	02 80 00 16 	be  40008bfc <_free_r+0x204>
40008ba8:	9b 32 20 03 	srl  %o0, 3, %o5
40008bac:	83 32 20 06 	srl  %o0, 6, %g1
40008bb0:	80 a2 e0 04 	cmp  %o3, 4
40008bb4:	08 80 00 12 	bleu  40008bfc <_free_r+0x204>
40008bb8:	9a 00 60 38 	add  %g1, 0x38, %o5
40008bbc:	80 a2 e0 14 	cmp  %o3, 0x14
40008bc0:	08 80 00 0f 	bleu  40008bfc <_free_r+0x204>
40008bc4:	9a 02 e0 5b 	add  %o3, 0x5b, %o5
40008bc8:	83 32 20 0c 	srl  %o0, 0xc, %g1
40008bcc:	80 a2 e0 54 	cmp  %o3, 0x54
40008bd0:	08 80 00 0b 	bleu  40008bfc <_free_r+0x204>
40008bd4:	9a 00 60 6e 	add  %g1, 0x6e, %o5
40008bd8:	83 32 20 0f 	srl  %o0, 0xf, %g1
40008bdc:	80 a2 e1 54 	cmp  %o3, 0x154
40008be0:	08 80 00 07 	bleu  40008bfc <_free_r+0x204>
40008be4:	9a 00 60 77 	add  %g1, 0x77, %o5
40008be8:	83 32 20 12 	srl  %o0, 0x12, %g1
40008bec:	80 a2 e5 54 	cmp  %o3, 0x554
40008bf0:	08 80 00 03 	bleu  40008bfc <_free_r+0x204>
40008bf4:	9a 00 60 7c 	add  %g1, 0x7c, %o5
40008bf8:	9a 10 20 7e 	mov  0x7e, %o5
40008bfc:	94 13 23 68 	or  %o4, 0x368, %o2
40008c00:	83 2b 60 03 	sll  %o5, 3, %g1
40008c04:	92 00 40 0a 	add  %g1, %o2, %o1
40008c08:	d6 02 60 08 	ld  [ %o1 + 8 ], %o3
40008c0c:	80 a2 c0 09 	cmp  %o3, %o1
40008c10:	02 80 00 13 	be  40008c5c <_free_r+0x264>
40008c14:	99 33 60 02 	srl  %o5, 2, %o4
40008c18:	c2 02 e0 04 	ld  [ %o3 + 4 ], %g1
40008c1c:	82 08 7f fc 	and  %g1, -4, %g1
40008c20:	80 a0 40 08 	cmp  %g1, %o0
40008c24:	28 80 00 07 	bleu,a   40008c40 <_free_r+0x248>
40008c28:	d2 02 e0 0c 	ld  [ %o3 + 0xc ], %o1
40008c2c:	d6 02 e0 08 	ld  [ %o3 + 8 ], %o3
40008c30:	80 a2 c0 09 	cmp  %o3, %o1
40008c34:	32 bf ff fa 	bne,a   40008c1c <_free_r+0x224>
40008c38:	c2 02 e0 04 	ld  [ %o3 + 4 ], %g1
40008c3c:	d2 02 e0 0c 	ld  [ %o3 + 0xc ], %o1
40008c40:	d2 24 20 0c 	st  %o1, [ %l0 + 0xc ]
40008c44:	d6 24 20 08 	st  %o3, [ %l0 + 8 ]
40008c48:	e0 22 e0 0c 	st  %l0, [ %o3 + 0xc ]
40008c4c:	10 bf ff b0 	b  40008b0c <_free_r+0x114>
40008c50:	e0 22 60 08 	st  %l0, [ %o1 + 8 ]
40008c54:	10 bf ff 88 	b  40008a74 <_free_r+0x7c>
40008c58:	b0 10 20 01 	mov  1, %i0
40008c5c:	9a 10 20 01 	mov  1, %o5
40008c60:	c2 02 a0 04 	ld  [ %o2 + 4 ], %g1
40008c64:	9b 2b 40 0c 	sll  %o5, %o4, %o5
40008c68:	82 10 40 0d 	or  %g1, %o5, %g1
40008c6c:	10 bf ff f5 	b  40008c40 <_free_r+0x248>
40008c70:	c2 22 a0 04 	st  %g1, [ %o2 + 4 ]
40008c74:	81 c7 e0 08 	ret 
40008c78:	81 e8 00 00 	restore 

40008c7c <__sfvwrite>:
40008c7c:	9d e3 bf 98 	save  %sp, -104, %sp
40008c80:	e0 06 60 08 	ld  [ %i1 + 8 ], %l0
40008c84:	80 a4 20 00 	cmp  %l0, 0
40008c88:	a6 10 20 00 	clr  %l3
40008c8c:	02 80 01 08 	be  400090ac <__sfvwrite+0x430>
40008c90:	82 10 20 00 	clr  %g1
40008c94:	c2 16 20 0c 	lduh  [ %i0 + 0xc ], %g1
40008c98:	80 88 60 08 	btst  8, %g1
40008c9c:	02 80 00 06 	be  40008cb4 <__sfvwrite+0x38>
40008ca0:	9a 10 00 01 	mov  %g1, %o5
40008ca4:	c2 06 20 10 	ld  [ %i0 + 0x10 ], %g1
40008ca8:	80 a0 60 00 	cmp  %g1, 0
40008cac:	12 80 00 09 	bne  40008cd0 <__sfvwrite+0x54>
40008cb0:	83 2b 60 10 	sll  %o5, 0x10, %g1
40008cb4:	7f ff f8 26 	call  40006d4c <__swsetup>
40008cb8:	90 10 00 18 	mov  %i0, %o0
40008cbc:	80 a2 20 00 	cmp  %o0, 0
40008cc0:	12 80 00 fb 	bne  400090ac <__sfvwrite+0x430>
40008cc4:	82 10 3f ff 	mov  -1, %g1
40008cc8:	da 16 20 0c 	lduh  [ %i0 + 0xc ], %o5
40008ccc:	83 2b 60 10 	sll  %o5, 0x10, %g1
40008cd0:	83 30 60 10 	srl  %g1, 0x10, %g1
40008cd4:	80 88 60 02 	btst  2, %g1
40008cd8:	e4 06 40 00 	ld  [ %i1 ], %l2
40008cdc:	02 80 00 1d 	be  40008d50 <__sfvwrite+0xd4>
40008ce0:	a0 10 20 00 	clr  %l0
40008ce4:	10 80 00 05 	b  40008cf8 <__sfvwrite+0x7c>
40008ce8:	80 a4 20 00 	cmp  %l0, 0
40008cec:	e6 04 80 00 	ld  [ %l2 ], %l3
40008cf0:	a4 04 a0 08 	add  %l2, 8, %l2
40008cf4:	80 a4 20 00 	cmp  %l0, 0
40008cf8:	22 bf ff fd 	be,a   40008cec <__sfvwrite+0x70>
40008cfc:	e0 04 a0 04 	ld  [ %l2 + 4 ], %l0
40008d00:	80 a4 24 00 	cmp  %l0, 0x400
40008d04:	08 80 00 03 	bleu  40008d10 <__sfvwrite+0x94>
40008d08:	94 10 00 10 	mov  %l0, %o2
40008d0c:	94 10 24 00 	mov  0x400, %o2
40008d10:	c2 06 20 24 	ld  [ %i0 + 0x24 ], %g1
40008d14:	d0 06 20 1c 	ld  [ %i0 + 0x1c ], %o0
40008d18:	9f c0 40 00 	call  %g1
40008d1c:	92 10 00 13 	mov  %l3, %o1
40008d20:	a2 92 20 00 	orcc  %o0, 0, %l1
40008d24:	24 80 00 94 	ble,a   40008f74 <__sfvwrite+0x2f8>
40008d28:	c2 16 20 0c 	lduh  [ %i0 + 0xc ], %g1
40008d2c:	c2 06 60 08 	ld  [ %i1 + 8 ], %g1
40008d30:	82 20 40 11 	sub  %g1, %l1, %g1
40008d34:	80 a0 60 00 	cmp  %g1, 0
40008d38:	a6 04 c0 11 	add  %l3, %l1, %l3
40008d3c:	a0 24 00 11 	sub  %l0, %l1, %l0
40008d40:	12 bf ff ed 	bne  40008cf4 <__sfvwrite+0x78>
40008d44:	c2 26 60 08 	st  %g1, [ %i1 + 8 ]
40008d48:	10 80 00 d9 	b  400090ac <__sfvwrite+0x430>
40008d4c:	82 10 20 00 	clr  %g1
40008d50:	80 88 60 01 	btst  1, %g1
40008d54:	aa 10 20 00 	clr  %l5
40008d58:	02 80 00 4b 	be  40008e84 <__sfvwrite+0x208>
40008d5c:	a8 10 20 00 	clr  %l4
40008d60:	80 a4 20 00 	cmp  %l0, 0
40008d64:	12 80 00 3a 	bne  40008e4c <__sfvwrite+0x1d0>
40008d68:	80 a5 60 00 	cmp  %l5, 0
40008d6c:	e0 04 a0 04 	ld  [ %l2 + 4 ], %l0
40008d70:	e6 04 80 00 	ld  [ %l2 ], %l3
40008d74:	80 a4 20 00 	cmp  %l0, 0
40008d78:	02 bf ff fd 	be  40008d6c <__sfvwrite+0xf0>
40008d7c:	a4 04 a0 08 	add  %l2, 8, %l2
40008d80:	90 10 00 13 	mov  %l3, %o0
40008d84:	92 10 20 0a 	mov  0xa, %o1
40008d88:	40 00 01 c3 	call  40009494 <memchr>
40008d8c:	94 10 00 10 	mov  %l0, %o2
40008d90:	82 22 00 13 	sub  %o0, %l3, %g1
40008d94:	80 a2 20 00 	cmp  %o0, 0
40008d98:	02 80 00 60 	be  40008f18 <__sfvwrite+0x29c>
40008d9c:	a8 00 60 01 	add  %g1, 1, %l4
40008da0:	aa 10 20 01 	mov  1, %l5
40008da4:	80 a5 00 10 	cmp  %l4, %l0
40008da8:	08 80 00 03 	bleu  40008db4 <__sfvwrite+0x138>
40008dac:	98 10 00 14 	mov  %l4, %o4
40008db0:	98 10 00 10 	mov  %l0, %o4
40008db4:	c2 06 20 10 	ld  [ %i0 + 0x10 ], %g1
40008db8:	d0 06 00 00 	ld  [ %i0 ], %o0
40008dbc:	80 a0 40 08 	cmp  %g1, %o0
40008dc0:	da 06 20 08 	ld  [ %i0 + 8 ], %o5
40008dc4:	d6 06 20 14 	ld  [ %i0 + 0x14 ], %o3
40008dc8:	a2 03 40 0b 	add  %o5, %o3, %l1
40008dcc:	82 40 20 00 	addx  %g0, 0, %g1
40008dd0:	80 a3 00 11 	cmp  %o4, %l1
40008dd4:	14 80 00 03 	bg  40008de0 <__sfvwrite+0x164>
40008dd8:	9a 10 20 01 	mov  1, %o5
40008ddc:	9a 10 20 00 	clr  %o5
40008de0:	80 88 40 0d 	btst  %g1, %o5
40008de4:	12 80 00 90 	bne  40009024 <__sfvwrite+0x3a8>
40008de8:	80 a2 c0 0c 	cmp  %o3, %o4
40008dec:	14 80 00 7c 	bg  40008fdc <__sfvwrite+0x360>
40008df0:	a2 10 00 0c 	mov  %o4, %l1
40008df4:	94 10 00 0b 	mov  %o3, %o2
40008df8:	c2 06 20 24 	ld  [ %i0 + 0x24 ], %g1
40008dfc:	d0 06 20 1c 	ld  [ %i0 + 0x1c ], %o0
40008e00:	9f c0 40 00 	call  %g1
40008e04:	92 10 00 13 	mov  %l3, %o1
40008e08:	a2 92 20 00 	orcc  %o0, 0, %l1
40008e0c:	24 80 00 5a 	ble,a   40008f74 <__sfvwrite+0x2f8>
40008e10:	c2 16 20 0c 	lduh  [ %i0 + 0xc ], %g1
40008e14:	a8 a5 00 11 	subcc  %l4, %l1, %l4
40008e18:	02 80 00 7c 	be  40009008 <__sfvwrite+0x38c>
40008e1c:	01 00 00 00 	nop 
40008e20:	c2 06 60 08 	ld  [ %i1 + 8 ], %g1
40008e24:	82 20 40 11 	sub  %g1, %l1, %g1
40008e28:	80 a0 60 00 	cmp  %g1, 0
40008e2c:	a6 04 c0 11 	add  %l3, %l1, %l3
40008e30:	a0 24 00 11 	sub  %l0, %l1, %l0
40008e34:	02 bf ff c5 	be  40008d48 <__sfvwrite+0xcc>
40008e38:	c2 26 60 08 	st  %g1, [ %i1 + 8 ]
40008e3c:	80 a4 20 00 	cmp  %l0, 0
40008e40:	22 bf ff cc 	be,a   40008d70 <__sfvwrite+0xf4>
40008e44:	e0 04 a0 04 	ld  [ %l2 + 4 ], %l0
40008e48:	80 a5 60 00 	cmp  %l5, 0
40008e4c:	12 bf ff d7 	bne  40008da8 <__sfvwrite+0x12c>
40008e50:	80 a5 00 10 	cmp  %l4, %l0
40008e54:	90 10 00 13 	mov  %l3, %o0
40008e58:	92 10 20 0a 	mov  0xa, %o1
40008e5c:	40 00 01 8e 	call  40009494 <memchr>
40008e60:	94 10 00 10 	mov  %l0, %o2
40008e64:	82 22 00 13 	sub  %o0, %l3, %g1
40008e68:	80 a2 20 00 	cmp  %o0, 0
40008e6c:	12 bf ff cd 	bne  40008da0 <__sfvwrite+0x124>
40008e70:	a8 00 60 01 	add  %g1, 1, %l4
40008e74:	10 bf ff cb 	b  40008da0 <__sfvwrite+0x124>
40008e78:	a8 04 20 01 	add  %l0, 1, %l4
40008e7c:	e6 04 80 00 	ld  [ %l2 ], %l3
40008e80:	a4 04 a0 08 	add  %l2, 8, %l2
40008e84:	80 a4 20 00 	cmp  %l0, 0
40008e88:	22 bf ff fd 	be,a   40008e7c <__sfvwrite+0x200>
40008e8c:	e0 04 a0 04 	ld  [ %l2 + 4 ], %l0
40008e90:	83 2b 60 10 	sll  %o5, 0x10, %g1
40008e94:	83 30 60 10 	srl  %g1, 0x10, %g1
40008e98:	80 88 62 00 	btst  0x200, %g1
40008e9c:	02 80 00 21 	be  40008f20 <__sfvwrite+0x2a4>
40008ea0:	e2 06 20 08 	ld  [ %i0 + 8 ], %l1
40008ea4:	80 a4 40 10 	cmp  %l1, %l0
40008ea8:	1a 80 00 06 	bcc  40008ec0 <__sfvwrite+0x244>
40008eac:	01 00 00 00 	nop 
40008eb0:	80 88 60 80 	btst  0x80, %g1
40008eb4:	32 80 00 69 	bne,a   40009058 <__sfvwrite+0x3dc>
40008eb8:	d2 06 20 10 	ld  [ %i0 + 0x10 ], %o1
40008ebc:	80 a4 40 10 	cmp  %l1, %l0
40008ec0:	38 80 00 02 	bgu,a   40008ec8 <__sfvwrite+0x24c>
40008ec4:	a2 10 00 10 	mov  %l0, %l1
40008ec8:	94 10 00 11 	mov  %l1, %o2
40008ecc:	d0 06 00 00 	ld  [ %i0 ], %o0
40008ed0:	40 00 01 da 	call  40009638 <memmove>
40008ed4:	92 10 00 13 	mov  %l3, %o1
40008ed8:	c2 06 20 08 	ld  [ %i0 + 8 ], %g1
40008edc:	da 06 00 00 	ld  [ %i0 ], %o5
40008ee0:	9a 03 40 11 	add  %o5, %l1, %o5
40008ee4:	82 20 40 11 	sub  %g1, %l1, %g1
40008ee8:	c2 26 20 08 	st  %g1, [ %i0 + 8 ]
40008eec:	da 26 00 00 	st  %o5, [ %i0 ]
40008ef0:	a2 10 00 10 	mov  %l0, %l1
40008ef4:	c2 06 60 08 	ld  [ %i1 + 8 ], %g1
40008ef8:	82 20 40 11 	sub  %g1, %l1, %g1
40008efc:	80 a0 60 00 	cmp  %g1, 0
40008f00:	a6 04 c0 11 	add  %l3, %l1, %l3
40008f04:	a0 24 00 11 	sub  %l0, %l1, %l0
40008f08:	02 bf ff 90 	be  40008d48 <__sfvwrite+0xcc>
40008f0c:	c2 26 60 08 	st  %g1, [ %i1 + 8 ]
40008f10:	10 bf ff dd 	b  40008e84 <__sfvwrite+0x208>
40008f14:	da 16 20 0c 	lduh  [ %i0 + 0xc ], %o5
40008f18:	10 bf ff a2 	b  40008da0 <__sfvwrite+0x124>
40008f1c:	a8 04 20 01 	add  %l0, 1, %l4
40008f20:	c2 06 20 10 	ld  [ %i0 + 0x10 ], %g1
40008f24:	d0 06 00 00 	ld  [ %i0 ], %o0
40008f28:	80 a0 40 08 	cmp  %g1, %o0
40008f2c:	9a 40 20 00 	addx  %g0, 0, %o5
40008f30:	80 a4 40 10 	cmp  %l1, %l0
40008f34:	82 40 20 00 	addx  %g0, 0, %g1
40008f38:	80 8b 40 01 	btst  %o5, %g1
40008f3c:	12 80 00 1c 	bne  40008fac <__sfvwrite+0x330>
40008f40:	92 10 00 13 	mov  %l3, %o1
40008f44:	e2 06 20 14 	ld  [ %i0 + 0x14 ], %l1
40008f48:	80 a4 40 10 	cmp  %l1, %l0
40008f4c:	18 80 00 0e 	bgu  40008f84 <__sfvwrite+0x308>
40008f50:	94 10 00 11 	mov  %l1, %o2
40008f54:	c2 06 20 24 	ld  [ %i0 + 0x24 ], %g1
40008f58:	d0 06 20 1c 	ld  [ %i0 + 0x1c ], %o0
40008f5c:	9f c0 40 00 	call  %g1
40008f60:	92 10 00 13 	mov  %l3, %o1
40008f64:	a2 92 20 00 	orcc  %o0, 0, %l1
40008f68:	34 bf ff e4 	bg,a   40008ef8 <__sfvwrite+0x27c>
40008f6c:	c2 06 60 08 	ld  [ %i1 + 8 ], %g1
40008f70:	c2 16 20 0c 	lduh  [ %i0 + 0xc ], %g1
40008f74:	82 10 60 40 	or  %g1, 0x40, %g1
40008f78:	c2 36 20 0c 	sth  %g1, [ %i0 + 0xc ]
40008f7c:	10 80 00 4c 	b  400090ac <__sfvwrite+0x430>
40008f80:	82 10 3f ff 	mov  -1, %g1
40008f84:	40 00 01 ad 	call  40009638 <memmove>
40008f88:	94 10 00 10 	mov  %l0, %o2
40008f8c:	c2 06 20 08 	ld  [ %i0 + 8 ], %g1
40008f90:	da 06 00 00 	ld  [ %i0 ], %o5
40008f94:	82 20 40 10 	sub  %g1, %l0, %g1
40008f98:	9a 03 40 10 	add  %o5, %l0, %o5
40008f9c:	a2 10 00 10 	mov  %l0, %l1
40008fa0:	c2 26 20 08 	st  %g1, [ %i0 + 8 ]
40008fa4:	10 bf ff d4 	b  40008ef4 <__sfvwrite+0x278>
40008fa8:	da 26 00 00 	st  %o5, [ %i0 ]
40008fac:	40 00 01 a3 	call  40009638 <memmove>
40008fb0:	94 10 00 11 	mov  %l1, %o2
40008fb4:	c2 06 00 00 	ld  [ %i0 ], %g1
40008fb8:	82 00 40 11 	add  %g1, %l1, %g1
40008fbc:	c2 26 00 00 	st  %g1, [ %i0 ]
40008fc0:	7f ff fd 22 	call  40008448 <fflush>
40008fc4:	90 10 00 18 	mov  %i0, %o0
40008fc8:	80 a2 20 00 	cmp  %o0, 0
40008fcc:	22 bf ff cb 	be,a   40008ef8 <__sfvwrite+0x27c>
40008fd0:	c2 06 60 08 	ld  [ %i1 + 8 ], %g1
40008fd4:	10 bf ff e8 	b  40008f74 <__sfvwrite+0x2f8>
40008fd8:	c2 16 20 0c 	lduh  [ %i0 + 0xc ], %g1
40008fdc:	92 10 00 13 	mov  %l3, %o1
40008fe0:	40 00 01 96 	call  40009638 <memmove>
40008fe4:	94 10 00 0c 	mov  %o4, %o2
40008fe8:	c2 06 20 08 	ld  [ %i0 + 8 ], %g1
40008fec:	da 06 00 00 	ld  [ %i0 ], %o5
40008ff0:	82 20 40 11 	sub  %g1, %l1, %g1
40008ff4:	9a 03 40 11 	add  %o5, %l1, %o5
40008ff8:	c2 26 20 08 	st  %g1, [ %i0 + 8 ]
40008ffc:	a8 a5 00 11 	subcc  %l4, %l1, %l4
40009000:	12 bf ff 88 	bne  40008e20 <__sfvwrite+0x1a4>
40009004:	da 26 00 00 	st  %o5, [ %i0 ]
40009008:	7f ff fd 10 	call  40008448 <fflush>
4000900c:	90 10 00 18 	mov  %i0, %o0
40009010:	80 a2 20 00 	cmp  %o0, 0
40009014:	12 bf ff d7 	bne  40008f70 <__sfvwrite+0x2f4>
40009018:	aa 10 20 00 	clr  %l5
4000901c:	10 bf ff 82 	b  40008e24 <__sfvwrite+0x1a8>
40009020:	c2 06 60 08 	ld  [ %i1 + 8 ], %g1
40009024:	92 10 00 13 	mov  %l3, %o1
40009028:	40 00 01 84 	call  40009638 <memmove>
4000902c:	94 10 00 11 	mov  %l1, %o2
40009030:	c2 06 00 00 	ld  [ %i0 ], %g1
40009034:	82 00 40 11 	add  %g1, %l1, %g1
40009038:	c2 26 00 00 	st  %g1, [ %i0 ]
4000903c:	7f ff fd 03 	call  40008448 <fflush>
40009040:	90 10 00 18 	mov  %i0, %o0
40009044:	80 a2 20 00 	cmp  %o0, 0
40009048:	22 bf ff 74 	be,a   40008e18 <__sfvwrite+0x19c>
4000904c:	a8 a5 00 11 	subcc  %l4, %l1, %l4
40009050:	10 bf ff c9 	b  40008f74 <__sfvwrite+0x2f8>
40009054:	c2 16 20 0c 	lduh  [ %i0 + 0xc ], %g1
40009058:	c2 06 00 00 	ld  [ %i0 ], %g1
4000905c:	a2 20 40 09 	sub  %g1, %o1, %l1
40009060:	2b 10 00 36 	sethi  %hi(0x4000d800), %l5
40009064:	a8 04 40 10 	add  %l1, %l0, %l4
40009068:	d0 05 61 a8 	ld  [ %l5 + 0x1a8 ], %o0
4000906c:	40 00 05 3e 	call  4000a564 <_realloc_r>
40009070:	94 10 00 14 	mov  %l4, %o2
40009074:	80 a2 20 00 	cmp  %o0, 0
40009078:	22 80 00 09 	be,a   4000909c <__sfvwrite+0x420>
4000907c:	d0 05 61 a8 	ld  [ %l5 + 0x1a8 ], %o0
40009080:	82 02 00 11 	add  %o0, %l1, %g1
40009084:	c2 26 00 00 	st  %g1, [ %i0 ]
40009088:	e8 26 20 14 	st  %l4, [ %i0 + 0x14 ]
4000908c:	d0 26 20 10 	st  %o0, [ %i0 + 0x10 ]
40009090:	e0 26 20 08 	st  %l0, [ %i0 + 8 ]
40009094:	10 bf ff 8a 	b  40008ebc <__sfvwrite+0x240>
40009098:	a2 10 00 10 	mov  %l0, %l1
4000909c:	7f ff fe 57 	call  400089f8 <_free_r>
400090a0:	d2 06 20 10 	ld  [ %i0 + 0x10 ], %o1
400090a4:	10 bf ff b4 	b  40008f74 <__sfvwrite+0x2f8>
400090a8:	c2 16 20 0c 	lduh  [ %i0 + 0xc ], %g1
400090ac:	81 c7 e0 08 	ret 
400090b0:	91 e8 00 01 	restore  %g0, %g1, %o0

400090b4 <_fwalk>:
400090b4:	9d e3 bf 98 	save  %sp, -104, %sp
400090b8:	7f ff fd 9d 	call  4000872c <__sfp_lock_acquire>
400090bc:	a4 10 20 00 	clr  %l2
400090c0:	b0 86 22 e0 	addcc  %i0, 0x2e0, %i0
400090c4:	02 80 00 2e 	be  4000917c <_fwalk+0xc8>
400090c8:	01 00 00 00 	nop 
400090cc:	e2 06 20 04 	ld  [ %i0 + 4 ], %l1
400090d0:	a2 84 7f ff 	addcc  %l1, -1, %l1
400090d4:	0c 80 00 1d 	bneg  40009148 <_fwalk+0x94>
400090d8:	e0 06 20 08 	ld  [ %i0 + 8 ], %l0
400090dc:	da 14 20 0c 	lduh  [ %l0 + 0xc ], %o5
400090e0:	83 2b 60 10 	sll  %o5, 0x10, %g1
400090e4:	80 a0 60 00 	cmp  %g1, 0
400090e8:	02 80 00 14 	be  40009138 <_fwalk+0x84>
400090ec:	99 30 60 10 	srl  %g1, 0x10, %o4
400090f0:	80 8b 22 00 	btst  0x200, %o4
400090f4:	02 80 00 1e 	be  4000916c <_fwalk+0xb8>
400090f8:	90 04 20 58 	add  %l0, 0x58, %o0
400090fc:	83 2b 60 10 	sll  %o5, 0x10, %g1
40009100:	80 a0 60 00 	cmp  %g1, 0
40009104:	02 80 00 0b 	be  40009130 <_fwalk+0x7c>
40009108:	80 8b 62 00 	btst  0x200, %o5
4000910c:	c2 54 20 0e 	ldsh  [ %l0 + 0xe ], %g1
40009110:	80 a0 7f ff 	cmp  %g1, -1
40009114:	02 80 00 06 	be  4000912c <_fwalk+0x78>
40009118:	90 10 00 10 	mov  %l0, %o0
4000911c:	9f c6 40 00 	call  %i1
40009120:	01 00 00 00 	nop 
40009124:	a4 14 80 08 	or  %l2, %o0, %l2
40009128:	da 14 20 0c 	lduh  [ %l0 + 0xc ], %o5
4000912c:	80 8b 62 00 	btst  0x200, %o5
40009130:	02 80 00 0b 	be  4000915c <_fwalk+0xa8>
40009134:	90 04 20 58 	add  %l0, 0x58, %o0
40009138:	a0 04 20 cc 	add  %l0, 0xcc, %l0
4000913c:	a2 84 7f ff 	addcc  %l1, -1, %l1
40009140:	3c bf ff e8 	bpos,a   400090e0 <_fwalk+0x2c>
40009144:	da 14 20 0c 	lduh  [ %l0 + 0xc ], %o5
40009148:	f0 06 00 00 	ld  [ %i0 ], %i0
4000914c:	80 a6 20 00 	cmp  %i0, 0
40009150:	32 bf ff e0 	bne,a   400090d0 <_fwalk+0x1c>
40009154:	e2 06 20 04 	ld  [ %i0 + 4 ], %l1
40009158:	30 80 00 09 	b,a   4000917c <_fwalk+0xc8>
4000915c:	40 00 09 fe 	call  4000b954 <___st_pthread_mutex_unlock>
40009160:	a0 04 20 cc 	add  %l0, 0xcc, %l0
40009164:	10 bf ff f7 	b  40009140 <_fwalk+0x8c>
40009168:	a2 84 7f ff 	addcc  %l1, -1, %l1
4000916c:	40 00 09 e2 	call  4000b8f4 <___st_pthread_mutex_lock>
40009170:	01 00 00 00 	nop 
40009174:	10 bf ff e2 	b  400090fc <_fwalk+0x48>
40009178:	da 14 20 0c 	lduh  [ %l0 + 0xc ], %o5
4000917c:	7f ff fd 72 	call  40008744 <__sfp_lock_release>
40009180:	b0 10 00 12 	mov  %l2, %i0
40009184:	01 00 00 00 	nop 
40009188:	81 c7 e0 08 	ret 
4000918c:	81 e8 00 00 	restore 

40009190 <_fwalk_reent>:
40009190:	9d e3 bf 98 	save  %sp, -104, %sp
40009194:	7f ff fd 66 	call  4000872c <__sfp_lock_acquire>
40009198:	a6 10 20 00 	clr  %l3
4000919c:	a4 86 22 e0 	addcc  %i0, 0x2e0, %l2
400091a0:	02 80 00 2f 	be  4000925c <_fwalk_reent+0xcc>
400091a4:	01 00 00 00 	nop 
400091a8:	e2 04 a0 04 	ld  [ %l2 + 4 ], %l1
400091ac:	a2 84 7f ff 	addcc  %l1, -1, %l1
400091b0:	0c 80 00 1e 	bneg  40009228 <_fwalk_reent+0x98>
400091b4:	e0 04 a0 08 	ld  [ %l2 + 8 ], %l0
400091b8:	da 14 20 0c 	lduh  [ %l0 + 0xc ], %o5
400091bc:	83 2b 60 10 	sll  %o5, 0x10, %g1
400091c0:	80 a0 60 00 	cmp  %g1, 0
400091c4:	02 80 00 15 	be  40009218 <_fwalk_reent+0x88>
400091c8:	99 30 60 10 	srl  %g1, 0x10, %o4
400091cc:	80 8b 22 00 	btst  0x200, %o4
400091d0:	02 80 00 1f 	be  4000924c <_fwalk_reent+0xbc>
400091d4:	90 04 20 58 	add  %l0, 0x58, %o0
400091d8:	83 2b 60 10 	sll  %o5, 0x10, %g1
400091dc:	80 a0 60 00 	cmp  %g1, 0
400091e0:	02 80 00 0c 	be  40009210 <_fwalk_reent+0x80>
400091e4:	80 8b 62 00 	btst  0x200, %o5
400091e8:	c2 54 20 0e 	ldsh  [ %l0 + 0xe ], %g1
400091ec:	92 10 00 10 	mov  %l0, %o1
400091f0:	80 a0 7f ff 	cmp  %g1, -1
400091f4:	02 80 00 06 	be  4000920c <_fwalk_reent+0x7c>
400091f8:	90 10 00 18 	mov  %i0, %o0
400091fc:	9f c6 40 00 	call  %i1
40009200:	01 00 00 00 	nop 
40009204:	a6 14 c0 08 	or  %l3, %o0, %l3
40009208:	da 14 20 0c 	lduh  [ %l0 + 0xc ], %o5
4000920c:	80 8b 62 00 	btst  0x200, %o5
40009210:	02 80 00 0b 	be  4000923c <_fwalk_reent+0xac>
40009214:	90 04 20 58 	add  %l0, 0x58, %o0
40009218:	a0 04 20 cc 	add  %l0, 0xcc, %l0
4000921c:	a2 84 7f ff 	addcc  %l1, -1, %l1
40009220:	3c bf ff e7 	bpos,a   400091bc <_fwalk_reent+0x2c>
40009224:	da 14 20 0c 	lduh  [ %l0 + 0xc ], %o5
40009228:	e4 04 80 00 	ld  [ %l2 ], %l2
4000922c:	80 a4 a0 00 	cmp  %l2, 0
40009230:	32 bf ff df 	bne,a   400091ac <_fwalk_reent+0x1c>
40009234:	e2 04 a0 04 	ld  [ %l2 + 4 ], %l1
40009238:	30 80 00 09 	b,a   4000925c <_fwalk_reent+0xcc>
4000923c:	40 00 09 c6 	call  4000b954 <___st_pthread_mutex_unlock>
40009240:	a0 04 20 cc 	add  %l0, 0xcc, %l0
40009244:	10 bf ff f7 	b  40009220 <_fwalk_reent+0x90>
40009248:	a2 84 7f ff 	addcc  %l1, -1, %l1
4000924c:	40 00 09 aa 	call  4000b8f4 <___st_pthread_mutex_lock>
40009250:	01 00 00 00 	nop 
40009254:	10 bf ff e1 	b  400091d8 <_fwalk_reent+0x48>
40009258:	da 14 20 0c 	lduh  [ %l0 + 0xc ], %o5
4000925c:	7f ff fd 3a 	call  40008744 <__sfp_lock_release>
40009260:	b0 10 00 13 	mov  %l3, %i0
40009264:	01 00 00 00 	nop 
40009268:	81 c7 e0 08 	ret 
4000926c:	81 e8 00 00 	restore 

40009270 <_setlocale_r>:
40009270:	9d e3 bf 98 	save  %sp, -104, %sp
40009274:	21 10 00 33 	sethi  %hi(0x4000cc00), %l0
40009278:	92 14 20 60 	or  %l0, 0x60, %o1	! 4000cc60 <_global_impure_ptr+0x8>
4000927c:	90 10 00 1a 	mov  %i2, %o0
40009280:	80 a6 a0 00 	cmp  %i2, 0
40009284:	02 80 00 0b 	be  400092b0 <_setlocale_r+0x40>
40009288:	a2 10 00 18 	mov  %i0, %l1
4000928c:	40 00 06 cc 	call  4000adbc <strcmp>
40009290:	01 00 00 00 	nop 
40009294:	13 10 00 32 	sethi  %hi(0x4000c800), %o1
40009298:	80 a2 20 00 	cmp  %o0, 0
4000929c:	92 12 60 00 	mov  %o1, %o1
400092a0:	12 80 00 06 	bne  400092b8 <_setlocale_r+0x48>
400092a4:	90 10 00 1a 	mov  %i2, %o0
400092a8:	f4 24 60 34 	st  %i2, [ %l1 + 0x34 ]
400092ac:	f2 24 60 30 	st  %i1, [ %l1 + 0x30 ]
400092b0:	10 80 00 0a 	b  400092d8 <_setlocale_r+0x68>
400092b4:	b0 14 20 60 	or  %l0, 0x60, %i0
400092b8:	40 00 06 c1 	call  4000adbc <strcmp>
400092bc:	b0 10 20 00 	clr  %i0
400092c0:	80 a2 20 00 	cmp  %o0, 0
400092c4:	12 80 00 05 	bne  400092d8 <_setlocale_r+0x68>
400092c8:	01 00 00 00 	nop 
400092cc:	f4 24 60 34 	st  %i2, [ %l1 + 0x34 ]
400092d0:	10 bf ff f8 	b  400092b0 <_setlocale_r+0x40>
400092d4:	f2 24 60 30 	st  %i1, [ %l1 + 0x30 ]
400092d8:	81 c7 e0 08 	ret 
400092dc:	81 e8 00 00 	restore 

400092e0 <__locale_charset>:
400092e0:	03 10 00 36 	sethi  %hi(0x4000d800), %g1
400092e4:	81 c3 e0 08 	retl 
400092e8:	d0 00 61 c0 	ld  [ %g1 + 0x1c0 ], %o0	! 4000d9c0 <charset>

400092ec <_localeconv_r>:
400092ec:	11 10 00 33 	sethi  %hi(0x4000cc00), %o0
400092f0:	81 c3 e0 08 	retl 
400092f4:	90 12 20 74 	or  %o0, 0x74, %o0	! 4000cc74 <lconv>

400092f8 <setlocale>:
400092f8:	82 10 00 08 	mov  %o0, %g1
400092fc:	94 10 00 09 	mov  %o1, %o2
40009300:	1b 10 00 36 	sethi  %hi(0x4000d800), %o5
40009304:	92 10 00 01 	mov  %g1, %o1
40009308:	d0 03 61 a8 	ld  [ %o5 + 0x1a8 ], %o0
4000930c:	82 13 c0 00 	mov  %o7, %g1
40009310:	7f ff ff d8 	call  40009270 <_setlocale_r>
40009314:	9e 10 40 00 	mov  %g1, %o7
40009318:	01 00 00 00 	nop 

4000931c <localeconv>:
4000931c:	03 10 00 36 	sethi  %hi(0x4000d800), %g1
40009320:	d0 00 61 a8 	ld  [ %g1 + 0x1a8 ], %o0	! 4000d9a8 <_impure_ptr>
40009324:	82 13 c0 00 	mov  %o7, %g1
40009328:	7f ff ff f1 	call  400092ec <_localeconv_r>
4000932c:	9e 10 40 00 	mov  %g1, %o7
40009330:	01 00 00 00 	nop 

40009334 <__smakebuf>:
40009334:	9d e3 bf 58 	save  %sp, -168, %sp
40009338:	c2 16 20 0c 	lduh  [ %i0 + 0xc ], %g1
4000933c:	80 88 60 02 	btst  2, %g1
40009340:	22 80 00 08 	be,a   40009360 <__smakebuf+0x2c>
40009344:	d2 56 20 0e 	ldsh  [ %i0 + 0xe ], %o1
40009348:	9a 06 20 43 	add  %i0, 0x43, %o5
4000934c:	82 10 20 01 	mov  1, %g1
40009350:	c2 26 20 14 	st  %g1, [ %i0 + 0x14 ]
40009354:	da 26 20 10 	st  %o5, [ %i0 + 0x10 ]
40009358:	10 80 00 4d 	b  4000948c <__smakebuf+0x158>
4000935c:	da 26 00 00 	st  %o5, [ %i0 ]
40009360:	80 a2 60 00 	cmp  %o1, 0
40009364:	06 80 00 16 	bl  400093bc <__smakebuf+0x88>
40009368:	21 10 00 36 	sethi  %hi(0x4000d800), %l0
4000936c:	d0 04 21 a8 	ld  [ %l0 + 0x1a8 ], %o0	! 4000d9a8 <_impure_ptr>
40009370:	40 00 07 74 	call  4000b140 <_fstat_r>
40009374:	94 07 bf b8 	add  %fp, -72, %o2
40009378:	80 a2 20 00 	cmp  %o0, 0
4000937c:	06 80 00 42 	bl  40009484 <__smakebuf+0x150>
40009380:	d8 17 bf c0 	lduh  [ %fp + -64 ], %o4
40009384:	1b 00 00 3c 	sethi  %hi(0xf000), %o5
40009388:	98 0b 00 0d 	and  %o4, %o5, %o4
4000938c:	03 00 00 08 	sethi  %hi(0x2000), %g1
40009390:	82 1b 00 01 	xor  %o4, %g1, %g1
40009394:	80 a0 00 01 	cmp  %g0, %g1
40009398:	a4 60 3f ff 	subx  %g0, -1, %l2
4000939c:	03 00 00 20 	sethi  %hi(0x8000), %g1
400093a0:	80 a3 00 01 	cmp  %o4, %g1
400093a4:	02 80 00 25 	be  40009438 <__smakebuf+0x104>
400093a8:	a2 10 24 00 	mov  0x400, %l1
400093ac:	c2 16 20 0c 	lduh  [ %i0 + 0xc ], %g1
400093b0:	82 10 68 00 	or  %g1, 0x800, %g1
400093b4:	10 80 00 06 	b  400093cc <__smakebuf+0x98>
400093b8:	c2 36 20 0c 	sth  %g1, [ %i0 + 0xc ]
400093bc:	82 10 68 00 	or  %g1, 0x800, %g1
400093c0:	c2 36 20 0c 	sth  %g1, [ %i0 + 0xc ]
400093c4:	a4 10 20 00 	clr  %l2
400093c8:	a2 10 24 00 	mov  0x400, %l1
400093cc:	d0 04 21 a8 	ld  [ %l0 + 0x1a8 ], %o0
400093d0:	7f ff ea db 	call  40003f3c <_malloc_r>
400093d4:	92 10 24 00 	mov  0x400, %o1
400093d8:	80 a2 20 00 	cmp  %o0, 0
400093dc:	02 80 00 21 	be  40009460 <__smakebuf+0x12c>
400093e0:	03 10 00 36 	sethi  %hi(0x4000d800), %g1
400093e4:	d8 00 61 a8 	ld  [ %g1 + 0x1a8 ], %o4	! 4000d9a8 <_impure_ptr>
400093e8:	da 16 20 0c 	lduh  [ %i0 + 0xc ], %o5
400093ec:	03 10 00 21 	sethi  %hi(0x40008400), %g1
400093f0:	9a 13 60 80 	or  %o5, 0x80, %o5
400093f4:	82 10 62 fc 	or  %g1, 0x2fc, %g1
400093f8:	c2 23 20 3c 	st  %g1, [ %o4 + 0x3c ]
400093fc:	da 36 20 0c 	sth  %o5, [ %i0 + 0xc ]
40009400:	d0 26 20 10 	st  %o0, [ %i0 + 0x10 ]
40009404:	e2 26 20 14 	st  %l1, [ %i0 + 0x14 ]
40009408:	80 a4 a0 00 	cmp  %l2, 0
4000940c:	02 80 00 20 	be  4000948c <__smakebuf+0x158>
40009410:	d0 26 00 00 	st  %o0, [ %i0 ]
40009414:	40 00 08 82 	call  4000b61c <isatty>
40009418:	d0 56 20 0e 	ldsh  [ %i0 + 0xe ], %o0
4000941c:	80 a2 20 00 	cmp  %o0, 0
40009420:	02 80 00 1b 	be  4000948c <__smakebuf+0x158>
40009424:	01 00 00 00 	nop 
40009428:	c2 16 20 0c 	lduh  [ %i0 + 0xc ], %g1
4000942c:	82 10 60 01 	or  %g1, 1, %g1
40009430:	10 80 00 17 	b  4000948c <__smakebuf+0x158>
40009434:	c2 36 20 0c 	sth  %g1, [ %i0 + 0xc ]
40009438:	03 10 00 2b 	sethi  %hi(0x4000ac00), %g1
4000943c:	da 06 20 28 	ld  [ %i0 + 0x28 ], %o5
40009440:	82 10 61 4c 	or  %g1, 0x14c, %g1
40009444:	80 a3 40 01 	cmp  %o5, %g1
40009448:	12 bf ff da 	bne  400093b0 <__smakebuf+0x7c>
4000944c:	c2 16 20 0c 	lduh  [ %i0 + 0xc ], %g1
40009450:	82 10 64 00 	or  %g1, 0x400, %g1
40009454:	c2 36 20 0c 	sth  %g1, [ %i0 + 0xc ]
40009458:	10 bf ff dd 	b  400093cc <__smakebuf+0x98>
4000945c:	e2 26 20 4c 	st  %l1, [ %i0 + 0x4c ]
40009460:	c2 16 20 0c 	lduh  [ %i0 + 0xc ], %g1
40009464:	98 06 20 43 	add  %i0, 0x43, %o4
40009468:	82 10 60 02 	or  %g1, 2, %g1
4000946c:	9a 10 20 01 	mov  1, %o5
40009470:	da 26 20 14 	st  %o5, [ %i0 + 0x14 ]
40009474:	c2 36 20 0c 	sth  %g1, [ %i0 + 0xc ]
40009478:	d8 26 20 10 	st  %o4, [ %i0 + 0x10 ]
4000947c:	10 80 00 04 	b  4000948c <__smakebuf+0x158>
40009480:	d8 26 00 00 	st  %o4, [ %i0 ]
40009484:	10 bf ff ce 	b  400093bc <__smakebuf+0x88>
40009488:	c2 16 20 0c 	lduh  [ %i0 + 0xc ], %g1
4000948c:	81 c7 e0 08 	ret 
40009490:	81 e8 00 00 	restore 

40009494 <memchr>:
40009494:	9d e3 bf 98 	save  %sp, -104, %sp
40009498:	80 a6 a0 03 	cmp  %i2, 3
4000949c:	08 80 00 05 	bleu  400094b0 <memchr+0x1c>
400094a0:	b2 0e 60 ff 	and  %i1, 0xff, %i1
400094a4:	80 8e 20 03 	btst  3, %i0
400094a8:	02 80 00 0d 	be  400094dc <memchr+0x48>
400094ac:	b8 10 00 18 	mov  %i0, %i4
400094b0:	10 80 00 06 	b  400094c8 <memchr+0x34>
400094b4:	b4 06 bf ff 	add  %i2, -1, %i2
400094b8:	80 a0 40 19 	cmp  %g1, %i1
400094bc:	02 80 00 2a 	be  40009564 <memchr+0xd0>
400094c0:	b4 06 bf ff 	add  %i2, -1, %i2
400094c4:	b0 06 20 01 	inc  %i0
400094c8:	80 a6 bf ff 	cmp  %i2, -1
400094cc:	32 bf ff fb 	bne,a   400094b8 <memchr+0x24>
400094d0:	c2 0e 00 00 	ldub  [ %i0 ], %g1
400094d4:	10 80 00 24 	b  40009564 <memchr+0xd0>
400094d8:	b0 10 20 00 	clr  %i0
400094dc:	b6 10 20 00 	clr  %i3
400094e0:	ba 10 20 03 	mov  3, %i5
400094e4:	83 2e e0 08 	sll  %i3, 8, %g1
400094e8:	ba 87 7f ff 	addcc  %i5, -1, %i5
400094ec:	1c bf ff fe 	bpos  400094e4 <memchr+0x50>
400094f0:	b6 00 40 19 	add  %g1, %i1, %i3
400094f4:	80 a6 a0 03 	cmp  %i2, 3
400094f8:	08 80 00 19 	bleu  4000955c <memchr+0xc8>
400094fc:	03 3f bf bf 	sethi  %hi(0xfefefc00), %g1
40009500:	3b 20 20 20 	sethi  %hi(0x80808000), %i5
40009504:	9a 10 62 ff 	or  %g1, 0x2ff, %o5
40009508:	9e 17 60 80 	or  %i5, 0x80, %o7
4000950c:	c2 07 00 00 	ld  [ %i4 ], %g1
40009510:	82 18 40 1b 	xor  %g1, %i3, %g1
40009514:	ba 00 40 0d 	add  %g1, %o5, %i5
40009518:	82 2f 40 01 	andn  %i5, %g1, %g1
4000951c:	80 88 40 0f 	btst  %g1, %o7
40009520:	22 80 00 0c 	be,a   40009550 <memchr+0xbc>
40009524:	b4 06 bf fc 	add  %i2, -4, %i2
40009528:	b0 10 00 1c 	mov  %i4, %i0
4000952c:	ba 10 20 00 	clr  %i5
40009530:	c2 0e 00 00 	ldub  [ %i0 ], %g1
40009534:	80 a0 40 19 	cmp  %g1, %i1
40009538:	02 80 00 0b 	be  40009564 <memchr+0xd0>
4000953c:	ba 07 60 01 	inc  %i5
40009540:	80 a7 60 03 	cmp  %i5, 3
40009544:	08 bf ff fb 	bleu  40009530 <memchr+0x9c>
40009548:	b0 06 20 01 	inc  %i0
4000954c:	b4 06 bf fc 	add  %i2, -4, %i2
40009550:	80 a6 a0 03 	cmp  %i2, 3
40009554:	18 bf ff ee 	bgu  4000950c <memchr+0x78>
40009558:	b8 07 20 04 	add  %i4, 4, %i4
4000955c:	10 bf ff d5 	b  400094b0 <memchr+0x1c>
40009560:	b0 10 00 1c 	mov  %i4, %i0
40009564:	81 c7 e0 08 	ret 
40009568:	81 e8 00 00 	restore 

4000956c <memcpy>:
4000956c:	80 a2 a0 0f 	cmp  %o2, 0xf
40009570:	08 80 00 06 	bleu  40009588 <memcpy+0x1c>
40009574:	9a 10 00 08 	mov  %o0, %o5
40009578:	82 12 40 08 	or  %o1, %o0, %g1
4000957c:	80 88 60 03 	btst  3, %g1
40009580:	22 80 00 0f 	be,a   400095bc <memcpy+0x50>
40009584:	c2 02 40 00 	ld  [ %o1 ], %g1
40009588:	94 02 bf ff 	add  %o2, -1, %o2
4000958c:	80 a2 bf ff 	cmp  %o2, -1
40009590:	02 80 00 28 	be  40009630 <memcpy+0xc4>
40009594:	01 00 00 00 	nop 
40009598:	c2 0a 40 00 	ldub  [ %o1 ], %g1
4000959c:	c2 2b 40 00 	stb  %g1, [ %o5 ]
400095a0:	94 02 bf ff 	add  %o2, -1, %o2
400095a4:	92 02 60 01 	inc  %o1
400095a8:	80 a2 bf ff 	cmp  %o2, -1
400095ac:	12 bf ff fb 	bne  40009598 <memcpy+0x2c>
400095b0:	9a 03 60 01 	inc  %o5
400095b4:	30 80 00 1f 	b,a   40009630 <memcpy+0xc4>
400095b8:	c2 02 40 00 	ld  [ %o1 ], %g1
400095bc:	c2 23 40 00 	st  %g1, [ %o5 ]
400095c0:	92 02 60 04 	add  %o1, 4, %o1
400095c4:	c2 02 40 00 	ld  [ %o1 ], %g1
400095c8:	9a 03 60 04 	add  %o5, 4, %o5
400095cc:	c2 23 40 00 	st  %g1, [ %o5 ]
400095d0:	92 02 60 04 	add  %o1, 4, %o1
400095d4:	c2 02 40 00 	ld  [ %o1 ], %g1
400095d8:	9a 03 60 04 	add  %o5, 4, %o5
400095dc:	c2 23 40 00 	st  %g1, [ %o5 ]
400095e0:	92 02 60 04 	add  %o1, 4, %o1
400095e4:	9a 03 60 04 	add  %o5, 4, %o5
400095e8:	c2 02 40 00 	ld  [ %o1 ], %g1
400095ec:	c2 23 40 00 	st  %g1, [ %o5 ]
400095f0:	94 02 bf f0 	add  %o2, -16, %o2
400095f4:	92 02 60 04 	add  %o1, 4, %o1
400095f8:	80 a2 a0 0f 	cmp  %o2, 0xf
400095fc:	18 bf ff ef 	bgu  400095b8 <memcpy+0x4c>
40009600:	9a 03 60 04 	add  %o5, 4, %o5
40009604:	10 80 00 07 	b  40009620 <memcpy+0xb4>
40009608:	80 a2 a0 03 	cmp  %o2, 3
4000960c:	c2 23 40 00 	st  %g1, [ %o5 ]
40009610:	94 02 bf fc 	add  %o2, -4, %o2
40009614:	92 02 60 04 	add  %o1, 4, %o1
40009618:	9a 03 60 04 	add  %o5, 4, %o5
4000961c:	80 a2 a0 03 	cmp  %o2, 3
40009620:	38 bf ff fb 	bgu,a   4000960c <memcpy+0xa0>
40009624:	c2 02 40 00 	ld  [ %o1 ], %g1
40009628:	10 bf ff d9 	b  4000958c <memcpy+0x20>
4000962c:	94 02 bf ff 	add  %o2, -1, %o2
40009630:	81 c3 e0 08 	retl 
40009634:	01 00 00 00 	nop 

40009638 <memmove>:
40009638:	96 10 00 09 	mov  %o1, %o3
4000963c:	80 a2 40 08 	cmp  %o1, %o0
40009640:	9a 10 00 08 	mov  %o0, %o5
40009644:	1a 80 00 13 	bcc  40009690 <memmove+0x58>
40009648:	98 10 00 0a 	mov  %o2, %o4
4000964c:	82 02 40 0a 	add  %o1, %o2, %g1
40009650:	80 a0 40 08 	cmp  %g1, %o0
40009654:	08 80 00 10 	bleu  40009694 <memmove+0x5c>
40009658:	80 a2 a0 0f 	cmp  %o2, 0xf
4000965c:	98 02 bf ff 	add  %o2, -1, %o4
40009660:	9a 02 00 0a 	add  %o0, %o2, %o5
40009664:	80 a3 3f ff 	cmp  %o4, -1
40009668:	02 80 00 3d 	be  4000975c <memmove+0x124>
4000966c:	92 10 00 01 	mov  %g1, %o1
40009670:	92 02 7f ff 	add  %o1, -1, %o1
40009674:	9a 03 7f ff 	add  %o5, -1, %o5
40009678:	98 03 3f ff 	add  %o4, -1, %o4
4000967c:	c2 0a 40 00 	ldub  [ %o1 ], %g1
40009680:	80 a3 3f ff 	cmp  %o4, -1
40009684:	12 bf ff fb 	bne  40009670 <memmove+0x38>
40009688:	c2 2b 40 00 	stb  %g1, [ %o5 ]
4000968c:	30 80 00 34 	b,a   4000975c <memmove+0x124>
40009690:	80 a2 a0 0f 	cmp  %o2, 0xf
40009694:	18 80 00 0e 	bgu  400096cc <memmove+0x94>
40009698:	82 12 c0 08 	or  %o3, %o0, %g1
4000969c:	98 03 3f ff 	add  %o4, -1, %o4
400096a0:	80 a3 3f ff 	cmp  %o4, -1
400096a4:	02 80 00 2e 	be  4000975c <memmove+0x124>
400096a8:	01 00 00 00 	nop 
400096ac:	c2 0a 40 00 	ldub  [ %o1 ], %g1
400096b0:	c2 2b 40 00 	stb  %g1, [ %o5 ]
400096b4:	98 03 3f ff 	add  %o4, -1, %o4
400096b8:	92 02 60 01 	inc  %o1
400096bc:	80 a3 3f ff 	cmp  %o4, -1
400096c0:	12 bf ff fb 	bne  400096ac <memmove+0x74>
400096c4:	9a 03 60 01 	inc  %o5
400096c8:	30 80 00 25 	b,a   4000975c <memmove+0x124>
400096cc:	80 88 60 03 	btst  3, %g1
400096d0:	32 bf ff f4 	bne,a   400096a0 <memmove+0x68>
400096d4:	98 03 3f ff 	add  %o4, -1, %o4
400096d8:	92 10 00 0b 	mov  %o3, %o1
400096dc:	9a 10 00 08 	mov  %o0, %o5
400096e0:	c2 02 40 00 	ld  [ %o1 ], %g1
400096e4:	c2 23 40 00 	st  %g1, [ %o5 ]
400096e8:	92 02 60 04 	add  %o1, 4, %o1
400096ec:	c2 02 40 00 	ld  [ %o1 ], %g1
400096f0:	9a 03 60 04 	add  %o5, 4, %o5
400096f4:	c2 23 40 00 	st  %g1, [ %o5 ]
400096f8:	92 02 60 04 	add  %o1, 4, %o1
400096fc:	c2 02 40 00 	ld  [ %o1 ], %g1
40009700:	9a 03 60 04 	add  %o5, 4, %o5
40009704:	c2 23 40 00 	st  %g1, [ %o5 ]
40009708:	92 02 60 04 	add  %o1, 4, %o1
4000970c:	9a 03 60 04 	add  %o5, 4, %o5
40009710:	c2 02 40 00 	ld  [ %o1 ], %g1
40009714:	c2 23 40 00 	st  %g1, [ %o5 ]
40009718:	98 03 3f f0 	add  %o4, -16, %o4
4000971c:	92 02 60 04 	add  %o1, 4, %o1
40009720:	80 a3 20 0f 	cmp  %o4, 0xf
40009724:	18 bf ff ef 	bgu  400096e0 <memmove+0xa8>
40009728:	9a 03 60 04 	add  %o5, 4, %o5
4000972c:	80 a3 20 03 	cmp  %o4, 3
40009730:	28 bf ff dc 	bleu,a   400096a0 <memmove+0x68>
40009734:	98 03 3f ff 	add  %o4, -1, %o4
40009738:	c2 02 40 00 	ld  [ %o1 ], %g1
4000973c:	c2 23 40 00 	st  %g1, [ %o5 ]
40009740:	98 03 3f fc 	add  %o4, -4, %o4
40009744:	92 02 60 04 	add  %o1, 4, %o1
40009748:	80 a3 20 03 	cmp  %o4, 3
4000974c:	18 bf ff fb 	bgu  40009738 <memmove+0x100>
40009750:	9a 03 60 04 	add  %o5, 4, %o5
40009754:	10 bf ff d3 	b  400096a0 <memmove+0x68>
40009758:	98 03 3f ff 	add  %o4, -1, %o4
4000975c:	81 c3 e0 08 	retl 
40009760:	01 00 00 00 	nop 

40009764 <memset>:
40009764:	92 0a 60 ff 	and  %o1, 0xff, %o1
40009768:	80 a2 a0 03 	cmp  %o2, 3
4000976c:	08 80 00 1f 	bleu  400097e8 <memset+0x84>
40009770:	82 10 00 08 	mov  %o0, %g1
40009774:	80 8a 20 03 	btst  3, %o0
40009778:	32 80 00 1d 	bne,a   400097ec <memset+0x88>
4000977c:	94 02 bf ff 	add  %o2, -1, %o2
40009780:	83 2a 60 08 	sll  %o1, 8, %g1
40009784:	82 10 40 09 	or  %g1, %o1, %g1
40009788:	9b 28 60 10 	sll  %g1, 0x10, %o5
4000978c:	82 10 40 0d 	or  %g1, %o5, %g1
40009790:	10 80 00 0a 	b  400097b8 <memset+0x54>
40009794:	9a 10 00 08 	mov  %o0, %o5
40009798:	9a 03 60 04 	add  %o5, 4, %o5
4000979c:	c2 23 40 00 	st  %g1, [ %o5 ]
400097a0:	9a 03 60 04 	add  %o5, 4, %o5
400097a4:	c2 23 40 00 	st  %g1, [ %o5 ]
400097a8:	9a 03 60 04 	add  %o5, 4, %o5
400097ac:	c2 23 40 00 	st  %g1, [ %o5 ]
400097b0:	94 02 bf f0 	add  %o2, -16, %o2
400097b4:	9a 03 60 04 	add  %o5, 4, %o5
400097b8:	80 a2 a0 0f 	cmp  %o2, 0xf
400097bc:	38 bf ff f7 	bgu,a   40009798 <memset+0x34>
400097c0:	c2 23 40 00 	st  %g1, [ %o5 ]
400097c4:	80 a2 a0 03 	cmp  %o2, 3
400097c8:	28 80 00 08 	bleu,a   400097e8 <memset+0x84>
400097cc:	82 10 00 0d 	mov  %o5, %g1
400097d0:	c2 23 40 00 	st  %g1, [ %o5 ]
400097d4:	94 02 bf fc 	add  %o2, -4, %o2
400097d8:	80 a2 a0 03 	cmp  %o2, 3
400097dc:	18 bf ff fd 	bgu  400097d0 <memset+0x6c>
400097e0:	9a 03 60 04 	add  %o5, 4, %o5
400097e4:	82 10 00 0d 	mov  %o5, %g1
400097e8:	94 02 bf ff 	add  %o2, -1, %o2
400097ec:	80 a2 bf ff 	cmp  %o2, -1
400097f0:	02 80 00 07 	be  4000980c <memset+0xa8>
400097f4:	01 00 00 00 	nop 
400097f8:	d2 28 40 00 	stb  %o1, [ %g1 ]
400097fc:	94 02 bf ff 	add  %o2, -1, %o2
40009800:	80 a2 bf ff 	cmp  %o2, -1
40009804:	12 bf ff fd 	bne  400097f8 <memset+0x94>
40009808:	82 00 60 01 	inc  %g1
4000980c:	81 c3 e0 08 	retl 
40009810:	01 00 00 00 	nop 

40009814 <_Balloc>:
40009814:	9d e3 bf 98 	save  %sp, -104, %sp
40009818:	d6 06 20 4c 	ld  [ %i0 + 0x4c ], %o3
4000981c:	92 10 20 04 	mov  4, %o1
40009820:	94 10 20 10 	mov  0x10, %o2
40009824:	80 a2 e0 00 	cmp  %o3, 0
40009828:	02 80 00 12 	be  40009870 <_Balloc+0x5c>
4000982c:	90 10 00 18 	mov  %i0, %o0
40009830:	82 10 20 01 	mov  1, %g1
40009834:	a1 28 40 19 	sll  %g1, %i1, %l0
40009838:	99 2e 60 02 	sll  %i1, 2, %o4
4000983c:	95 2c 20 02 	sll  %l0, 2, %o2
40009840:	da 02 c0 0c 	ld  [ %o3 + %o4 ], %o5
40009844:	90 10 00 18 	mov  %i0, %o0
40009848:	94 02 a0 14 	add  %o2, 0x14, %o2
4000984c:	80 a3 60 00 	cmp  %o5, 0
40009850:	02 80 00 10 	be  40009890 <_Balloc+0x7c>
40009854:	92 10 20 01 	mov  1, %o1
40009858:	c2 03 40 00 	ld  [ %o5 ], %g1
4000985c:	c2 22 c0 0c 	st  %g1, [ %o3 + %o4 ]
40009860:	c0 23 60 10 	clr  [ %o5 + 0x10 ]
40009864:	c0 23 60 0c 	clr  [ %o5 + 0xc ]
40009868:	10 80 00 12 	b  400098b0 <_Balloc+0x9c>
4000986c:	82 10 00 0d 	mov  %o5, %g1
40009870:	40 00 05 92 	call  4000aeb8 <_calloc_r>
40009874:	01 00 00 00 	nop 
40009878:	96 10 00 08 	mov  %o0, %o3
4000987c:	d0 26 20 4c 	st  %o0, [ %i0 + 0x4c ]
40009880:	80 a2 20 00 	cmp  %o0, 0
40009884:	12 bf ff eb 	bne  40009830 <_Balloc+0x1c>
40009888:	82 10 20 00 	clr  %g1
4000988c:	30 80 00 09 	b,a   400098b0 <_Balloc+0x9c>
40009890:	40 00 05 8a 	call  4000aeb8 <_calloc_r>
40009894:	01 00 00 00 	nop 
40009898:	9a 92 20 00 	orcc  %o0, 0, %o5
4000989c:	02 80 00 05 	be  400098b0 <_Balloc+0x9c>
400098a0:	82 10 20 00 	clr  %g1
400098a4:	f2 23 60 04 	st  %i1, [ %o5 + 4 ]
400098a8:	10 bf ff ee 	b  40009860 <_Balloc+0x4c>
400098ac:	e0 23 60 08 	st  %l0, [ %o5 + 8 ]
400098b0:	81 c7 e0 08 	ret 
400098b4:	91 e8 00 01 	restore  %g0, %g1, %o0

400098b8 <_Bfree>:
400098b8:	80 a2 60 00 	cmp  %o1, 0
400098bc:	02 80 00 08 	be  400098dc <_Bfree+0x24>
400098c0:	01 00 00 00 	nop 
400098c4:	c2 02 60 04 	ld  [ %o1 + 4 ], %g1
400098c8:	d8 02 20 4c 	ld  [ %o0 + 0x4c ], %o4
400098cc:	83 28 60 02 	sll  %g1, 2, %g1
400098d0:	da 03 00 01 	ld  [ %o4 + %g1 ], %o5
400098d4:	da 22 40 00 	st  %o5, [ %o1 ]
400098d8:	d2 23 00 01 	st  %o1, [ %o4 + %g1 ]
400098dc:	81 c3 e0 08 	retl 
400098e0:	01 00 00 00 	nop 

400098e4 <_multadd>:
400098e4:	9d e3 bf 98 	save  %sp, -104, %sp
400098e8:	03 00 00 3f 	sethi  %hi(0xfc00), %g1
400098ec:	90 10 63 ff 	or  %g1, 0x3ff, %o0	! ffff <_trap_table-0x3fff0001>
400098f0:	e2 06 60 10 	ld  [ %i1 + 0x10 ], %l1
400098f4:	94 06 60 14 	add  %i1, 0x14, %o2
400098f8:	92 10 20 00 	clr  %o1
400098fc:	d8 02 80 00 	ld  [ %o2 ], %o4
40009900:	82 0b 00 08 	and  %o4, %o0, %g1
40009904:	82 58 40 1a 	smul  %g1, %i2, %g1
40009908:	82 00 40 1b 	add  %g1, %i3, %g1
4000990c:	99 33 20 10 	srl  %o4, 0x10, %o4
40009910:	97 30 60 10 	srl  %g1, 0x10, %o3
40009914:	98 5b 00 1a 	smul  %o4, %i2, %o4
40009918:	98 03 00 0b 	add  %o4, %o3, %o4
4000991c:	9b 2b 20 10 	sll  %o4, 0x10, %o5
40009920:	82 08 40 08 	and  %g1, %o0, %g1
40009924:	9a 03 40 01 	add  %o5, %g1, %o5
40009928:	da 22 80 00 	st  %o5, [ %o2 ]
4000992c:	92 02 60 01 	inc  %o1
40009930:	94 02 a0 04 	add  %o2, 4, %o2
40009934:	80 a2 40 11 	cmp  %o1, %l1
40009938:	06 bf ff f1 	bl  400098fc <_multadd+0x18>
4000993c:	b7 33 20 10 	srl  %o4, 0x10, %i3
40009940:	80 a6 e0 00 	cmp  %i3, 0
40009944:	02 80 00 1b 	be  400099b0 <_multadd+0xcc>
40009948:	01 00 00 00 	nop 
4000994c:	c2 06 60 08 	ld  [ %i1 + 8 ], %g1
40009950:	80 a0 40 11 	cmp  %g1, %l1
40009954:	24 80 00 08 	ble,a   40009974 <_multadd+0x90>
40009958:	d2 06 60 04 	ld  [ %i1 + 4 ], %o1
4000995c:	83 2c 60 02 	sll  %l1, 2, %g1
40009960:	82 00 40 19 	add  %g1, %i1, %g1
40009964:	a2 04 60 01 	inc  %l1
40009968:	f6 20 60 14 	st  %i3, [ %g1 + 0x14 ]
4000996c:	10 80 00 11 	b  400099b0 <_multadd+0xcc>
40009970:	e2 26 60 10 	st  %l1, [ %i1 + 0x10 ]
40009974:	92 02 60 01 	inc  %o1
40009978:	7f ff ff a7 	call  40009814 <_Balloc>
4000997c:	90 10 00 18 	mov  %i0, %o0
40009980:	d4 06 60 10 	ld  [ %i1 + 0x10 ], %o2
40009984:	a0 10 00 08 	mov  %o0, %l0
40009988:	95 2a a0 02 	sll  %o2, 2, %o2
4000998c:	92 06 60 0c 	add  %i1, 0xc, %o1
40009990:	94 02 a0 08 	add  %o2, 8, %o2
40009994:	7f ff fe f6 	call  4000956c <memcpy>
40009998:	90 02 20 0c 	add  %o0, 0xc, %o0
4000999c:	92 10 00 19 	mov  %i1, %o1
400099a0:	7f ff ff c6 	call  400098b8 <_Bfree>
400099a4:	90 10 00 18 	mov  %i0, %o0
400099a8:	10 bf ff ed 	b  4000995c <_multadd+0x78>
400099ac:	b2 10 00 10 	mov  %l0, %i1
400099b0:	81 c7 e0 08 	ret 
400099b4:	91 e8 00 19 	restore  %g0, %i1, %o0

400099b8 <_s2b>:
400099b8:	9d e3 bf 98 	save  %sp, -104, %sp
400099bc:	03 0e 38 e3 	sethi  %hi(0x38e38c00), %g1
400099c0:	9a 06 e0 08 	add  %i3, 8, %o5
400099c4:	82 10 62 39 	or  %g1, 0x239, %g1
400099c8:	80 5b 40 01 	smul  %o5, %g1, %g0
400099cc:	83 40 00 00 	rd  %y, %g1
400099d0:	9b 3b 60 1f 	sra  %o5, 0x1f, %o5
400099d4:	83 38 60 01 	sra  %g1, 1, %g1
400099d8:	82 20 40 0d 	sub  %g1, %o5, %g1
400099dc:	80 a0 60 01 	cmp  %g1, 1
400099e0:	92 10 20 00 	clr  %o1
400099e4:	04 80 00 06 	ble  400099fc <_s2b+0x44>
400099e8:	9a 10 20 01 	mov  1, %o5
400099ec:	9a 03 40 0d 	add  %o5, %o5, %o5
400099f0:	80 a0 40 0d 	cmp  %g1, %o5
400099f4:	14 bf ff fe 	bg  400099ec <_s2b+0x34>
400099f8:	92 02 60 01 	inc  %o1
400099fc:	7f ff ff 86 	call  40009814 <_Balloc>
40009a00:	90 10 00 18 	mov  %i0, %o0
40009a04:	f8 22 20 14 	st  %i4, [ %o0 + 0x14 ]
40009a08:	82 10 20 01 	mov  1, %g1
40009a0c:	c2 22 20 10 	st  %g1, [ %o0 + 0x10 ]
40009a10:	80 a6 a0 09 	cmp  %i2, 9
40009a14:	04 80 00 11 	ble  40009a58 <_s2b+0xa0>
40009a18:	b8 10 20 09 	mov  9, %i4
40009a1c:	b2 06 60 09 	add  %i1, 9, %i1
40009a20:	d6 4e 40 00 	ldsb  [ %i1 ], %o3
40009a24:	92 10 00 08 	mov  %o0, %o1
40009a28:	96 02 ff d0 	add  %o3, -48, %o3
40009a2c:	90 10 00 18 	mov  %i0, %o0
40009a30:	7f ff ff ad 	call  400098e4 <_multadd>
40009a34:	94 10 20 0a 	mov  0xa, %o2
40009a38:	b8 07 20 01 	inc  %i4
40009a3c:	80 a7 00 1a 	cmp  %i4, %i2
40009a40:	06 bf ff f8 	bl  40009a20 <_s2b+0x68>
40009a44:	b2 06 60 01 	inc  %i1
40009a48:	80 a7 00 1b 	cmp  %i4, %i3
40009a4c:	06 80 00 06 	bl  40009a64 <_s2b+0xac>
40009a50:	b2 06 60 01 	inc  %i1
40009a54:	30 80 00 0e 	b,a   40009a8c <_s2b+0xd4>
40009a58:	80 a7 00 1b 	cmp  %i4, %i3
40009a5c:	16 80 00 0c 	bge  40009a8c <_s2b+0xd4>
40009a60:	b2 06 60 0a 	add  %i1, 0xa, %i1
40009a64:	b8 26 c0 1c 	sub  %i3, %i4, %i4
40009a68:	d6 4e 40 00 	ldsb  [ %i1 ], %o3
40009a6c:	92 10 00 08 	mov  %o0, %o1
40009a70:	96 02 ff d0 	add  %o3, -48, %o3
40009a74:	90 10 00 18 	mov  %i0, %o0
40009a78:	7f ff ff 9b 	call  400098e4 <_multadd>
40009a7c:	94 10 20 0a 	mov  0xa, %o2
40009a80:	b8 87 3f ff 	addcc  %i4, -1, %i4
40009a84:	12 bf ff f9 	bne  40009a68 <_s2b+0xb0>
40009a88:	b2 06 60 01 	inc  %i1
40009a8c:	81 c7 e0 08 	ret 
40009a90:	91 e8 00 08 	restore  %g0, %o0, %o0

40009a94 <_hi0bits>:
40009a94:	03 3f ff c0 	sethi  %hi(0xffff0000), %g1
40009a98:	80 8a 00 01 	btst  %o0, %g1
40009a9c:	12 80 00 04 	bne  40009aac <_hi0bits+0x18>
40009aa0:	9a 10 20 00 	clr  %o5
40009aa4:	91 2a 20 10 	sll  %o0, 0x10, %o0
40009aa8:	9a 10 20 10 	mov  0x10, %o5
40009aac:	03 3f c0 00 	sethi  %hi(0xff000000), %g1
40009ab0:	80 8a 00 01 	btst  %o0, %g1
40009ab4:	12 80 00 04 	bne  40009ac4 <_hi0bits+0x30>
40009ab8:	03 3c 00 00 	sethi  %hi(0xf0000000), %g1
40009abc:	9a 03 60 08 	add  %o5, 8, %o5
40009ac0:	91 2a 20 08 	sll  %o0, 8, %o0
40009ac4:	80 8a 00 01 	btst  %o0, %g1
40009ac8:	12 80 00 04 	bne  40009ad8 <_hi0bits+0x44>
40009acc:	03 30 00 00 	sethi  %hi(0xc0000000), %g1
40009ad0:	9a 03 60 04 	add  %o5, 4, %o5
40009ad4:	91 2a 20 04 	sll  %o0, 4, %o0
40009ad8:	80 8a 00 01 	btst  %o0, %g1
40009adc:	12 80 00 05 	bne  40009af0 <_hi0bits+0x5c>
40009ae0:	80 a2 20 00 	cmp  %o0, 0
40009ae4:	9a 03 60 02 	add  %o5, 2, %o5
40009ae8:	91 2a 20 02 	sll  %o0, 2, %o0
40009aec:	80 a2 20 00 	cmp  %o0, 0
40009af0:	06 80 00 06 	bl  40009b08 <_hi0bits+0x74>
40009af4:	03 10 00 00 	sethi  %hi(0x40000000), %g1
40009af8:	80 8a 00 01 	btst  %o0, %g1
40009afc:	9a 03 60 01 	inc  %o5
40009b00:	02 80 00 03 	be  40009b0c <_hi0bits+0x78>
40009b04:	90 10 20 20 	mov  0x20, %o0
40009b08:	90 10 00 0d 	mov  %o5, %o0
40009b0c:	81 c3 e0 08 	retl 
40009b10:	01 00 00 00 	nop 

40009b14 <_lo0bits>:
40009b14:	da 02 00 00 	ld  [ %o0 ], %o5
40009b18:	80 8b 60 07 	btst  7, %o5
40009b1c:	02 80 00 0b 	be  40009b48 <_lo0bits+0x34>
40009b20:	98 10 00 08 	mov  %o0, %o4
40009b24:	80 8b 60 01 	btst  1, %o5
40009b28:	12 80 00 2d 	bne  40009bdc <_lo0bits+0xc8>
40009b2c:	90 10 20 00 	clr  %o0
40009b30:	80 8b 60 02 	btst  2, %o5
40009b34:	02 80 00 27 	be  40009bd0 <_lo0bits+0xbc>
40009b38:	83 33 60 01 	srl  %o5, 1, %g1
40009b3c:	c2 23 00 00 	st  %g1, [ %o4 ]
40009b40:	10 80 00 27 	b  40009bdc <_lo0bits+0xc8>
40009b44:	90 10 20 01 	mov  1, %o0
40009b48:	03 00 00 3f 	sethi  %hi(0xfc00), %g1
40009b4c:	82 10 63 ff 	or  %g1, 0x3ff, %g1	! ffff <_trap_table-0x3fff0001>
40009b50:	80 8b 40 01 	btst  %o5, %g1
40009b54:	02 80 00 1c 	be  40009bc4 <_lo0bits+0xb0>
40009b58:	82 10 20 00 	clr  %g1
40009b5c:	80 8b 60 ff 	btst  0xff, %o5
40009b60:	12 80 00 05 	bne  40009b74 <_lo0bits+0x60>
40009b64:	80 8b 60 0f 	btst  0xf, %o5
40009b68:	82 00 60 08 	add  %g1, 8, %g1
40009b6c:	9b 33 60 08 	srl  %o5, 8, %o5
40009b70:	80 8b 60 0f 	btst  0xf, %o5
40009b74:	12 80 00 05 	bne  40009b88 <_lo0bits+0x74>
40009b78:	80 8b 60 03 	btst  3, %o5
40009b7c:	82 00 60 04 	add  %g1, 4, %g1
40009b80:	9b 33 60 04 	srl  %o5, 4, %o5
40009b84:	80 8b 60 03 	btst  3, %o5
40009b88:	12 80 00 05 	bne  40009b9c <_lo0bits+0x88>
40009b8c:	80 8b 60 01 	btst  1, %o5
40009b90:	82 00 60 02 	add  %g1, 2, %g1
40009b94:	9b 33 60 02 	srl  %o5, 2, %o5
40009b98:	80 8b 60 01 	btst  1, %o5
40009b9c:	32 80 00 08 	bne,a   40009bbc <_lo0bits+0xa8>
40009ba0:	da 23 00 00 	st  %o5, [ %o4 ]
40009ba4:	9b 33 60 01 	srl  %o5, 1, %o5
40009ba8:	82 00 60 01 	inc  %g1
40009bac:	80 a3 60 00 	cmp  %o5, 0
40009bb0:	02 80 00 0b 	be  40009bdc <_lo0bits+0xc8>
40009bb4:	90 10 20 20 	mov  0x20, %o0
40009bb8:	da 23 00 00 	st  %o5, [ %o4 ]
40009bbc:	10 80 00 08 	b  40009bdc <_lo0bits+0xc8>
40009bc0:	90 10 00 01 	mov  %g1, %o0
40009bc4:	9b 33 60 10 	srl  %o5, 0x10, %o5
40009bc8:	10 bf ff e5 	b  40009b5c <_lo0bits+0x48>
40009bcc:	82 10 20 10 	mov  0x10, %g1
40009bd0:	83 33 60 02 	srl  %o5, 2, %g1
40009bd4:	c2 23 00 00 	st  %g1, [ %o4 ]
40009bd8:	90 10 20 02 	mov  2, %o0
40009bdc:	81 c3 e0 08 	retl 
40009be0:	01 00 00 00 	nop 

40009be4 <_i2b>:
40009be4:	9d e3 bf 98 	save  %sp, -104, %sp
40009be8:	90 10 00 18 	mov  %i0, %o0
40009bec:	7f ff ff 0a 	call  40009814 <_Balloc>
40009bf0:	92 10 20 01 	mov  1, %o1
40009bf4:	82 10 20 01 	mov  1, %g1
40009bf8:	f2 22 20 14 	st  %i1, [ %o0 + 0x14 ]
40009bfc:	c2 22 20 10 	st  %g1, [ %o0 + 0x10 ]
40009c00:	81 c7 e0 08 	ret 
40009c04:	91 e8 00 08 	restore  %g0, %o0, %o0

40009c08 <_multiply>:
40009c08:	9d e3 bf 98 	save  %sp, -104, %sp
40009c0c:	e2 06 60 10 	ld  [ %i1 + 0x10 ], %l1
40009c10:	e0 06 a0 10 	ld  [ %i2 + 0x10 ], %l0
40009c14:	80 a4 40 10 	cmp  %l1, %l0
40009c18:	16 80 00 07 	bge  40009c34 <_multiply+0x2c>
40009c1c:	90 10 00 18 	mov  %i0, %o0
40009c20:	b0 10 00 19 	mov  %i1, %i0
40009c24:	b2 10 00 1a 	mov  %i2, %i1
40009c28:	a2 10 00 10 	mov  %l0, %l1
40009c2c:	b4 10 00 18 	mov  %i0, %i2
40009c30:	e0 06 20 10 	ld  [ %i0 + 0x10 ], %l0
40009c34:	a6 04 40 10 	add  %l1, %l0, %l3
40009c38:	c2 06 60 08 	ld  [ %i1 + 8 ], %g1
40009c3c:	80 a0 40 13 	cmp  %g1, %l3
40009c40:	16 80 00 03 	bge  40009c4c <_multiply+0x44>
40009c44:	d2 06 60 04 	ld  [ %i1 + 4 ], %o1
40009c48:	92 02 60 01 	inc  %o1
40009c4c:	7f ff fe f2 	call  40009814 <_Balloc>
40009c50:	bb 2c e0 02 	sll  %l3, 2, %i5
40009c54:	ac 02 20 14 	add  %o0, 0x14, %l6
40009c58:	a8 07 40 16 	add  %i5, %l6, %l4
40009c5c:	b0 10 00 08 	mov  %o0, %i0
40009c60:	80 a5 80 14 	cmp  %l6, %l4
40009c64:	1a 80 00 07 	bcc  40009c80 <_multiply+0x78>
40009c68:	92 10 00 16 	mov  %l6, %o1
40009c6c:	c0 22 40 00 	clr  [ %o1 ]
40009c70:	92 02 60 04 	add  %o1, 4, %o1
40009c74:	80 a2 40 14 	cmp  %o1, %l4
40009c78:	2a bf ff fe 	bcs,a   40009c70 <_multiply+0x68>
40009c7c:	c0 22 40 00 	clr  [ %o1 ]
40009c80:	b4 06 a0 14 	add  %i2, 0x14, %i2
40009c84:	9b 2c 20 02 	sll  %l0, 2, %o5
40009c88:	a8 06 60 14 	add  %i1, 0x14, %l4
40009c8c:	83 2c 60 02 	sll  %l1, 2, %g1
40009c90:	ae 03 40 1a 	add  %o5, %i2, %l7
40009c94:	a2 00 40 14 	add  %g1, %l4, %l1
40009c98:	80 a6 80 17 	cmp  %i2, %l7
40009c9c:	1a 80 00 47 	bcc  40009db8 <_multiply+0x1b0>
40009ca0:	a4 10 00 16 	mov  %l6, %l2
40009ca4:	03 00 00 3f 	sethi  %hi(0xfc00), %g1
40009ca8:	aa 10 63 ff 	or  %g1, 0x3ff, %l5	! ffff <_trap_table-0x3fff0001>
40009cac:	b8 10 00 15 	mov  %l5, %i4
40009cb0:	b6 10 00 15 	mov  %l5, %i3
40009cb4:	c2 06 80 00 	ld  [ %i2 ], %g1
40009cb8:	90 88 40 15 	andcc  %g1, %l5, %o0
40009cbc:	22 80 00 1d 	be,a   40009d30 <_multiply+0x128>
40009cc0:	91 30 60 10 	srl  %g1, 0x10, %o0
40009cc4:	92 10 00 14 	mov  %l4, %o1
40009cc8:	94 10 00 12 	mov  %l2, %o2
40009ccc:	9e 10 20 00 	clr  %o7
40009cd0:	b2 10 00 1c 	mov  %i4, %i1
40009cd4:	da 02 40 00 	ld  [ %o1 ], %o5
40009cd8:	d6 02 80 00 	ld  [ %o2 ], %o3
40009cdc:	82 0b 40 19 	and  %o5, %i1, %g1
40009ce0:	98 0a c0 19 	and  %o3, %i1, %o4
40009ce4:	82 58 40 08 	smul  %g1, %o0, %g1
40009ce8:	82 00 40 0c 	add  %g1, %o4, %g1
40009cec:	9b 33 60 10 	srl  %o5, 0x10, %o5
40009cf0:	98 00 40 0f 	add  %g1, %o7, %o4
40009cf4:	97 32 e0 10 	srl  %o3, 0x10, %o3
40009cf8:	9a 5b 40 08 	smul  %o5, %o0, %o5
40009cfc:	9f 33 20 10 	srl  %o4, 0x10, %o7
40009d00:	9a 03 40 0b 	add  %o5, %o3, %o5
40009d04:	96 03 40 0f 	add  %o5, %o7, %o3
40009d08:	d6 32 80 00 	sth  %o3, [ %o2 ]
40009d0c:	d8 32 a0 02 	sth  %o4, [ %o2 + 2 ]
40009d10:	92 02 60 04 	add  %o1, 4, %o1
40009d14:	94 02 a0 04 	add  %o2, 4, %o2
40009d18:	80 a2 40 11 	cmp  %o1, %l1
40009d1c:	0a bf ff ee 	bcs  40009cd4 <_multiply+0xcc>
40009d20:	9f 32 e0 10 	srl  %o3, 0x10, %o7
40009d24:	de 22 80 00 	st  %o7, [ %o2 ]
40009d28:	c2 06 80 00 	ld  [ %i2 ], %g1
40009d2c:	91 30 60 10 	srl  %g1, 0x10, %o0
40009d30:	80 a2 20 00 	cmp  %o0, 0
40009d34:	22 80 00 1e 	be,a   40009dac <_multiply+0x1a4>
40009d38:	b4 06 a0 04 	add  %i2, 4, %i2
40009d3c:	d6 04 80 00 	ld  [ %l2 ], %o3
40009d40:	94 10 00 12 	mov  %l2, %o2
40009d44:	92 10 00 14 	mov  %l4, %o1
40009d48:	9e 10 20 00 	clr  %o7
40009d4c:	b2 10 00 0b 	mov  %o3, %i1
40009d50:	a0 10 00 1b 	mov  %i3, %l0
40009d54:	da 02 40 00 	ld  [ %o1 ], %o5
40009d58:	82 0b 40 10 	and  %o5, %l0, %g1
40009d5c:	99 36 60 10 	srl  %i1, 0x10, %o4
40009d60:	82 58 40 08 	smul  %g1, %o0, %g1
40009d64:	82 00 40 0c 	add  %g1, %o4, %g1
40009d68:	98 00 40 0f 	add  %g1, %o7, %o4
40009d6c:	d6 32 a0 02 	sth  %o3, [ %o2 + 2 ]
40009d70:	d8 32 80 00 	sth  %o4, [ %o2 ]
40009d74:	94 02 a0 04 	add  %o2, 4, %o2
40009d78:	9b 33 60 10 	srl  %o5, 0x10, %o5
40009d7c:	f2 02 80 00 	ld  [ %o2 ], %i1
40009d80:	9a 5b 40 08 	smul  %o5, %o0, %o5
40009d84:	82 0e 40 10 	and  %i1, %l0, %g1
40009d88:	9f 33 20 10 	srl  %o4, 0x10, %o7
40009d8c:	9a 03 40 01 	add  %o5, %g1, %o5
40009d90:	96 03 40 0f 	add  %o5, %o7, %o3
40009d94:	92 02 60 04 	add  %o1, 4, %o1
40009d98:	80 a2 40 11 	cmp  %o1, %l1
40009d9c:	0a bf ff ee 	bcs  40009d54 <_multiply+0x14c>
40009da0:	9f 32 e0 10 	srl  %o3, 0x10, %o7
40009da4:	d6 22 80 00 	st  %o3, [ %o2 ]
40009da8:	b4 06 a0 04 	add  %i2, 4, %i2
40009dac:	80 a6 80 17 	cmp  %i2, %l7
40009db0:	0a bf ff c1 	bcs  40009cb4 <_multiply+0xac>
40009db4:	a4 04 a0 04 	add  %l2, 4, %l2
40009db8:	80 a4 e0 00 	cmp  %l3, 0
40009dbc:	04 80 00 0b 	ble  40009de8 <_multiply+0x1e0>
40009dc0:	94 07 40 16 	add  %i5, %l6, %o2
40009dc4:	94 02 bf fc 	add  %o2, -4, %o2
40009dc8:	c2 02 80 00 	ld  [ %o2 ], %g1
40009dcc:	80 a0 60 00 	cmp  %g1, 0
40009dd0:	32 80 00 07 	bne,a   40009dec <_multiply+0x1e4>
40009dd4:	e6 26 20 10 	st  %l3, [ %i0 + 0x10 ]
40009dd8:	a6 04 ff ff 	add  %l3, -1, %l3
40009ddc:	80 a4 e0 00 	cmp  %l3, 0
40009de0:	14 bf ff fa 	bg  40009dc8 <_multiply+0x1c0>
40009de4:	94 02 bf fc 	add  %o2, -4, %o2
40009de8:	e6 26 20 10 	st  %l3, [ %i0 + 0x10 ]
40009dec:	81 c7 e0 08 	ret 
40009df0:	81 e8 00 00 	restore 

40009df4 <_pow5mult>:
40009df4:	9d e3 bf 98 	save  %sp, -104, %sp
40009df8:	a4 10 00 18 	mov  %i0, %l2
40009dfc:	9a 8e a0 03 	andcc  %i2, 3, %o5
40009e00:	12 80 00 2d 	bne  40009eb4 <_pow5mult+0xc0>
40009e04:	b0 10 00 19 	mov  %i1, %i0
40009e08:	b5 3e a0 02 	sra  %i2, 2, %i2
40009e0c:	80 a6 a0 00 	cmp  %i2, 0
40009e10:	02 80 00 41 	be  40009f14 <_pow5mult+0x120>
40009e14:	01 00 00 00 	nop 
40009e18:	e2 04 a0 48 	ld  [ %l2 + 0x48 ], %l1
40009e1c:	80 a4 60 00 	cmp  %l1, 0
40009e20:	02 80 00 37 	be  40009efc <_pow5mult+0x108>
40009e24:	90 10 00 12 	mov  %l2, %o0
40009e28:	80 8e a0 01 	btst  1, %i2
40009e2c:	94 10 00 11 	mov  %l1, %o2
40009e30:	92 10 00 18 	mov  %i0, %o1
40009e34:	90 10 00 12 	mov  %l2, %o0
40009e38:	12 80 00 12 	bne  40009e80 <_pow5mult+0x8c>
40009e3c:	b5 3e a0 01 	sra  %i2, 1, %i2
40009e40:	92 10 00 11 	mov  %l1, %o1
40009e44:	94 10 00 11 	mov  %l1, %o2
40009e48:	80 a6 a0 00 	cmp  %i2, 0
40009e4c:	02 80 00 32 	be  40009f14 <_pow5mult+0x120>
40009e50:	90 10 00 12 	mov  %l2, %o0
40009e54:	c2 04 40 00 	ld  [ %l1 ], %g1
40009e58:	80 a0 60 00 	cmp  %g1, 0
40009e5c:	02 80 00 21 	be  40009ee0 <_pow5mult+0xec>
40009e60:	01 00 00 00 	nop 
40009e64:	a2 10 00 01 	mov  %g1, %l1
40009e68:	80 8e a0 01 	btst  1, %i2
40009e6c:	94 10 00 11 	mov  %l1, %o2
40009e70:	92 10 00 18 	mov  %i0, %o1
40009e74:	90 10 00 12 	mov  %l2, %o0
40009e78:	02 bf ff f2 	be  40009e40 <_pow5mult+0x4c>
40009e7c:	b5 3e a0 01 	sra  %i2, 1, %i2
40009e80:	7f ff ff 62 	call  40009c08 <_multiply>
40009e84:	01 00 00 00 	nop 
40009e88:	a0 10 00 08 	mov  %o0, %l0
40009e8c:	92 10 00 18 	mov  %i0, %o1
40009e90:	7f ff fe 8a 	call  400098b8 <_Bfree>
40009e94:	90 10 00 12 	mov  %l2, %o0
40009e98:	b0 10 00 10 	mov  %l0, %i0
40009e9c:	92 10 00 11 	mov  %l1, %o1
40009ea0:	94 10 00 11 	mov  %l1, %o2
40009ea4:	80 a6 a0 00 	cmp  %i2, 0
40009ea8:	12 bf ff eb 	bne  40009e54 <_pow5mult+0x60>
40009eac:	90 10 00 12 	mov  %l2, %o0
40009eb0:	30 80 00 19 	b,a   40009f14 <_pow5mult+0x120>
40009eb4:	03 10 00 33 	sethi  %hi(0x4000cc00), %g1
40009eb8:	82 10 61 c0 	or  %g1, 0x1c0, %g1	! 4000cdc0 <p05.0>
40009ebc:	9b 2b 60 02 	sll  %o5, 2, %o5
40009ec0:	9a 03 40 01 	add  %o5, %g1, %o5
40009ec4:	92 10 00 19 	mov  %i1, %o1
40009ec8:	d4 03 7f fc 	ld  [ %o5 + -4 ], %o2
40009ecc:	90 10 00 12 	mov  %l2, %o0
40009ed0:	7f ff fe 85 	call  400098e4 <_multadd>
40009ed4:	96 10 20 00 	clr  %o3
40009ed8:	10 bf ff cc 	b  40009e08 <_pow5mult+0x14>
40009edc:	b0 10 00 08 	mov  %o0, %i0
40009ee0:	7f ff ff 4a 	call  40009c08 <_multiply>
40009ee4:	01 00 00 00 	nop 
40009ee8:	d0 24 40 00 	st  %o0, [ %l1 ]
40009eec:	82 10 00 08 	mov  %o0, %g1
40009ef0:	c0 22 00 00 	clr  [ %o0 ]
40009ef4:	10 bf ff dd 	b  40009e68 <_pow5mult+0x74>
40009ef8:	a2 10 00 01 	mov  %g1, %l1
40009efc:	7f ff ff 3a 	call  40009be4 <_i2b>
40009f00:	92 10 22 71 	mov  0x271, %o1
40009f04:	d0 24 a0 48 	st  %o0, [ %l2 + 0x48 ]
40009f08:	a2 10 00 08 	mov  %o0, %l1
40009f0c:	10 bf ff c7 	b  40009e28 <_pow5mult+0x34>
40009f10:	c0 22 00 00 	clr  [ %o0 ]
40009f14:	81 c7 e0 08 	ret 
40009f18:	81 e8 00 00 	restore 

40009f1c <_lshift>:
40009f1c:	9d e3 bf 98 	save  %sp, -104, %sp
40009f20:	a1 3e a0 05 	sra  %i2, 5, %l0
40009f24:	c2 06 60 10 	ld  [ %i1 + 0x10 ], %g1
40009f28:	82 00 40 10 	add  %g1, %l0, %g1
40009f2c:	a2 00 60 01 	add  %g1, 1, %l1
40009f30:	c2 06 60 08 	ld  [ %i1 + 8 ], %g1
40009f34:	a4 10 00 18 	mov  %i0, %l2
40009f38:	80 a4 40 01 	cmp  %l1, %g1
40009f3c:	04 80 00 06 	ble  40009f54 <_lshift+0x38>
40009f40:	d2 06 60 04 	ld  [ %i1 + 4 ], %o1
40009f44:	82 00 40 01 	add  %g1, %g1, %g1
40009f48:	80 a4 40 01 	cmp  %l1, %g1
40009f4c:	14 bf ff fe 	bg  40009f44 <_lshift+0x28>
40009f50:	92 02 60 01 	inc  %o1
40009f54:	7f ff fe 30 	call  40009814 <_Balloc>
40009f58:	90 10 00 12 	mov  %l2, %o0
40009f5c:	b0 10 00 08 	mov  %o0, %i0
40009f60:	80 a4 20 00 	cmp  %l0, 0
40009f64:	04 80 00 07 	ble  40009f80 <_lshift+0x64>
40009f68:	96 02 20 14 	add  %o0, 0x14, %o3
40009f6c:	82 10 00 10 	mov  %l0, %g1
40009f70:	c0 22 c0 00 	clr  [ %o3 ]
40009f74:	82 80 7f ff 	addcc  %g1, -1, %g1
40009f78:	12 bf ff fe 	bne  40009f70 <_lshift+0x54>
40009f7c:	96 02 e0 04 	add  %o3, 4, %o3
40009f80:	c2 06 60 10 	ld  [ %i1 + 0x10 ], %g1
40009f84:	83 28 60 02 	sll  %g1, 2, %g1
40009f88:	98 06 60 14 	add  %i1, 0x14, %o4
40009f8c:	b4 8e a0 1f 	andcc  %i2, 0x1f, %i2
40009f90:	02 80 00 14 	be  40009fe0 <_lshift+0xc4>
40009f94:	94 00 40 0c 	add  %g1, %o4, %o2
40009f98:	82 10 20 20 	mov  0x20, %g1
40009f9c:	92 20 40 1a 	sub  %g1, %i2, %o1
40009fa0:	9a 10 20 00 	clr  %o5
40009fa4:	c2 03 00 00 	ld  [ %o4 ], %g1
40009fa8:	83 28 40 1a 	sll  %g1, %i2, %g1
40009fac:	82 10 40 0d 	or  %g1, %o5, %g1
40009fb0:	c2 22 c0 00 	st  %g1, [ %o3 ]
40009fb4:	da 03 00 00 	ld  [ %o4 ], %o5
40009fb8:	98 03 20 04 	add  %o4, 4, %o4
40009fbc:	96 02 e0 04 	add  %o3, 4, %o3
40009fc0:	80 a3 00 0a 	cmp  %o4, %o2
40009fc4:	0a bf ff f8 	bcs  40009fa4 <_lshift+0x88>
40009fc8:	9b 33 40 09 	srl  %o5, %o1, %o5
40009fcc:	80 a3 60 00 	cmp  %o5, 0
40009fd0:	02 80 00 10 	be  4000a010 <_lshift+0xf4>
40009fd4:	da 22 c0 00 	st  %o5, [ %o3 ]
40009fd8:	10 80 00 0e 	b  4000a010 <_lshift+0xf4>
40009fdc:	a2 04 60 01 	inc  %l1
40009fe0:	c2 03 00 00 	ld  [ %o4 ], %g1
40009fe4:	c2 22 c0 00 	st  %g1, [ %o3 ]
40009fe8:	98 03 20 04 	add  %o4, 4, %o4
40009fec:	80 a3 00 0a 	cmp  %o4, %o2
40009ff0:	1a 80 00 08 	bcc  4000a010 <_lshift+0xf4>
40009ff4:	96 02 e0 04 	add  %o3, 4, %o3
40009ff8:	c2 03 00 00 	ld  [ %o4 ], %g1
40009ffc:	c2 22 c0 00 	st  %g1, [ %o3 ]
4000a000:	98 03 20 04 	add  %o4, 4, %o4
4000a004:	80 a3 00 0a 	cmp  %o4, %o2
4000a008:	0a bf ff f6 	bcs  40009fe0 <_lshift+0xc4>
4000a00c:	96 02 e0 04 	add  %o3, 4, %o3
4000a010:	82 04 7f ff 	add  %l1, -1, %g1
4000a014:	c2 26 20 10 	st  %g1, [ %i0 + 0x10 ]
4000a018:	90 10 00 12 	mov  %l2, %o0
4000a01c:	7f ff fe 27 	call  400098b8 <_Bfree>
4000a020:	92 10 00 19 	mov  %i1, %o1
4000a024:	01 00 00 00 	nop 
4000a028:	81 c7 e0 08 	ret 
4000a02c:	81 e8 00 00 	restore 

4000a030 <__mcmp>:
4000a030:	98 10 00 08 	mov  %o0, %o4
4000a034:	d0 02 20 10 	ld  [ %o0 + 0x10 ], %o0
4000a038:	da 02 60 10 	ld  [ %o1 + 0x10 ], %o5
4000a03c:	90 a2 00 0d 	subcc  %o0, %o5, %o0
4000a040:	12 80 00 14 	bne  4000a090 <__mcmp+0x60>
4000a044:	9b 2b 60 02 	sll  %o5, 2, %o5
4000a048:	82 02 60 14 	add  %o1, 0x14, %g1
4000a04c:	90 03 20 14 	add  %o4, 0x14, %o0
4000a050:	82 03 40 01 	add  %o5, %g1, %g1
4000a054:	9a 03 40 08 	add  %o5, %o0, %o5
4000a058:	9a 03 7f fc 	add  %o5, -4, %o5
4000a05c:	82 00 7f fc 	add  %g1, -4, %g1
4000a060:	d6 03 40 00 	ld  [ %o5 ], %o3
4000a064:	d8 00 40 00 	ld  [ %g1 ], %o4
4000a068:	80 a2 c0 0c 	cmp  %o3, %o4
4000a06c:	12 80 00 06 	bne  4000a084 <__mcmp+0x54>
4000a070:	80 a3 40 08 	cmp  %o5, %o0
4000a074:	38 bf ff fa 	bgu,a   4000a05c <__mcmp+0x2c>
4000a078:	9a 03 7f fc 	add  %o5, -4, %o5
4000a07c:	10 80 00 05 	b  4000a090 <__mcmp+0x60>
4000a080:	90 10 20 00 	clr  %o0
4000a084:	80 a2 c0 0c 	cmp  %o3, %o4
4000a088:	82 60 20 00 	subx  %g0, 0, %g1
4000a08c:	90 10 60 01 	or  %g1, 1, %o0
4000a090:	81 c3 e0 08 	retl 
4000a094:	01 00 00 00 	nop 

4000a098 <__mdiff>:
4000a098:	9d e3 bf 98 	save  %sp, -104, %sp
4000a09c:	90 10 00 19 	mov  %i1, %o0
4000a0a0:	7f ff ff e4 	call  4000a030 <__mcmp>
4000a0a4:	92 10 00 1a 	mov  %i2, %o1
4000a0a8:	a0 10 00 08 	mov  %o0, %l0
4000a0ac:	80 a4 20 00 	cmp  %l0, 0
4000a0b0:	02 80 00 46 	be  4000a1c8 <__mdiff+0x130>
4000a0b4:	90 10 00 18 	mov  %i0, %o0
4000a0b8:	80 a4 20 00 	cmp  %l0, 0
4000a0bc:	06 80 00 4a 	bl  4000a1e4 <__mdiff+0x14c>
4000a0c0:	b0 10 00 19 	mov  %i1, %i0
4000a0c4:	a0 10 20 00 	clr  %l0
4000a0c8:	7f ff fd d3 	call  40009814 <_Balloc>
4000a0cc:	d2 06 60 04 	ld  [ %i1 + 4 ], %o1
4000a0d0:	b0 10 00 08 	mov  %o0, %i0
4000a0d4:	e2 06 60 10 	ld  [ %i1 + 0x10 ], %l1
4000a0d8:	9b 2c 60 02 	sll  %l1, 2, %o5
4000a0dc:	90 06 60 14 	add  %i1, 0x14, %o0
4000a0e0:	c2 06 a0 10 	ld  [ %i2 + 0x10 ], %g1
4000a0e4:	b2 03 40 08 	add  %o5, %o0, %i1
4000a0e8:	92 06 a0 14 	add  %i2, 0x14, %o1
4000a0ec:	83 28 60 02 	sll  %g1, 2, %g1
4000a0f0:	e0 26 20 0c 	st  %l0, [ %i0 + 0xc ]
4000a0f4:	1b 00 00 3f 	sethi  %hi(0xfc00), %o5
4000a0f8:	a0 00 40 09 	add  %g1, %o1, %l0
4000a0fc:	b4 13 63 ff 	or  %o5, 0x3ff, %i2
4000a100:	94 06 20 14 	add  %i0, 0x14, %o2
4000a104:	9e 10 20 00 	clr  %o7
4000a108:	d6 02 00 00 	ld  [ %o0 ], %o3
4000a10c:	d8 02 40 00 	ld  [ %o1 ], %o4
4000a110:	9a 0b 00 1a 	and  %o4, %i2, %o5
4000a114:	82 0a c0 1a 	and  %o3, %i2, %g1
4000a118:	82 20 40 0d 	sub  %g1, %o5, %g1
4000a11c:	9a 00 40 0f 	add  %g1, %o7, %o5
4000a120:	97 32 e0 10 	srl  %o3, 0x10, %o3
4000a124:	99 33 20 10 	srl  %o4, 0x10, %o4
4000a128:	9f 3b 60 10 	sra  %o5, 0x10, %o7
4000a12c:	96 22 c0 0c 	sub  %o3, %o4, %o3
4000a130:	82 02 c0 0f 	add  %o3, %o7, %g1
4000a134:	c2 32 80 00 	sth  %g1, [ %o2 ]
4000a138:	da 32 a0 02 	sth  %o5, [ %o2 + 2 ]
4000a13c:	92 02 60 04 	add  %o1, 4, %o1
4000a140:	90 02 20 04 	add  %o0, 4, %o0
4000a144:	94 02 a0 04 	add  %o2, 4, %o2
4000a148:	80 a2 40 10 	cmp  %o1, %l0
4000a14c:	0a bf ff ef 	bcs  4000a108 <__mdiff+0x70>
4000a150:	9f 38 60 10 	sra  %g1, 0x10, %o7
4000a154:	80 a2 00 19 	cmp  %o0, %i1
4000a158:	1a 80 00 10 	bcc  4000a198 <__mdiff+0x100>
4000a15c:	03 00 00 3f 	sethi  %hi(0xfc00), %g1
4000a160:	98 10 63 ff 	or  %g1, 0x3ff, %o4	! ffff <_trap_table-0x3fff0001>
4000a164:	c2 02 00 00 	ld  [ %o0 ], %g1
4000a168:	9a 08 40 0c 	and  %g1, %o4, %o5
4000a16c:	9a 03 40 0f 	add  %o5, %o7, %o5
4000a170:	9f 3b 60 10 	sra  %o5, 0x10, %o7
4000a174:	83 30 60 10 	srl  %g1, 0x10, %g1
4000a178:	82 00 40 0f 	add  %g1, %o7, %g1
4000a17c:	c2 32 80 00 	sth  %g1, [ %o2 ]
4000a180:	da 32 a0 02 	sth  %o5, [ %o2 + 2 ]
4000a184:	90 02 20 04 	add  %o0, 4, %o0
4000a188:	94 02 a0 04 	add  %o2, 4, %o2
4000a18c:	80 a2 00 19 	cmp  %o0, %i1
4000a190:	0a bf ff f5 	bcs  4000a164 <__mdiff+0xcc>
4000a194:	9f 38 60 10 	sra  %g1, 0x10, %o7
4000a198:	94 02 bf fc 	add  %o2, -4, %o2
4000a19c:	c2 02 80 00 	ld  [ %o2 ], %g1
4000a1a0:	80 a0 60 00 	cmp  %g1, 0
4000a1a4:	32 80 00 14 	bne,a   4000a1f4 <__mdiff+0x15c>
4000a1a8:	e2 26 20 10 	st  %l1, [ %i0 + 0x10 ]
4000a1ac:	94 02 bf fc 	add  %o2, -4, %o2
4000a1b0:	c2 02 80 00 	ld  [ %o2 ], %g1
4000a1b4:	80 a0 60 00 	cmp  %g1, 0
4000a1b8:	02 bf ff fd 	be  4000a1ac <__mdiff+0x114>
4000a1bc:	a2 04 7f ff 	add  %l1, -1, %l1
4000a1c0:	10 80 00 0d 	b  4000a1f4 <__mdiff+0x15c>
4000a1c4:	e2 26 20 10 	st  %l1, [ %i0 + 0x10 ]
4000a1c8:	7f ff fd 93 	call  40009814 <_Balloc>
4000a1cc:	92 10 20 00 	clr  %o1
4000a1d0:	82 10 20 01 	mov  1, %g1
4000a1d4:	b0 10 00 08 	mov  %o0, %i0
4000a1d8:	c2 22 20 10 	st  %g1, [ %o0 + 0x10 ]
4000a1dc:	10 80 00 06 	b  4000a1f4 <__mdiff+0x15c>
4000a1e0:	c0 22 20 14 	clr  [ %o0 + 0x14 ]
4000a1e4:	b2 10 00 1a 	mov  %i2, %i1
4000a1e8:	b4 10 00 18 	mov  %i0, %i2
4000a1ec:	10 bf ff b7 	b  4000a0c8 <__mdiff+0x30>
4000a1f0:	a0 10 20 01 	mov  1, %l0
4000a1f4:	81 c7 e0 08 	ret 
4000a1f8:	81 e8 00 00 	restore 

4000a1fc <_ulp>:
4000a1fc:	03 1f fc 00 	sethi  %hi(0x7ff00000), %g1
4000a200:	90 0a 00 01 	and  %o0, %g1, %o0
4000a204:	1b 3f 30 00 	sethi  %hi(0xfcc00000), %o5
4000a208:	98 02 00 0d 	add  %o0, %o5, %o4
4000a20c:	82 20 00 0c 	neg  %o4, %g1
4000a210:	80 a3 20 00 	cmp  %o4, 0
4000a214:	04 80 00 04 	ble  4000a224 <_ulp+0x28>
4000a218:	90 10 00 0c 	mov  %o4, %o0
4000a21c:	10 80 00 12 	b  4000a264 <_ulp+0x68>
4000a220:	92 10 20 00 	clr  %o1
4000a224:	99 38 60 14 	sra  %g1, 0x14, %o4
4000a228:	80 a3 20 13 	cmp  %o4, 0x13
4000a22c:	04 80 00 0c 	ble  4000a25c <_ulp+0x60>
4000a230:	03 00 02 00 	sethi  %hi(0x80000), %g1
4000a234:	98 03 3f ec 	add  %o4, -20, %o4
4000a238:	9a 38 00 0c 	xnor  %g0, %o4, %o5
4000a23c:	82 10 20 01 	mov  1, %g1
4000a240:	83 28 40 0d 	sll  %g1, %o5, %g1
4000a244:	80 a3 20 1e 	cmp  %o4, 0x1e
4000a248:	04 80 00 03 	ble  4000a254 <_ulp+0x58>
4000a24c:	90 10 20 00 	clr  %o0
4000a250:	82 10 20 01 	mov  1, %g1
4000a254:	10 80 00 04 	b  4000a264 <_ulp+0x68>
4000a258:	92 10 00 01 	mov  %g1, %o1
4000a25c:	10 bf ff f0 	b  4000a21c <_ulp+0x20>
4000a260:	91 38 40 0c 	sra  %g1, %o4, %o0
4000a264:	81 c3 e0 08 	retl 
4000a268:	01 00 00 00 	nop 

4000a26c <_b2d>:
4000a26c:	9d e3 bf 98 	save  %sp, -104, %sp
4000a270:	c2 06 20 10 	ld  [ %i0 + 0x10 ], %g1
4000a274:	83 28 60 02 	sll  %g1, 2, %g1
4000a278:	a4 06 20 14 	add  %i0, 0x14, %l2
4000a27c:	a0 00 40 12 	add  %g1, %l2, %l0
4000a280:	a0 04 3f fc 	add  %l0, -4, %l0
4000a284:	e2 04 00 00 	ld  [ %l0 ], %l1
4000a288:	7f ff fe 03 	call  40009a94 <_hi0bits>
4000a28c:	90 10 00 11 	mov  %l1, %o0
4000a290:	82 10 20 20 	mov  0x20, %g1
4000a294:	82 20 40 08 	sub  %g1, %o0, %g1
4000a298:	80 a2 20 0a 	cmp  %o0, 0xa
4000a29c:	04 80 00 1f 	ble  4000a318 <_b2d+0xac>
4000a2a0:	c2 26 40 00 	st  %g1, [ %i1 ]
4000a2a4:	80 a4 00 12 	cmp  %l0, %l2
4000a2a8:	18 80 00 14 	bgu  4000a2f8 <_b2d+0x8c>
4000a2ac:	96 10 20 00 	clr  %o3
4000a2b0:	90 82 3f f5 	addcc  %o0, -11, %o0
4000a2b4:	02 80 00 16 	be  4000a30c <_b2d+0xa0>
4000a2b8:	03 0f fc 00 	sethi  %hi(0x3ff00000), %g1
4000a2bc:	82 20 00 08 	neg  %o0, %g1
4000a2c0:	9b 2c 40 08 	sll  %l1, %o0, %o5
4000a2c4:	83 32 c0 01 	srl  %o3, %g1, %g1
4000a2c8:	9a 13 40 01 	or  %o5, %g1, %o5
4000a2cc:	19 0f fc 00 	sethi  %hi(0x3ff00000), %o4
4000a2d0:	b0 13 40 0c 	or  %o5, %o4, %i0
4000a2d4:	80 a4 00 12 	cmp  %l0, %l2
4000a2d8:	08 80 00 03 	bleu  4000a2e4 <_b2d+0x78>
4000a2dc:	a2 10 20 00 	clr  %l1
4000a2e0:	e2 04 3f fc 	ld  [ %l0 + -4 ], %l1
4000a2e4:	82 20 00 08 	neg  %o0, %g1
4000a2e8:	83 34 40 01 	srl  %l1, %g1, %g1
4000a2ec:	9b 2a c0 08 	sll  %o3, %o0, %o5
4000a2f0:	10 80 00 19 	b  4000a354 <_b2d+0xe8>
4000a2f4:	b2 13 40 01 	or  %o5, %g1, %i1
4000a2f8:	a0 04 3f fc 	add  %l0, -4, %l0
4000a2fc:	90 82 3f f5 	addcc  %o0, -11, %o0
4000a300:	12 bf ff ef 	bne  4000a2bc <_b2d+0x50>
4000a304:	d6 04 00 00 	ld  [ %l0 ], %o3
4000a308:	03 0f fc 00 	sethi  %hi(0x3ff00000), %g1
4000a30c:	b0 14 40 01 	or  %l1, %g1, %i0
4000a310:	10 80 00 11 	b  4000a354 <_b2d+0xe8>
4000a314:	b2 10 00 0b 	mov  %o3, %i1
4000a318:	82 10 20 0b 	mov  0xb, %g1
4000a31c:	82 20 40 08 	sub  %g1, %o0, %g1
4000a320:	83 34 40 01 	srl  %l1, %g1, %g1
4000a324:	1b 0f fc 00 	sethi  %hi(0x3ff00000), %o5
4000a328:	b0 10 40 0d 	or  %g1, %o5, %i0
4000a32c:	80 a4 00 12 	cmp  %l0, %l2
4000a330:	08 80 00 03 	bleu  4000a33c <_b2d+0xd0>
4000a334:	98 10 20 00 	clr  %o4
4000a338:	d8 04 3f fc 	ld  [ %l0 + -4 ], %o4
4000a33c:	9a 10 20 0b 	mov  0xb, %o5
4000a340:	9a 23 40 08 	sub  %o5, %o0, %o5
4000a344:	82 02 20 15 	add  %o0, 0x15, %g1
4000a348:	83 2c 40 01 	sll  %l1, %g1, %g1
4000a34c:	9b 33 00 0d 	srl  %o4, %o5, %o5
4000a350:	b2 13 40 01 	or  %o5, %g1, %i1
4000a354:	81 c7 e0 08 	ret 
4000a358:	81 e8 00 00 	restore 

4000a35c <_d2b>:
4000a35c:	9d e3 bf 90 	save  %sp, -112, %sp
4000a360:	90 10 00 18 	mov  %i0, %o0
4000a364:	7f ff fd 2c 	call  40009814 <_Balloc>
4000a368:	92 10 20 01 	mov  1, %o1
4000a36c:	1b 20 00 00 	sethi  %hi(0x80000000), %o5
4000a370:	a0 2e 40 0d 	andn  %i1, %o5, %l0
4000a374:	a2 10 00 1a 	mov  %i2, %l1
4000a378:	03 3f fc 00 	sethi  %hi(0xfff00000), %g1
4000a37c:	98 2e 40 01 	andn  %i1, %g1, %o4
4000a380:	b5 34 20 14 	srl  %l0, 0x14, %i2
4000a384:	b0 10 00 08 	mov  %o0, %i0
4000a388:	80 a6 a0 00 	cmp  %i2, 0
4000a38c:	02 80 00 04 	be  4000a39c <_d2b+0x40>
4000a390:	b2 02 20 14 	add  %o0, 0x14, %i1
4000a394:	03 00 04 00 	sethi  %hi(0x100000), %g1
4000a398:	98 13 00 01 	or  %o4, %g1, %o4
4000a39c:	80 a4 60 00 	cmp  %l1, 0
4000a3a0:	02 80 00 1d 	be  4000a414 <_d2b+0xb8>
4000a3a4:	d8 27 bf f0 	st  %o4, [ %fp + -16 ]
4000a3a8:	e2 27 bf f4 	st  %l1, [ %fp + -12 ]
4000a3ac:	7f ff fd da 	call  40009b14 <_lo0bits>
4000a3b0:	90 07 bf f4 	add  %fp, -12, %o0
4000a3b4:	80 a2 20 00 	cmp  %o0, 0
4000a3b8:	12 80 00 28 	bne  4000a458 <_d2b+0xfc>
4000a3bc:	c2 07 bf f0 	ld  [ %fp + -16 ], %g1
4000a3c0:	c2 07 bf f4 	ld  [ %fp + -12 ], %g1
4000a3c4:	c2 26 20 14 	st  %g1, [ %i0 + 0x14 ]
4000a3c8:	d8 07 bf f0 	ld  [ %fp + -16 ], %o4
4000a3cc:	80 a0 00 0c 	cmp  %g0, %o4
4000a3d0:	82 10 20 02 	mov  2, %g1
4000a3d4:	82 40 7f ff 	addx  %g1, -1, %g1
4000a3d8:	d8 26 60 04 	st  %o4, [ %i1 + 4 ]
4000a3dc:	c2 26 20 10 	st  %g1, [ %i0 + 0x10 ]
4000a3e0:	80 a6 a0 00 	cmp  %i2, 0
4000a3e4:	12 80 00 16 	bne  4000a43c <_d2b+0xe0>
4000a3e8:	a0 10 00 01 	mov  %g1, %l0
4000a3ec:	83 2c 20 02 	sll  %l0, 2, %g1
4000a3f0:	9a 02 3b ce 	add  %o0, -1074, %o5
4000a3f4:	82 00 40 19 	add  %g1, %i1, %g1
4000a3f8:	da 26 c0 00 	st  %o5, [ %i3 ]
4000a3fc:	7f ff fd a6 	call  40009a94 <_hi0bits>
4000a400:	d0 00 7f fc 	ld  [ %g1 + -4 ], %o0
4000a404:	a1 2c 20 05 	sll  %l0, 5, %l0
4000a408:	a0 24 00 08 	sub  %l0, %o0, %l0
4000a40c:	10 80 00 1c 	b  4000a47c <_d2b+0x120>
4000a410:	e0 27 00 00 	st  %l0, [ %i4 ]
4000a414:	7f ff fd c0 	call  40009b14 <_lo0bits>
4000a418:	90 07 bf f0 	add  %fp, -16, %o0
4000a41c:	c2 07 bf f0 	ld  [ %fp + -16 ], %g1
4000a420:	9a 10 20 01 	mov  1, %o5
4000a424:	c2 26 20 14 	st  %g1, [ %i0 + 0x14 ]
4000a428:	da 26 20 10 	st  %o5, [ %i0 + 0x10 ]
4000a42c:	90 02 20 20 	add  %o0, 0x20, %o0
4000a430:	80 a6 a0 00 	cmp  %i2, 0
4000a434:	02 bf ff ee 	be  4000a3ec <_d2b+0x90>
4000a438:	a0 10 20 01 	mov  1, %l0
4000a43c:	82 06 80 08 	add  %i2, %o0, %g1
4000a440:	82 00 7b cd 	add  %g1, -1075, %g1
4000a444:	9a 10 20 35 	mov  0x35, %o5
4000a448:	c2 26 c0 00 	st  %g1, [ %i3 ]
4000a44c:	9a 23 40 08 	sub  %o5, %o0, %o5
4000a450:	10 80 00 0b 	b  4000a47c <_d2b+0x120>
4000a454:	da 27 00 00 	st  %o5, [ %i4 ]
4000a458:	98 20 00 08 	neg  %o0, %o4
4000a45c:	da 07 bf f4 	ld  [ %fp + -12 ], %o5
4000a460:	83 28 40 0c 	sll  %g1, %o4, %g1
4000a464:	82 10 40 0d 	or  %g1, %o5, %g1
4000a468:	c2 26 20 14 	st  %g1, [ %i0 + 0x14 ]
4000a46c:	da 07 bf f0 	ld  [ %fp + -16 ], %o5
4000a470:	99 33 40 08 	srl  %o5, %o0, %o4
4000a474:	10 bf ff d6 	b  4000a3cc <_d2b+0x70>
4000a478:	d8 27 bf f0 	st  %o4, [ %fp + -16 ]
4000a47c:	81 c7 e0 08 	ret 
4000a480:	81 e8 00 00 	restore 

4000a484 <_ratio>:
4000a484:	9d e3 bf 90 	save  %sp, -112, %sp
4000a488:	90 10 00 18 	mov  %i0, %o0
4000a48c:	7f ff ff 78 	call  4000a26c <_b2d>
4000a490:	92 07 bf f4 	add  %fp, -12, %o1
4000a494:	a0 10 00 08 	mov  %o0, %l0
4000a498:	a2 10 00 09 	mov  %o1, %l1
4000a49c:	90 10 00 19 	mov  %i1, %o0
4000a4a0:	7f ff ff 73 	call  4000a26c <_b2d>
4000a4a4:	92 07 bf f0 	add  %fp, -16, %o1
4000a4a8:	da 06 60 10 	ld  [ %i1 + 0x10 ], %o5
4000a4ac:	d8 06 20 10 	ld  [ %i0 + 0x10 ], %o4
4000a4b0:	98 23 00 0d 	sub  %o4, %o5, %o4
4000a4b4:	da 07 bf f0 	ld  [ %fp + -16 ], %o5
4000a4b8:	c2 07 bf f4 	ld  [ %fp + -12 ], %g1
4000a4bc:	82 20 40 0d 	sub  %g1, %o5, %g1
4000a4c0:	99 2b 20 05 	sll  %o4, 5, %o4
4000a4c4:	82 00 40 0c 	add  %g1, %o4, %g1
4000a4c8:	94 10 00 08 	mov  %o0, %o2
4000a4cc:	96 10 00 09 	mov  %o1, %o3
4000a4d0:	80 a0 60 00 	cmp  %g1, 0
4000a4d4:	04 80 00 04 	ble  4000a4e4 <_ratio+0x60>
4000a4d8:	9b 28 60 14 	sll  %g1, 0x14, %o5
4000a4dc:	10 80 00 03 	b  4000a4e8 <_ratio+0x64>
4000a4e0:	a0 03 40 10 	add  %o5, %l0, %l0
4000a4e4:	94 22 80 0d 	sub  %o2, %o5, %o2
4000a4e8:	90 10 00 10 	mov  %l0, %o0
4000a4ec:	7f ff e4 10 	call  4000352c <__divdf3>
4000a4f0:	92 10 00 11 	mov  %l1, %o1
4000a4f4:	b0 10 00 08 	mov  %o0, %i0
4000a4f8:	81 c7 e0 08 	ret 
4000a4fc:	93 e8 00 09 	restore  %g0, %o1, %o1

4000a500 <_mprec_log10>:
4000a500:	9d e3 bf 98 	save  %sp, -104, %sp
4000a504:	03 10 00 33 	sethi  %hi(0x4000cc00), %g1
4000a508:	80 a6 20 17 	cmp  %i0, 0x17
4000a50c:	14 80 00 08 	bg  4000a52c <_mprec_log10+0x2c>
4000a510:	d0 18 60 40 	ldd  [ %g1 + 0x40 ], %o0
4000a514:	03 10 00 33 	sethi  %hi(0x4000cc00), %g1
4000a518:	9b 2e 20 03 	sll  %i0, 3, %o5
4000a51c:	82 10 60 f8 	or  %g1, 0xf8, %g1
4000a520:	98 00 40 0d 	add  %g1, %o5, %o4
4000a524:	10 80 00 0d 	b  4000a558 <_mprec_log10+0x58>
4000a528:	d0 1b 00 00 	ldd  [ %o4 ], %o0
4000a52c:	80 a6 20 00 	cmp  %i0, 0
4000a530:	04 80 00 0a 	ble  4000a558 <_mprec_log10+0x58>
4000a534:	03 10 00 32 	sethi  %hi(0x4000c800), %g1
4000a538:	e0 18 62 b0 	ldd  [ %g1 + 0x2b0 ], %l0	! 4000cab0 <___DTOR_END__+0x390>
4000a53c:	94 10 00 10 	mov  %l0, %o2
4000a540:	7f ff e3 41 	call  40003244 <__muldf3>
4000a544:	96 10 00 11 	mov  %l1, %o3
4000a548:	b0 06 3f ff 	add  %i0, -1, %i0
4000a54c:	80 a6 20 00 	cmp  %i0, 0
4000a550:	14 bf ff fc 	bg  4000a540 <_mprec_log10+0x40>
4000a554:	94 10 00 10 	mov  %l0, %o2
4000a558:	b0 10 00 08 	mov  %o0, %i0
4000a55c:	81 c7 e0 08 	ret 
4000a560:	93 e8 00 09 	restore  %g0, %o1, %o1

4000a564 <_realloc_r>:
4000a564:	9d e3 bf 98 	save  %sp, -104, %sp
4000a568:	a4 10 00 19 	mov  %i1, %l2
4000a56c:	b2 10 00 1a 	mov  %i2, %i1
4000a570:	80 a4 a0 00 	cmp  %l2, 0
4000a574:	02 80 00 aa 	be  4000a81c <_realloc_r+0x2b8>
4000a578:	aa 10 00 18 	mov  %i0, %l5
4000a57c:	7f ff e8 2d 	call  40004630 <__malloc_lock>
4000a580:	90 10 00 18 	mov  %i0, %o0
4000a584:	a0 04 bf f8 	add  %l2, -8, %l0
4000a588:	d2 04 20 04 	ld  [ %l0 + 4 ], %o1
4000a58c:	82 06 a0 0b 	add  %i2, 0xb, %g1
4000a590:	a2 0a 7f fc 	and  %o1, -4, %l1
4000a594:	80 a0 60 16 	cmp  %g1, 0x16
4000a598:	a6 10 00 10 	mov  %l0, %l3
4000a59c:	94 10 00 11 	mov  %l1, %o2
4000a5a0:	08 80 00 5f 	bleu  4000a71c <_realloc_r+0x1b8>
4000a5a4:	b4 08 7f f8 	and  %g1, -8, %i2
4000a5a8:	80 a6 80 19 	cmp  %i2, %i1
4000a5ac:	9a 40 20 00 	addx  %g0, 0, %o5
4000a5b0:	83 36 a0 1f 	srl  %i2, 0x1f, %g1
4000a5b4:	80 90 40 0d 	orcc  %g1, %o5, %g0
4000a5b8:	12 80 01 25 	bne  4000aa4c <_realloc_r+0x4e8>
4000a5bc:	90 10 20 00 	clr  %o0
4000a5c0:	80 a4 40 1a 	cmp  %l1, %i2
4000a5c4:	16 80 00 88 	bge  4000a7e4 <_realloc_r+0x280>
4000a5c8:	9a 24 40 1a 	sub  %l1, %i2, %o5
4000a5cc:	2d 10 00 33 	sethi  %hi(0x4000cc00), %l6
4000a5d0:	9e 15 a3 68 	or  %l6, 0x368, %o7	! 4000cf68 <__malloc_av_>
4000a5d4:	96 04 00 11 	add  %l0, %l1, %o3
4000a5d8:	d0 03 e0 08 	ld  [ %o7 + 8 ], %o0
4000a5dc:	80 a2 00 0b 	cmp  %o0, %o3
4000a5e0:	02 80 00 09 	be  4000a604 <_realloc_r+0xa0>
4000a5e4:	d8 02 e0 04 	ld  [ %o3 + 4 ], %o4
4000a5e8:	82 0b 3f fe 	and  %o4, -2, %g1
4000a5ec:	82 00 40 0b 	add  %g1, %o3, %g1
4000a5f0:	da 00 60 04 	ld  [ %g1 + 4 ], %o5
4000a5f4:	80 8b 60 01 	btst  1, %o5
4000a5f8:	32 80 00 8b 	bne,a   4000a824 <_realloc_r+0x2c0>
4000a5fc:	96 10 20 00 	clr  %o3
4000a600:	80 a2 00 0b 	cmp  %o0, %o3
4000a604:	02 80 00 b0 	be  4000a8c4 <_realloc_r+0x360>
4000a608:	98 0b 3f fc 	and  %o4, -4, %o4
4000a60c:	82 03 00 11 	add  %o4, %l1, %g1
4000a610:	80 a0 40 1a 	cmp  %g1, %i2
4000a614:	36 80 00 a7 	bge,a   4000a8b0 <_realloc_r+0x34c>
4000a618:	d8 02 e0 08 	ld  [ %o3 + 8 ], %o4
4000a61c:	80 8a 60 01 	btst  1, %o1
4000a620:	12 80 00 16 	bne  4000a678 <_realloc_r+0x114>
4000a624:	80 a2 e0 00 	cmp  %o3, 0
4000a628:	c2 04 00 00 	ld  [ %l0 ], %g1
4000a62c:	a8 24 00 01 	sub  %l0, %g1, %l4
4000a630:	da 05 20 04 	ld  [ %l4 + 4 ], %o5
4000a634:	02 80 00 0b 	be  4000a660 <_realloc_r+0xfc>
4000a638:	92 0b 7f fc 	and  %o5, -4, %o1
4000a63c:	82 15 a3 68 	or  %l6, 0x368, %g1
4000a640:	da 00 60 08 	ld  [ %g1 + 8 ], %o5
4000a644:	80 a3 40 0b 	cmp  %o5, %o3
4000a648:	02 80 00 b5 	be  4000a91c <_realloc_r+0x3b8>
4000a64c:	82 03 00 09 	add  %o4, %o1, %g1
4000a650:	82 00 40 11 	add  %g1, %l1, %g1
4000a654:	80 a0 40 1a 	cmp  %g1, %i2
4000a658:	36 80 00 33 	bge,a   4000a724 <_realloc_r+0x1c0>
4000a65c:	d8 02 e0 08 	ld  [ %o3 + 8 ], %o4
4000a660:	80 a5 20 00 	cmp  %l4, 0
4000a664:	02 80 00 05 	be  4000a678 <_realloc_r+0x114>
4000a668:	9a 02 40 11 	add  %o1, %l1, %o5
4000a66c:	80 a3 40 1a 	cmp  %o5, %i2
4000a670:	36 80 00 a4 	bge,a   4000a900 <_realloc_r+0x39c>
4000a674:	d6 05 20 0c 	ld  [ %l4 + 0xc ], %o3
4000a678:	92 10 00 19 	mov  %i1, %o1
4000a67c:	7f ff e6 30 	call  40003f3c <_malloc_r>
4000a680:	90 10 00 15 	mov  %l5, %o0
4000a684:	b0 92 20 00 	orcc  %o0, 0, %i0
4000a688:	02 80 00 ee 	be  4000aa40 <_realloc_r+0x4dc>
4000a68c:	a0 06 3f f8 	add  %i0, -8, %l0
4000a690:	c2 04 e0 04 	ld  [ %l3 + 4 ], %g1
4000a694:	82 08 7f fe 	and  %g1, -2, %g1
4000a698:	82 00 40 13 	add  %g1, %l3, %g1
4000a69c:	80 a4 00 01 	cmp  %l0, %g1
4000a6a0:	02 80 00 de 	be  4000aa18 <_realloc_r+0x4b4>
4000a6a4:	94 04 7f fc 	add  %l1, -4, %o2
4000a6a8:	80 a2 a0 24 	cmp  %o2, 0x24
4000a6ac:	18 80 00 7d 	bgu  4000a8a0 <_realloc_r+0x33c>
4000a6b0:	80 a2 a0 13 	cmp  %o2, 0x13
4000a6b4:	9a 10 00 12 	mov  %l2, %o5
4000a6b8:	08 80 00 0a 	bleu  4000a6e0 <_realloc_r+0x17c>
4000a6bc:	98 10 00 18 	mov  %i0, %o4
4000a6c0:	c2 04 80 00 	ld  [ %l2 ], %g1
4000a6c4:	c2 26 00 00 	st  %g1, [ %i0 ]
4000a6c8:	da 04 a0 04 	ld  [ %l2 + 4 ], %o5
4000a6cc:	da 26 20 04 	st  %o5, [ %i0 + 4 ]
4000a6d0:	80 a2 a0 1b 	cmp  %o2, 0x1b
4000a6d4:	9a 04 a0 08 	add  %l2, 8, %o5
4000a6d8:	18 80 00 63 	bgu  4000a864 <_realloc_r+0x300>
4000a6dc:	98 06 20 08 	add  %i0, 8, %o4
4000a6e0:	c2 03 40 00 	ld  [ %o5 ], %g1
4000a6e4:	c2 23 00 00 	st  %g1, [ %o4 ]
4000a6e8:	9a 03 60 04 	add  %o5, 4, %o5
4000a6ec:	c2 03 40 00 	ld  [ %o5 ], %g1
4000a6f0:	98 03 20 04 	add  %o4, 4, %o4
4000a6f4:	c2 23 00 00 	st  %g1, [ %o4 ]
4000a6f8:	da 03 60 04 	ld  [ %o5 + 4 ], %o5
4000a6fc:	da 23 20 04 	st  %o5, [ %o4 + 4 ]
4000a700:	92 10 00 12 	mov  %l2, %o1
4000a704:	7f ff f8 bd 	call  400089f8 <_free_r>
4000a708:	90 10 00 15 	mov  %l5, %o0
4000a70c:	7f ff e7 cf 	call  40004648 <__malloc_unlock>
4000a710:	90 10 00 15 	mov  %l5, %o0
4000a714:	10 80 00 ce 	b  4000aa4c <_realloc_r+0x4e8>
4000a718:	90 10 00 18 	mov  %i0, %o0
4000a71c:	10 bf ff a3 	b  4000a5a8 <_realloc_r+0x44>
4000a720:	b4 10 20 10 	mov  0x10, %i2
4000a724:	d6 02 e0 0c 	ld  [ %o3 + 0xc ], %o3
4000a728:	d8 22 e0 08 	st  %o4, [ %o3 + 8 ]
4000a72c:	d6 23 20 0c 	st  %o3, [ %o4 + 0xc ]
4000a730:	d6 05 20 0c 	ld  [ %l4 + 0xc ], %o3
4000a734:	d8 05 20 08 	ld  [ %l4 + 8 ], %o4
4000a738:	a0 10 00 14 	mov  %l4, %l0
4000a73c:	94 02 bf fc 	add  %o2, -4, %o2
4000a740:	d8 22 e0 08 	st  %o4, [ %o3 + 8 ]
4000a744:	d6 23 20 0c 	st  %o3, [ %o4 + 0xc ]
4000a748:	a2 10 00 01 	mov  %g1, %l1
4000a74c:	80 a2 a0 24 	cmp  %o2, 0x24
4000a750:	18 80 00 ad 	bgu  4000aa04 <_realloc_r+0x4a0>
4000a754:	b0 04 20 08 	add  %l0, 8, %i0
4000a758:	90 10 00 18 	mov  %i0, %o0
4000a75c:	80 a2 a0 13 	cmp  %o2, 0x13
4000a760:	08 80 00 18 	bleu  4000a7c0 <_realloc_r+0x25c>
4000a764:	9a 10 00 12 	mov  %l2, %o5
4000a768:	c2 04 80 00 	ld  [ %l2 ], %g1
4000a76c:	c2 24 20 08 	st  %g1, [ %l0 + 8 ]
4000a770:	da 04 a0 04 	ld  [ %l2 + 4 ], %o5
4000a774:	da 24 20 0c 	st  %o5, [ %l0 + 0xc ]
4000a778:	80 a2 a0 1b 	cmp  %o2, 0x1b
4000a77c:	9a 04 a0 08 	add  %l2, 8, %o5
4000a780:	08 80 00 10 	bleu  4000a7c0 <_realloc_r+0x25c>
4000a784:	90 04 20 10 	add  %l0, 0x10, %o0
4000a788:	c2 04 a0 08 	ld  [ %l2 + 8 ], %g1
4000a78c:	c2 24 20 10 	st  %g1, [ %l0 + 0x10 ]
4000a790:	da 04 a0 0c 	ld  [ %l2 + 0xc ], %o5
4000a794:	da 24 20 14 	st  %o5, [ %l0 + 0x14 ]
4000a798:	80 a2 a0 23 	cmp  %o2, 0x23
4000a79c:	9a 04 a0 10 	add  %l2, 0x10, %o5
4000a7a0:	08 80 00 08 	bleu  4000a7c0 <_realloc_r+0x25c>
4000a7a4:	90 04 20 18 	add  %l0, 0x18, %o0
4000a7a8:	c2 04 a0 10 	ld  [ %l2 + 0x10 ], %g1
4000a7ac:	c2 24 20 18 	st  %g1, [ %l0 + 0x18 ]
4000a7b0:	da 04 a0 14 	ld  [ %l2 + 0x14 ], %o5
4000a7b4:	da 24 20 1c 	st  %o5, [ %l0 + 0x1c ]
4000a7b8:	9a 04 a0 18 	add  %l2, 0x18, %o5
4000a7bc:	90 04 20 20 	add  %l0, 0x20, %o0
4000a7c0:	c2 03 40 00 	ld  [ %o5 ], %g1
4000a7c4:	c2 22 00 00 	st  %g1, [ %o0 ]
4000a7c8:	9a 03 60 04 	add  %o5, 4, %o5
4000a7cc:	c2 03 40 00 	ld  [ %o5 ], %g1
4000a7d0:	90 02 20 04 	add  %o0, 4, %o0
4000a7d4:	c2 22 00 00 	st  %g1, [ %o0 ]
4000a7d8:	da 03 60 04 	ld  [ %o5 + 4 ], %o5
4000a7dc:	da 22 20 04 	st  %o5, [ %o0 + 4 ]
4000a7e0:	9a 24 40 1a 	sub  %l1, %i2, %o5
4000a7e4:	80 a3 60 0f 	cmp  %o5, 0xf
4000a7e8:	18 80 00 11 	bgu  4000a82c <_realloc_r+0x2c8>
4000a7ec:	c2 04 20 04 	ld  [ %l0 + 4 ], %g1
4000a7f0:	82 08 60 01 	and  %g1, 1, %g1
4000a7f4:	82 10 40 11 	or  %g1, %l1, %g1
4000a7f8:	c2 24 20 04 	st  %g1, [ %l0 + 4 ]
4000a7fc:	9a 04 00 11 	add  %l0, %l1, %o5
4000a800:	c2 03 60 04 	ld  [ %o5 + 4 ], %g1
4000a804:	82 10 60 01 	or  %g1, 1, %g1
4000a808:	c2 23 60 04 	st  %g1, [ %o5 + 4 ]
4000a80c:	7f ff e7 8f 	call  40004648 <__malloc_unlock>
4000a810:	90 10 00 15 	mov  %l5, %o0
4000a814:	10 80 00 8e 	b  4000aa4c <_realloc_r+0x4e8>
4000a818:	90 04 20 08 	add  %l0, 8, %o0
4000a81c:	7f ff e5 c8 	call  40003f3c <_malloc_r>
4000a820:	81 e8 00 00 	restore 
4000a824:	10 bf ff 7e 	b  4000a61c <_realloc_r+0xb8>
4000a828:	98 10 20 00 	clr  %o4
4000a82c:	82 08 60 01 	and  %g1, 1, %g1
4000a830:	82 10 40 1a 	or  %g1, %i2, %g1
4000a834:	c2 24 20 04 	st  %g1, [ %l0 + 4 ]
4000a838:	92 04 00 1a 	add  %l0, %i2, %o1
4000a83c:	82 13 60 01 	or  %o5, 1, %g1
4000a840:	9a 02 40 0d 	add  %o1, %o5, %o5
4000a844:	c2 22 60 04 	st  %g1, [ %o1 + 4 ]
4000a848:	c2 03 60 04 	ld  [ %o5 + 4 ], %g1
4000a84c:	82 10 60 01 	or  %g1, 1, %g1
4000a850:	c2 23 60 04 	st  %g1, [ %o5 + 4 ]
4000a854:	92 02 60 08 	add  %o1, 8, %o1
4000a858:	7f ff f8 68 	call  400089f8 <_free_r>
4000a85c:	90 10 00 15 	mov  %l5, %o0
4000a860:	30 bf ff eb 	b,a   4000a80c <_realloc_r+0x2a8>
4000a864:	c2 04 a0 08 	ld  [ %l2 + 8 ], %g1
4000a868:	c2 26 20 08 	st  %g1, [ %i0 + 8 ]
4000a86c:	da 04 a0 0c 	ld  [ %l2 + 0xc ], %o5
4000a870:	da 26 20 0c 	st  %o5, [ %i0 + 0xc ]
4000a874:	80 a2 a0 23 	cmp  %o2, 0x23
4000a878:	9a 04 a0 10 	add  %l2, 0x10, %o5
4000a87c:	08 bf ff 99 	bleu  4000a6e0 <_realloc_r+0x17c>
4000a880:	98 06 20 10 	add  %i0, 0x10, %o4
4000a884:	c2 04 a0 10 	ld  [ %l2 + 0x10 ], %g1
4000a888:	c2 26 20 10 	st  %g1, [ %i0 + 0x10 ]
4000a88c:	da 04 a0 14 	ld  [ %l2 + 0x14 ], %o5
4000a890:	da 26 20 14 	st  %o5, [ %i0 + 0x14 ]
4000a894:	9a 04 a0 18 	add  %l2, 0x18, %o5
4000a898:	10 bf ff 92 	b  4000a6e0 <_realloc_r+0x17c>
4000a89c:	98 06 20 18 	add  %i0, 0x18, %o4
4000a8a0:	7f ff fb 33 	call  4000956c <memcpy>
4000a8a4:	92 10 00 12 	mov  %l2, %o1
4000a8a8:	10 bf ff 97 	b  4000a704 <_realloc_r+0x1a0>
4000a8ac:	92 10 00 12 	mov  %l2, %o1
4000a8b0:	d6 02 e0 0c 	ld  [ %o3 + 0xc ], %o3
4000a8b4:	d8 22 e0 08 	st  %o4, [ %o3 + 8 ]
4000a8b8:	d6 23 20 0c 	st  %o3, [ %o4 + 0xc ]
4000a8bc:	10 bf ff c9 	b  4000a7e0 <_realloc_r+0x27c>
4000a8c0:	a2 10 00 01 	mov  %g1, %l1
4000a8c4:	9a 03 00 11 	add  %o4, %l1, %o5
4000a8c8:	82 06 a0 10 	add  %i2, 0x10, %g1
4000a8cc:	80 a3 40 01 	cmp  %o5, %g1
4000a8d0:	06 bf ff 54 	bl  4000a620 <_realloc_r+0xbc>
4000a8d4:	80 8a 60 01 	btst  1, %o1
4000a8d8:	82 23 40 1a 	sub  %o5, %i2, %g1
4000a8dc:	98 04 00 1a 	add  %l0, %i2, %o4
4000a8e0:	82 10 60 01 	or  %g1, 1, %g1
4000a8e4:	c2 23 20 04 	st  %g1, [ %o4 + 4 ]
4000a8e8:	da 04 20 04 	ld  [ %l0 + 4 ], %o5
4000a8ec:	9a 0b 60 01 	and  %o5, 1, %o5
4000a8f0:	92 13 40 1a 	or  %o5, %i2, %o1
4000a8f4:	d8 23 e0 08 	st  %o4, [ %o7 + 8 ]
4000a8f8:	10 bf ff c5 	b  4000a80c <_realloc_r+0x2a8>
4000a8fc:	d2 24 20 04 	st  %o1, [ %l0 + 4 ]
4000a900:	d8 05 20 08 	ld  [ %l4 + 8 ], %o4
4000a904:	a0 10 00 14 	mov  %l4, %l0
4000a908:	94 02 bf fc 	add  %o2, -4, %o2
4000a90c:	d8 22 e0 08 	st  %o4, [ %o3 + 8 ]
4000a910:	d6 23 20 0c 	st  %o3, [ %o4 + 0xc ]
4000a914:	10 bf ff 8e 	b  4000a74c <_realloc_r+0x1e8>
4000a918:	a2 10 00 0d 	mov  %o5, %l1
4000a91c:	ae 00 40 11 	add  %g1, %l1, %l7
4000a920:	9a 06 a0 10 	add  %i2, 0x10, %o5
4000a924:	80 a5 c0 0d 	cmp  %l7, %o5
4000a928:	06 bf ff 4f 	bl  4000a664 <_realloc_r+0x100>
4000a92c:	80 a5 20 00 	cmp  %l4, 0
4000a930:	d6 05 20 0c 	ld  [ %l4 + 0xc ], %o3
4000a934:	d8 05 20 08 	ld  [ %l4 + 8 ], %o4
4000a938:	94 02 bf fc 	add  %o2, -4, %o2
4000a93c:	d8 22 e0 08 	st  %o4, [ %o3 + 8 ]
4000a940:	d6 23 20 0c 	st  %o3, [ %o4 + 0xc ]
4000a944:	80 a2 a0 24 	cmp  %o2, 0x24
4000a948:	18 80 00 39 	bgu  4000aa2c <_realloc_r+0x4c8>
4000a94c:	b0 05 20 08 	add  %l4, 8, %i0
4000a950:	80 a2 a0 13 	cmp  %o2, 0x13
4000a954:	9a 10 00 12 	mov  %l2, %o5
4000a958:	08 80 00 18 	bleu  4000a9b8 <_realloc_r+0x454>
4000a95c:	98 10 00 18 	mov  %i0, %o4
4000a960:	c2 04 80 00 	ld  [ %l2 ], %g1
4000a964:	c2 25 20 08 	st  %g1, [ %l4 + 8 ]
4000a968:	da 04 a0 04 	ld  [ %l2 + 4 ], %o5
4000a96c:	da 25 20 0c 	st  %o5, [ %l4 + 0xc ]
4000a970:	80 a2 a0 1b 	cmp  %o2, 0x1b
4000a974:	9a 04 a0 08 	add  %l2, 8, %o5
4000a978:	08 80 00 10 	bleu  4000a9b8 <_realloc_r+0x454>
4000a97c:	98 05 20 10 	add  %l4, 0x10, %o4
4000a980:	c2 04 a0 08 	ld  [ %l2 + 8 ], %g1
4000a984:	c2 25 20 10 	st  %g1, [ %l4 + 0x10 ]
4000a988:	da 04 a0 0c 	ld  [ %l2 + 0xc ], %o5
4000a98c:	da 25 20 14 	st  %o5, [ %l4 + 0x14 ]
4000a990:	80 a2 a0 23 	cmp  %o2, 0x23
4000a994:	9a 04 a0 10 	add  %l2, 0x10, %o5
4000a998:	08 80 00 08 	bleu  4000a9b8 <_realloc_r+0x454>
4000a99c:	98 05 20 18 	add  %l4, 0x18, %o4
4000a9a0:	c2 04 a0 10 	ld  [ %l2 + 0x10 ], %g1
4000a9a4:	c2 25 20 18 	st  %g1, [ %l4 + 0x18 ]
4000a9a8:	da 04 a0 14 	ld  [ %l2 + 0x14 ], %o5
4000a9ac:	da 25 20 1c 	st  %o5, [ %l4 + 0x1c ]
4000a9b0:	9a 04 a0 18 	add  %l2, 0x18, %o5
4000a9b4:	98 05 20 20 	add  %l4, 0x20, %o4
4000a9b8:	c2 03 40 00 	ld  [ %o5 ], %g1
4000a9bc:	c2 23 00 00 	st  %g1, [ %o4 ]
4000a9c0:	9a 03 60 04 	add  %o5, 4, %o5
4000a9c4:	c2 03 40 00 	ld  [ %o5 ], %g1
4000a9c8:	98 03 20 04 	add  %o4, 4, %o4
4000a9cc:	c2 23 00 00 	st  %g1, [ %o4 ]
4000a9d0:	da 03 60 04 	ld  [ %o5 + 4 ], %o5
4000a9d4:	da 23 20 04 	st  %o5, [ %o4 + 4 ]
4000a9d8:	9a 25 c0 1a 	sub  %l7, %i2, %o5
4000a9dc:	9a 13 60 01 	or  %o5, 1, %o5
4000a9e0:	98 05 00 1a 	add  %l4, %i2, %o4
4000a9e4:	da 23 20 04 	st  %o5, [ %o4 + 4 ]
4000a9e8:	c2 05 20 04 	ld  [ %l4 + 4 ], %g1
4000a9ec:	82 08 60 01 	and  %g1, 1, %g1
4000a9f0:	82 10 40 1a 	or  %g1, %i2, %g1
4000a9f4:	9a 15 a3 68 	or  %l6, 0x368, %o5
4000a9f8:	c2 25 20 04 	st  %g1, [ %l4 + 4 ]
4000a9fc:	10 bf ff 44 	b  4000a70c <_realloc_r+0x1a8>
4000aa00:	d8 23 60 08 	st  %o4, [ %o5 + 8 ]
4000aa04:	90 10 00 18 	mov  %i0, %o0
4000aa08:	7f ff fa d9 	call  4000956c <memcpy>
4000aa0c:	92 10 00 12 	mov  %l2, %o1
4000aa10:	10 bf ff 75 	b  4000a7e4 <_realloc_r+0x280>
4000aa14:	9a 24 40 1a 	sub  %l1, %i2, %o5
4000aa18:	c2 04 20 04 	ld  [ %l0 + 4 ], %g1
4000aa1c:	82 08 7f fc 	and  %g1, -4, %g1
4000aa20:	a2 04 40 01 	add  %l1, %g1, %l1
4000aa24:	10 bf ff 6f 	b  4000a7e0 <_realloc_r+0x27c>
4000aa28:	a0 10 00 13 	mov  %l3, %l0
4000aa2c:	92 10 00 12 	mov  %l2, %o1
4000aa30:	7f ff fa cf 	call  4000956c <memcpy>
4000aa34:	90 10 00 18 	mov  %i0, %o0
4000aa38:	10 bf ff e9 	b  4000a9dc <_realloc_r+0x478>
4000aa3c:	9a 25 c0 1a 	sub  %l7, %i2, %o5
4000aa40:	7f ff e7 02 	call  40004648 <__malloc_unlock>
4000aa44:	90 10 00 15 	mov  %l5, %o0
4000aa48:	90 10 20 00 	clr  %o0
4000aa4c:	81 c7 e0 08 	ret 
4000aa50:	91 e8 00 08 	restore  %g0, %o0, %o0

4000aa54 <cleanup_glue>:
4000aa54:	9d e3 bf 98 	save  %sp, -104, %sp
4000aa58:	d2 06 40 00 	ld  [ %i1 ], %o1
4000aa5c:	80 a2 60 00 	cmp  %o1, 0
4000aa60:	12 80 00 04 	bne  4000aa70 <cleanup_glue+0x1c>
4000aa64:	90 10 00 18 	mov  %i0, %o0
4000aa68:	7f ff f7 e4 	call  400089f8 <_free_r>
4000aa6c:	81 e8 00 00 	restore 
4000aa70:	7f ff ff f9 	call  4000aa54 <cleanup_glue>
4000aa74:	01 00 00 00 	nop 
4000aa78:	7f ff f7 e0 	call  400089f8 <_free_r>
4000aa7c:	81 e8 00 00 	restore 
4000aa80:	01 00 00 00 	nop 

4000aa84 <_reclaim_reent>:
4000aa84:	9d e3 bf 98 	save  %sp, -104, %sp
4000aa88:	03 10 00 36 	sethi  %hi(0x4000d800), %g1
4000aa8c:	da 00 61 a8 	ld  [ %g1 + 0x1a8 ], %o5	! 4000d9a8 <_impure_ptr>
4000aa90:	80 a6 00 0d 	cmp  %i0, %o5
4000aa94:	02 80 00 3f 	be  4000ab90 <_reclaim_reent+0x10c>
4000aa98:	01 00 00 00 	nop 
4000aa9c:	d2 06 20 4c 	ld  [ %i0 + 0x4c ], %o1
4000aaa0:	80 a2 60 00 	cmp  %o1, 0
4000aaa4:	12 80 00 20 	bne  4000ab24 <_reclaim_reent+0xa0>
4000aaa8:	a0 10 20 00 	clr  %l0
4000aaac:	d2 06 21 48 	ld  [ %i0 + 0x148 ], %o1
4000aab0:	80 a2 60 00 	cmp  %o1, 0
4000aab4:	22 80 00 0f 	be,a   4000aaf0 <_reclaim_reent+0x6c>
4000aab8:	d2 06 20 54 	ld  [ %i0 + 0x54 ], %o1
4000aabc:	a0 06 21 4c 	add  %i0, 0x14c, %l0
4000aac0:	80 a2 40 10 	cmp  %o1, %l0
4000aac4:	22 80 00 0b 	be,a   4000aaf0 <_reclaim_reent+0x6c>
4000aac8:	d2 06 20 54 	ld  [ %i0 + 0x54 ], %o1
4000aacc:	10 80 00 05 	b  4000aae0 <_reclaim_reent+0x5c>
4000aad0:	b2 10 00 09 	mov  %o1, %i1
4000aad4:	f2 06 40 00 	ld  [ %i1 ], %i1
4000aad8:	7f ff f7 c8 	call  400089f8 <_free_r>
4000aadc:	90 10 00 18 	mov  %i0, %o0
4000aae0:	80 a4 00 19 	cmp  %l0, %i1
4000aae4:	12 bf ff fc 	bne  4000aad4 <_reclaim_reent+0x50>
4000aae8:	92 10 00 19 	mov  %i1, %o1
4000aaec:	d2 06 20 54 	ld  [ %i0 + 0x54 ], %o1
4000aaf0:	80 a2 60 00 	cmp  %o1, 0
4000aaf4:	12 80 00 1f 	bne  4000ab70 <_reclaim_reent+0xec>
4000aaf8:	01 00 00 00 	nop 
4000aafc:	c2 06 20 38 	ld  [ %i0 + 0x38 ], %g1
4000ab00:	80 a0 60 00 	cmp  %g1, 0
4000ab04:	02 80 00 23 	be  4000ab90 <_reclaim_reent+0x10c>
4000ab08:	01 00 00 00 	nop 
4000ab0c:	10 80 00 11 	b  4000ab50 <_reclaim_reent+0xcc>
4000ab10:	c2 06 20 3c 	ld  [ %i0 + 0x3c ], %g1
4000ab14:	80 a4 20 0e 	cmp  %l0, 0xe
4000ab18:	34 80 00 1a 	bg,a   4000ab80 <_reclaim_reent+0xfc>
4000ab1c:	90 10 00 18 	mov  %i0, %o0
4000ab20:	d2 06 20 4c 	ld  [ %i0 + 0x4c ], %o1
4000ab24:	83 2c 20 02 	sll  %l0, 2, %g1
4000ab28:	10 80 00 05 	b  4000ab3c <_reclaim_reent+0xb8>
4000ab2c:	f2 02 40 01 	ld  [ %o1 + %g1 ], %i1
4000ab30:	f2 06 40 00 	ld  [ %i1 ], %i1
4000ab34:	7f ff f7 b1 	call  400089f8 <_free_r>
4000ab38:	90 10 00 18 	mov  %i0, %o0
4000ab3c:	80 a6 60 00 	cmp  %i1, 0
4000ab40:	12 bf ff fc 	bne  4000ab30 <_reclaim_reent+0xac>
4000ab44:	92 10 00 19 	mov  %i1, %o1
4000ab48:	10 bf ff f3 	b  4000ab14 <_reclaim_reent+0x90>
4000ab4c:	a0 04 20 01 	inc  %l0
4000ab50:	9f c0 40 00 	call  %g1
4000ab54:	90 10 00 18 	mov  %i0, %o0
4000ab58:	f2 06 22 e0 	ld  [ %i0 + 0x2e0 ], %i1
4000ab5c:	80 a6 60 00 	cmp  %i1, 0
4000ab60:	02 80 00 0c 	be  4000ab90 <_reclaim_reent+0x10c>
4000ab64:	01 00 00 00 	nop 
4000ab68:	7f ff ff bb 	call  4000aa54 <cleanup_glue>
4000ab6c:	81 e8 00 00 	restore 
4000ab70:	7f ff f7 a2 	call  400089f8 <_free_r>
4000ab74:	90 10 00 18 	mov  %i0, %o0
4000ab78:	10 bf ff e2 	b  4000ab00 <_reclaim_reent+0x7c>
4000ab7c:	c2 06 20 38 	ld  [ %i0 + 0x38 ], %g1
4000ab80:	7f ff f7 9e 	call  400089f8 <_free_r>
4000ab84:	d2 06 20 4c 	ld  [ %i0 + 0x4c ], %o1
4000ab88:	10 bf ff ca 	b  4000aab0 <_reclaim_reent+0x2c>
4000ab8c:	d2 06 21 48 	ld  [ %i0 + 0x148 ], %o1
4000ab90:	81 c7 e0 08 	ret 
4000ab94:	81 e8 00 00 	restore 

4000ab98 <_wrapup_reent>:
4000ab98:	9d e3 bf 98 	save  %sp, -104, %sp
4000ab9c:	80 a6 20 00 	cmp  %i0, 0
4000aba0:	02 80 00 1d 	be  4000ac14 <_wrapup_reent+0x7c>
4000aba4:	03 10 00 36 	sethi  %hi(0x4000d800), %g1
4000aba8:	e4 06 21 48 	ld  [ %i0 + 0x148 ], %l2
4000abac:	80 a4 a0 00 	cmp  %l2, 0
4000abb0:	22 80 00 13 	be,a   4000abfc <_wrapup_reent+0x64>
4000abb4:	c2 06 20 3c 	ld  [ %i0 + 0x3c ], %g1
4000abb8:	e2 04 a0 04 	ld  [ %l2 + 4 ], %l1
4000abbc:	a2 84 7f ff 	addcc  %l1, -1, %l1
4000abc0:	0c 80 00 0a 	bneg  4000abe8 <_wrapup_reent+0x50>
4000abc4:	83 2c 60 02 	sll  %l1, 2, %g1
4000abc8:	82 00 40 12 	add  %g1, %l2, %g1
4000abcc:	a0 00 60 08 	add  %g1, 8, %l0
4000abd0:	c2 04 00 00 	ld  [ %l0 ], %g1
4000abd4:	9f c0 40 00 	call  %g1
4000abd8:	a0 04 3f fc 	add  %l0, -4, %l0
4000abdc:	a2 84 7f ff 	addcc  %l1, -1, %l1
4000abe0:	3c bf ff fd 	bpos,a   4000abd4 <_wrapup_reent+0x3c>
4000abe4:	c2 04 00 00 	ld  [ %l0 ], %g1
4000abe8:	e4 04 80 00 	ld  [ %l2 ], %l2
4000abec:	80 a4 a0 00 	cmp  %l2, 0
4000abf0:	32 bf ff f3 	bne,a   4000abbc <_wrapup_reent+0x24>
4000abf4:	e2 04 a0 04 	ld  [ %l2 + 4 ], %l1
4000abf8:	c2 06 20 3c 	ld  [ %i0 + 0x3c ], %g1
4000abfc:	80 a0 60 00 	cmp  %g1, 0
4000ac00:	02 80 00 07 	be  4000ac1c <_wrapup_reent+0x84>
4000ac04:	01 00 00 00 	nop 
4000ac08:	9f c0 40 00 	call  %g1
4000ac0c:	90 10 00 18 	mov  %i0, %o0
4000ac10:	30 80 00 03 	b,a   4000ac1c <_wrapup_reent+0x84>
4000ac14:	10 bf ff e5 	b  4000aba8 <_wrapup_reent+0x10>
4000ac18:	f0 00 61 a8 	ld  [ %g1 + 0x1a8 ], %i0
4000ac1c:	81 c7 e0 08 	ret 
4000ac20:	81 e8 00 00 	restore 

4000ac24 <isinf>:
4000ac24:	96 20 00 09 	neg  %o1, %o3
4000ac28:	96 12 c0 09 	or  %o3, %o1, %o3
4000ac2c:	03 20 00 00 	sethi  %hi(0x80000000), %g1
4000ac30:	82 2a 00 01 	andn  %o0, %g1, %g1
4000ac34:	97 32 e0 1f 	srl  %o3, 0x1f, %o3
4000ac38:	82 10 40 0b 	or  %g1, %o3, %g1
4000ac3c:	1b 1f fc 00 	sethi  %hi(0x7ff00000), %o5
4000ac40:	82 23 40 01 	sub  %o5, %g1, %g1
4000ac44:	90 20 00 01 	neg  %g1, %o0
4000ac48:	90 12 00 01 	or  %o0, %g1, %o0
4000ac4c:	91 32 20 1f 	srl  %o0, 0x1f, %o0
4000ac50:	82 10 20 01 	mov  1, %g1
4000ac54:	81 c3 e0 08 	retl 
4000ac58:	90 20 40 08 	sub  %g1, %o0, %o0

4000ac5c <isnan>:
4000ac5c:	98 10 00 08 	mov  %o0, %o4
4000ac60:	82 20 00 09 	neg  %o1, %g1
4000ac64:	82 10 40 09 	or  %g1, %o1, %g1
4000ac68:	11 20 00 00 	sethi  %hi(0x80000000), %o0
4000ac6c:	90 2b 00 08 	andn  %o4, %o0, %o0
4000ac70:	83 30 60 1f 	srl  %g1, 0x1f, %g1
4000ac74:	90 12 00 01 	or  %o0, %g1, %o0
4000ac78:	1b 1f fc 00 	sethi  %hi(0x7ff00000), %o5
4000ac7c:	90 23 40 08 	sub  %o5, %o0, %o0
4000ac80:	81 c3 e0 08 	retl 
4000ac84:	91 32 20 1f 	srl  %o0, 0x1f, %o0

4000ac88 <__sread>:
4000ac88:	9d e3 bf 98 	save  %sp, -104, %sp
4000ac8c:	03 10 00 36 	sethi  %hi(0x4000d800), %g1
4000ac90:	d0 00 61 a8 	ld  [ %g1 + 0x1a8 ], %o0	! 4000d9a8 <_impure_ptr>
4000ac94:	94 10 00 19 	mov  %i1, %o2
4000ac98:	96 10 00 1a 	mov  %i2, %o3
4000ac9c:	40 00 01 48 	call  4000b1bc <_read_r>
4000aca0:	d2 56 20 0e 	ldsh  [ %i0 + 0xe ], %o1
4000aca4:	80 a2 20 00 	cmp  %o0, 0
4000aca8:	26 80 00 06 	bl,a   4000acc0 <__sread+0x38>
4000acac:	da 16 20 0c 	lduh  [ %i0 + 0xc ], %o5
4000acb0:	c2 06 20 50 	ld  [ %i0 + 0x50 ], %g1
4000acb4:	82 00 40 08 	add  %g1, %o0, %g1
4000acb8:	10 80 00 05 	b  4000accc <__sread+0x44>
4000acbc:	c2 26 20 50 	st  %g1, [ %i0 + 0x50 ]
4000acc0:	03 00 00 04 	sethi  %hi(0x1000), %g1
4000acc4:	82 2b 40 01 	andn  %o5, %g1, %g1
4000acc8:	c2 36 20 0c 	sth  %g1, [ %i0 + 0xc ]
4000accc:	81 c7 e0 08 	ret 
4000acd0:	91 e8 00 08 	restore  %g0, %o0, %o0

4000acd4 <__swrite>:
4000acd4:	9d e3 bf 98 	save  %sp, -104, %sp
4000acd8:	b6 10 00 1a 	mov  %i2, %i3
4000acdc:	c2 16 20 0c 	lduh  [ %i0 + 0xc ], %g1
4000ace0:	b4 10 00 19 	mov  %i1, %i2
4000ace4:	a0 10 00 18 	mov  %i0, %l0
4000ace8:	94 10 20 00 	clr  %o2
4000acec:	96 10 20 02 	mov  2, %o3
4000acf0:	80 88 61 00 	btst  0x100, %g1
4000acf4:	9a 10 00 01 	mov  %g1, %o5
4000acf8:	12 80 00 09 	bne  4000ad1c <__swrite+0x48>
4000acfc:	33 10 00 36 	sethi  %hi(0x4000d800), %i1
4000ad00:	03 00 00 04 	sethi  %hi(0x1000), %g1
4000ad04:	82 2b 40 01 	andn  %o5, %g1, %g1
4000ad08:	f0 06 61 a8 	ld  [ %i1 + 0x1a8 ], %i0
4000ad0c:	c2 34 20 0c 	sth  %g1, [ %l0 + 0xc ]
4000ad10:	f2 54 20 0e 	ldsh  [ %l0 + 0xe ], %i1
4000ad14:	40 00 00 59 	call  4000ae78 <_write_r>
4000ad18:	81 e8 00 00 	restore 
4000ad1c:	d2 56 20 0e 	ldsh  [ %i0 + 0xe ], %o1
4000ad20:	40 00 01 17 	call  4000b17c <_lseek_r>
4000ad24:	d0 06 61 a8 	ld  [ %i1 + 0x1a8 ], %o0
4000ad28:	da 16 20 0c 	lduh  [ %i0 + 0xc ], %o5
4000ad2c:	03 00 00 04 	sethi  %hi(0x1000), %g1
4000ad30:	82 2b 40 01 	andn  %o5, %g1, %g1
4000ad34:	f0 06 61 a8 	ld  [ %i1 + 0x1a8 ], %i0
4000ad38:	c2 34 20 0c 	sth  %g1, [ %l0 + 0xc ]
4000ad3c:	f2 54 20 0e 	ldsh  [ %l0 + 0xe ], %i1
4000ad40:	40 00 00 4e 	call  4000ae78 <_write_r>
4000ad44:	81 e8 00 00 	restore 
4000ad48:	01 00 00 00 	nop 

4000ad4c <__sseek>:
4000ad4c:	9d e3 bf 98 	save  %sp, -104, %sp
4000ad50:	03 10 00 36 	sethi  %hi(0x4000d800), %g1
4000ad54:	d0 00 61 a8 	ld  [ %g1 + 0x1a8 ], %o0	! 4000d9a8 <_impure_ptr>
4000ad58:	94 10 00 19 	mov  %i1, %o2
4000ad5c:	96 10 00 1a 	mov  %i2, %o3
4000ad60:	40 00 01 07 	call  4000b17c <_lseek_r>
4000ad64:	d2 56 20 0e 	ldsh  [ %i0 + 0xe ], %o1
4000ad68:	80 a2 3f ff 	cmp  %o0, -1
4000ad6c:	02 80 00 07 	be  4000ad88 <__sseek+0x3c>
4000ad70:	1b 00 00 04 	sethi  %hi(0x1000), %o5
4000ad74:	c2 16 20 0c 	lduh  [ %i0 + 0xc ], %g1
4000ad78:	82 10 40 0d 	or  %g1, %o5, %g1
4000ad7c:	c2 36 20 0c 	sth  %g1, [ %i0 + 0xc ]
4000ad80:	10 80 00 06 	b  4000ad98 <__sseek+0x4c>
4000ad84:	d0 26 20 50 	st  %o0, [ %i0 + 0x50 ]
4000ad88:	da 16 20 0c 	lduh  [ %i0 + 0xc ], %o5
4000ad8c:	03 00 00 04 	sethi  %hi(0x1000), %g1
4000ad90:	82 2b 40 01 	andn  %o5, %g1, %g1
4000ad94:	c2 36 20 0c 	sth  %g1, [ %i0 + 0xc ]
4000ad98:	81 c7 e0 08 	ret 
4000ad9c:	91 e8 00 08 	restore  %g0, %o0, %o0

4000ada0 <__sclose>:
4000ada0:	d2 52 20 0e 	ldsh  [ %o0 + 0xe ], %o1
4000ada4:	03 10 00 36 	sethi  %hi(0x4000d800), %g1
4000ada8:	d0 00 61 a8 	ld  [ %g1 + 0x1a8 ], %o0	! 4000d9a8 <_impure_ptr>
4000adac:	82 13 c0 00 	mov  %o7, %g1
4000adb0:	40 00 00 6b 	call  4000af5c <_close_r>
4000adb4:	9e 10 40 00 	mov  %g1, %o7
4000adb8:	01 00 00 00 	nop 

4000adbc <strcmp>:
4000adbc:	82 12 00 09 	or  %o0, %o1, %g1
4000adc0:	80 88 60 03 	btst  3, %g1
4000adc4:	32 80 00 08 	bne,a   4000ade4 <strcmp+0x28>
4000adc8:	d8 4a 00 00 	ldsb  [ %o0 ], %o4
4000adcc:	d8 02 00 00 	ld  [ %o0 ], %o4
4000add0:	c2 02 40 00 	ld  [ %o1 ], %g1
4000add4:	80 a3 00 01 	cmp  %o4, %g1
4000add8:	02 80 00 15 	be  4000ae2c <strcmp+0x70>
4000addc:	03 3f bf bf 	sethi  %hi(0xfefefc00), %g1
4000ade0:	d8 4a 00 00 	ldsb  [ %o0 ], %o4
4000ade4:	80 a3 20 00 	cmp  %o4, 0
4000ade8:	02 80 00 0c 	be  4000ae18 <strcmp+0x5c>
4000adec:	da 0a 00 00 	ldub  [ %o0 ], %o5
4000adf0:	c2 4a 40 00 	ldsb  [ %o1 ], %g1
4000adf4:	80 a3 00 01 	cmp  %o4, %g1
4000adf8:	12 80 00 09 	bne  4000ae1c <strcmp+0x60>
4000adfc:	c2 0a 40 00 	ldub  [ %o1 ], %g1
4000ae00:	90 02 20 01 	inc  %o0
4000ae04:	d8 4a 00 00 	ldsb  [ %o0 ], %o4
4000ae08:	92 02 60 01 	inc  %o1
4000ae0c:	80 a3 20 00 	cmp  %o4, 0
4000ae10:	12 bf ff f8 	bne  4000adf0 <strcmp+0x34>
4000ae14:	da 0a 00 00 	ldub  [ %o0 ], %o5
4000ae18:	c2 0a 40 00 	ldub  [ %o1 ], %g1
4000ae1c:	9a 0b 60 ff 	and  %o5, 0xff, %o5
4000ae20:	82 08 60 ff 	and  %g1, 0xff, %g1
4000ae24:	10 80 00 13 	b  4000ae70 <strcmp+0xb4>
4000ae28:	90 23 40 01 	sub  %o5, %g1, %o0
4000ae2c:	1b 20 20 20 	sethi  %hi(0x80808000), %o5
4000ae30:	96 10 62 ff 	or  %g1, 0x2ff, %o3
4000ae34:	9a 13 60 80 	or  %o5, 0x80, %o5
4000ae38:	82 03 00 0b 	add  %o4, %o3, %g1
4000ae3c:	82 28 40 0c 	andn  %g1, %o4, %g1
4000ae40:	90 02 20 04 	add  %o0, 4, %o0
4000ae44:	80 88 40 0d 	btst  %g1, %o5
4000ae48:	12 80 00 09 	bne  4000ae6c <strcmp+0xb0>
4000ae4c:	92 02 60 04 	add  %o1, 4, %o1
4000ae50:	d8 02 00 00 	ld  [ %o0 ], %o4
4000ae54:	c2 02 40 00 	ld  [ %o1 ], %g1
4000ae58:	80 a3 00 01 	cmp  %o4, %g1
4000ae5c:	02 bf ff f8 	be  4000ae3c <strcmp+0x80>
4000ae60:	82 03 00 0b 	add  %o4, %o3, %g1
4000ae64:	10 bf ff e0 	b  4000ade4 <strcmp+0x28>
4000ae68:	d8 4a 00 00 	ldsb  [ %o0 ], %o4
4000ae6c:	90 10 20 00 	clr  %o0
4000ae70:	81 c3 e0 08 	retl 
4000ae74:	01 00 00 00 	nop 

4000ae78 <_write_r>:
4000ae78:	9d e3 bf 98 	save  %sp, -104, %sp
4000ae7c:	21 10 00 93 	sethi  %hi(0x40024c00), %l0
4000ae80:	c0 24 23 30 	clr  [ %l0 + 0x330 ]	! 40024f30 <errno>
4000ae84:	90 10 00 19 	mov  %i1, %o0
4000ae88:	92 10 00 1a 	mov  %i2, %o1
4000ae8c:	40 00 02 13 	call  4000b6d8 <write>
4000ae90:	94 10 00 1b 	mov  %i3, %o2
4000ae94:	80 a2 3f ff 	cmp  %o0, -1
4000ae98:	12 80 00 06 	bne  4000aeb0 <_write_r+0x38>
4000ae9c:	c2 04 23 30 	ld  [ %l0 + 0x330 ], %g1
4000aea0:	80 a0 60 00 	cmp  %g1, 0
4000aea4:	02 80 00 03 	be  4000aeb0 <_write_r+0x38>
4000aea8:	01 00 00 00 	nop 
4000aeac:	c2 26 00 00 	st  %g1, [ %i0 ]
4000aeb0:	81 c7 e0 08 	ret 
4000aeb4:	91 e8 00 08 	restore  %g0, %o0, %o0

4000aeb8 <_calloc_r>:
4000aeb8:	9d e3 bf 98 	save  %sp, -104, %sp
4000aebc:	92 5e 40 1a 	smul  %i1, %i2, %o1
4000aec0:	7f ff e4 1f 	call  40003f3c <_malloc_r>
4000aec4:	90 10 00 18 	mov  %i0, %o0
4000aec8:	b4 92 20 00 	orcc  %o0, 0, %i2
4000aecc:	02 80 00 22 	be  4000af54 <_calloc_r+0x9c>
4000aed0:	b0 10 20 00 	clr  %i0
4000aed4:	c2 06 bf fc 	ld  [ %i2 + -4 ], %g1
4000aed8:	82 08 7f fc 	and  %g1, -4, %g1
4000aedc:	82 00 7f fc 	add  %g1, -4, %g1
4000aee0:	80 a0 60 24 	cmp  %g1, 0x24
4000aee4:	94 10 00 01 	mov  %g1, %o2
4000aee8:	9a 10 00 1a 	mov  %i2, %o5
4000aeec:	18 80 00 18 	bgu  4000af4c <_calloc_r+0x94>
4000aef0:	92 10 20 00 	clr  %o1
4000aef4:	80 a0 60 13 	cmp  %g1, 0x13
4000aef8:	28 80 00 10 	bleu,a   4000af38 <_calloc_r+0x80>
4000aefc:	c0 23 40 00 	clr  [ %o5 ]
4000af00:	c0 26 80 00 	clr  [ %i2 ]
4000af04:	c0 26 a0 04 	clr  [ %i2 + 4 ]
4000af08:	80 a0 60 1b 	cmp  %g1, 0x1b
4000af0c:	08 80 00 0a 	bleu  4000af34 <_calloc_r+0x7c>
4000af10:	9a 06 a0 08 	add  %i2, 8, %o5
4000af14:	80 a0 60 23 	cmp  %g1, 0x23
4000af18:	c0 26 a0 08 	clr  [ %i2 + 8 ]
4000af1c:	c0 26 a0 0c 	clr  [ %i2 + 0xc ]
4000af20:	08 80 00 05 	bleu  4000af34 <_calloc_r+0x7c>
4000af24:	9a 06 a0 10 	add  %i2, 0x10, %o5
4000af28:	c0 26 a0 10 	clr  [ %i2 + 0x10 ]
4000af2c:	c0 26 a0 14 	clr  [ %i2 + 0x14 ]
4000af30:	9a 06 a0 18 	add  %i2, 0x18, %o5
4000af34:	c0 23 40 00 	clr  [ %o5 ]
4000af38:	9a 03 60 04 	add  %o5, 4, %o5
4000af3c:	c0 23 60 04 	clr  [ %o5 + 4 ]
4000af40:	c0 23 40 00 	clr  [ %o5 ]
4000af44:	10 80 00 04 	b  4000af54 <_calloc_r+0x9c>
4000af48:	b0 10 00 1a 	mov  %i2, %i0
4000af4c:	7f ff fa 06 	call  40009764 <memset>
4000af50:	b0 10 00 1a 	mov  %i2, %i0
4000af54:	81 c7 e0 08 	ret 
4000af58:	81 e8 00 00 	restore 

4000af5c <_close_r>:
4000af5c:	9d e3 bf 98 	save  %sp, -104, %sp
4000af60:	21 10 00 93 	sethi  %hi(0x40024c00), %l0
4000af64:	c0 24 23 30 	clr  [ %l0 + 0x330 ]	! 40024f30 <errno>
4000af68:	40 00 01 a6 	call  4000b600 <close>
4000af6c:	90 10 00 19 	mov  %i1, %o0
4000af70:	80 a2 3f ff 	cmp  %o0, -1
4000af74:	12 80 00 06 	bne  4000af8c <_close_r+0x30>
4000af78:	c2 04 23 30 	ld  [ %l0 + 0x330 ], %g1
4000af7c:	80 a0 60 00 	cmp  %g1, 0
4000af80:	02 80 00 03 	be  4000af8c <_close_r+0x30>
4000af84:	01 00 00 00 	nop 
4000af88:	c2 26 00 00 	st  %g1, [ %i0 ]
4000af8c:	81 c7 e0 08 	ret 
4000af90:	91 e8 00 08 	restore  %g0, %o0, %o0

4000af94 <_fclose_r>:
4000af94:	9d e3 bf 98 	save  %sp, -104, %sp
4000af98:	a2 10 00 18 	mov  %i0, %l1
4000af9c:	80 a6 60 00 	cmp  %i1, 0
4000afa0:	02 80 00 5f 	be  4000b11c <_fclose_r+0x188>
4000afa4:	90 10 20 00 	clr  %o0
4000afa8:	7f ff f5 e1 	call  4000872c <__sfp_lock_acquire>
4000afac:	01 00 00 00 	nop 
4000afb0:	c2 16 60 0c 	lduh  [ %i1 + 0xc ], %g1
4000afb4:	80 88 62 00 	btst  0x200, %g1
4000afb8:	02 80 00 3b 	be  4000b0a4 <_fclose_r+0x110>
4000afbc:	01 00 00 00 	nop 
4000afc0:	21 10 00 36 	sethi  %hi(0x4000d800), %l0
4000afc4:	d0 04 21 a8 	ld  [ %l0 + 0x1a8 ], %o0	! 4000d9a8 <_impure_ptr>
4000afc8:	80 a2 20 00 	cmp  %o0, 0
4000afcc:	22 80 00 07 	be,a   4000afe8 <_fclose_r+0x54>
4000afd0:	c2 16 60 0c 	lduh  [ %i1 + 0xc ], %g1
4000afd4:	c2 02 20 38 	ld  [ %o0 + 0x38 ], %g1
4000afd8:	80 a0 60 00 	cmp  %g1, 0
4000afdc:	02 80 00 39 	be  4000b0c0 <_fclose_r+0x12c>
4000afe0:	01 00 00 00 	nop 
4000afe4:	c2 16 60 0c 	lduh  [ %i1 + 0xc ], %g1
4000afe8:	83 28 60 10 	sll  %g1, 0x10, %g1
4000afec:	80 a0 60 00 	cmp  %g1, 0
4000aff0:	12 80 00 09 	bne  4000b014 <_fclose_r+0x80>
4000aff4:	83 30 60 10 	srl  %g1, 0x10, %g1
4000aff8:	80 88 62 00 	btst  0x200, %g1
4000affc:	02 80 00 2e 	be  4000b0b4 <_fclose_r+0x120>
4000b000:	01 00 00 00 	nop 
4000b004:	7f ff f5 d0 	call  40008744 <__sfp_lock_release>
4000b008:	01 00 00 00 	nop 
4000b00c:	10 80 00 44 	b  4000b11c <_fclose_r+0x188>
4000b010:	90 10 20 00 	clr  %o0	! 0 <_trap_table-0x40000000>
4000b014:	80 88 60 08 	btst  8, %g1
4000b018:	12 80 00 35 	bne  4000b0ec <_fclose_r+0x158>
4000b01c:	b0 10 20 00 	clr  %i0
4000b020:	c2 06 60 2c 	ld  [ %i1 + 0x2c ], %g1
4000b024:	80 a0 60 00 	cmp  %g1, 0
4000b028:	12 80 00 2a 	bne  4000b0d0 <_fclose_r+0x13c>
4000b02c:	01 00 00 00 	nop 
4000b030:	c2 16 60 0c 	lduh  [ %i1 + 0xc ], %g1
4000b034:	80 88 60 80 	btst  0x80, %g1
4000b038:	12 80 00 31 	bne  4000b0fc <_fclose_r+0x168>
4000b03c:	90 10 00 11 	mov  %l1, %o0
4000b040:	d2 06 60 30 	ld  [ %i1 + 0x30 ], %o1
4000b044:	80 a2 60 00 	cmp  %o1, 0
4000b048:	22 80 00 0a 	be,a   4000b070 <_fclose_r+0xdc>
4000b04c:	d2 06 60 44 	ld  [ %i1 + 0x44 ], %o1
4000b050:	82 06 60 40 	add  %i1, 0x40, %g1
4000b054:	80 a2 40 01 	cmp  %o1, %g1
4000b058:	22 80 00 05 	be,a   4000b06c <_fclose_r+0xd8>
4000b05c:	c0 26 60 30 	clr  [ %i1 + 0x30 ]
4000b060:	7f ff f6 66 	call  400089f8 <_free_r>
4000b064:	d0 04 21 a8 	ld  [ %l0 + 0x1a8 ], %o0
4000b068:	c0 26 60 30 	clr  [ %i1 + 0x30 ]
4000b06c:	d2 06 60 44 	ld  [ %i1 + 0x44 ], %o1
4000b070:	80 a2 60 00 	cmp  %o1, 0
4000b074:	12 80 00 26 	bne  4000b10c <_fclose_r+0x178>
4000b078:	01 00 00 00 	nop 
4000b07c:	a0 06 60 58 	add  %i1, 0x58, %l0
4000b080:	c0 36 60 0c 	clrh  [ %i1 + 0xc ]
4000b084:	40 00 02 34 	call  4000b954 <___st_pthread_mutex_unlock>
4000b088:	90 10 00 10 	mov  %l0, %o0
4000b08c:	40 00 02 0e 	call  4000b8c4 <___st_pthread_mutex_destroy>
4000b090:	90 10 00 10 	mov  %l0, %o0
4000b094:	7f ff f5 ac 	call  40008744 <__sfp_lock_release>
4000b098:	01 00 00 00 	nop 
4000b09c:	10 80 00 20 	b  4000b11c <_fclose_r+0x188>
4000b0a0:	90 10 00 18 	mov  %i0, %o0
4000b0a4:	40 00 02 14 	call  4000b8f4 <___st_pthread_mutex_lock>
4000b0a8:	90 06 60 58 	add  %i1, 0x58, %o0
4000b0ac:	10 bf ff c6 	b  4000afc4 <_fclose_r+0x30>
4000b0b0:	21 10 00 36 	sethi  %hi(0x4000d800), %l0
4000b0b4:	40 00 02 28 	call  4000b954 <___st_pthread_mutex_unlock>
4000b0b8:	90 06 60 58 	add  %i1, 0x58, %o0
4000b0bc:	30 bf ff d2 	b,a   4000b004 <_fclose_r+0x70>
4000b0c0:	7f ff f5 74 	call  40008690 <__sinit>
4000b0c4:	01 00 00 00 	nop 
4000b0c8:	10 bf ff c8 	b  4000afe8 <_fclose_r+0x54>
4000b0cc:	c2 16 60 0c 	lduh  [ %i1 + 0xc ], %g1
4000b0d0:	9f c0 40 00 	call  %g1
4000b0d4:	d0 06 60 1c 	ld  [ %i1 + 0x1c ], %o0
4000b0d8:	80 a2 20 00 	cmp  %o0, 0
4000b0dc:	26 bf ff d5 	bl,a   4000b030 <_fclose_r+0x9c>
4000b0e0:	b0 10 3f ff 	mov  -1, %i0
4000b0e4:	10 bf ff d4 	b  4000b034 <_fclose_r+0xa0>
4000b0e8:	c2 16 60 0c 	lduh  [ %i1 + 0xc ], %g1
4000b0ec:	7f ff f4 d7 	call  40008448 <fflush>
4000b0f0:	90 10 00 19 	mov  %i1, %o0
4000b0f4:	10 bf ff cb 	b  4000b020 <_fclose_r+0x8c>
4000b0f8:	b0 10 00 08 	mov  %o0, %i0
4000b0fc:	7f ff f6 3f 	call  400089f8 <_free_r>
4000b100:	d2 06 60 10 	ld  [ %i1 + 0x10 ], %o1
4000b104:	10 bf ff d0 	b  4000b044 <_fclose_r+0xb0>
4000b108:	d2 06 60 30 	ld  [ %i1 + 0x30 ], %o1
4000b10c:	7f ff f6 3b 	call  400089f8 <_free_r>
4000b110:	d0 04 21 a8 	ld  [ %l0 + 0x1a8 ], %o0
4000b114:	10 bf ff da 	b  4000b07c <_fclose_r+0xe8>
4000b118:	c0 26 60 44 	clr  [ %i1 + 0x44 ]
4000b11c:	81 c7 e0 08 	ret 
4000b120:	91 e8 00 08 	restore  %g0, %o0, %o0

4000b124 <fclose>:
4000b124:	92 10 00 08 	mov  %o0, %o1
4000b128:	03 10 00 36 	sethi  %hi(0x4000d800), %g1
4000b12c:	d0 00 61 a8 	ld  [ %g1 + 0x1a8 ], %o0	! 4000d9a8 <_impure_ptr>
4000b130:	82 13 c0 00 	mov  %o7, %g1
4000b134:	7f ff ff 98 	call  4000af94 <_fclose_r>
4000b138:	9e 10 40 00 	mov  %g1, %o7
4000b13c:	01 00 00 00 	nop 

4000b140 <_fstat_r>:
4000b140:	9d e3 bf 98 	save  %sp, -104, %sp
4000b144:	21 10 00 93 	sethi  %hi(0x40024c00), %l0
4000b148:	c0 24 23 30 	clr  [ %l0 + 0x330 ]	! 40024f30 <errno>
4000b14c:	90 10 00 19 	mov  %i1, %o0
4000b150:	40 00 01 2e 	call  4000b608 <fstat>
4000b154:	92 10 00 1a 	mov  %i2, %o1
4000b158:	80 a2 3f ff 	cmp  %o0, -1
4000b15c:	12 80 00 06 	bne  4000b174 <_fstat_r+0x34>
4000b160:	c2 04 23 30 	ld  [ %l0 + 0x330 ], %g1
4000b164:	80 a0 60 00 	cmp  %g1, 0
4000b168:	02 80 00 03 	be  4000b174 <_fstat_r+0x34>
4000b16c:	01 00 00 00 	nop 
4000b170:	c2 26 00 00 	st  %g1, [ %i0 ]
4000b174:	81 c7 e0 08 	ret 
4000b178:	91 e8 00 08 	restore  %g0, %o0, %o0

4000b17c <_lseek_r>:
4000b17c:	9d e3 bf 98 	save  %sp, -104, %sp
4000b180:	21 10 00 93 	sethi  %hi(0x40024c00), %l0
4000b184:	c0 24 23 30 	clr  [ %l0 + 0x330 ]	! 40024f30 <errno>
4000b188:	90 10 00 19 	mov  %i1, %o0
4000b18c:	92 10 00 1a 	mov  %i2, %o1
4000b190:	40 00 01 25 	call  4000b624 <lseek>
4000b194:	94 10 00 1b 	mov  %i3, %o2
4000b198:	80 a2 3f ff 	cmp  %o0, -1
4000b19c:	12 80 00 06 	bne  4000b1b4 <_lseek_r+0x38>
4000b1a0:	c2 04 23 30 	ld  [ %l0 + 0x330 ], %g1
4000b1a4:	80 a0 60 00 	cmp  %g1, 0
4000b1a8:	02 80 00 03 	be  4000b1b4 <_lseek_r+0x38>
4000b1ac:	01 00 00 00 	nop 
4000b1b0:	c2 26 00 00 	st  %g1, [ %i0 ]
4000b1b4:	81 c7 e0 08 	ret 
4000b1b8:	91 e8 00 08 	restore  %g0, %o0, %o0

4000b1bc <_read_r>:
4000b1bc:	9d e3 bf 98 	save  %sp, -104, %sp
4000b1c0:	21 10 00 93 	sethi  %hi(0x40024c00), %l0
4000b1c4:	c0 24 23 30 	clr  [ %l0 + 0x330 ]	! 40024f30 <errno>
4000b1c8:	90 10 00 19 	mov  %i1, %o0
4000b1cc:	92 10 00 1a 	mov  %i2, %o1
4000b1d0:	40 00 01 1c 	call  4000b640 <read>
4000b1d4:	94 10 00 1b 	mov  %i3, %o2
4000b1d8:	80 a2 3f ff 	cmp  %o0, -1
4000b1dc:	12 80 00 06 	bne  4000b1f4 <_read_r+0x38>
4000b1e0:	c2 04 23 30 	ld  [ %l0 + 0x330 ], %g1
4000b1e4:	80 a0 60 00 	cmp  %g1, 0
4000b1e8:	02 80 00 03 	be  4000b1f4 <_read_r+0x38>
4000b1ec:	01 00 00 00 	nop 
4000b1f0:	c2 26 00 00 	st  %g1, [ %i0 ]
4000b1f4:	81 c7 e0 08 	ret 
4000b1f8:	91 e8 00 08 	restore  %g0, %o0, %o0

4000b1fc <__eqdf2>:
4000b1fc:	9d e3 bf 58 	save  %sp, -168, %sp
4000b200:	a0 07 bf e0 	add  %fp, -32, %l0
4000b204:	f0 3f bf c0 	std  %i0, [ %fp + -64 ]
4000b208:	f4 3f bf b8 	std  %i2, [ %fp + -72 ]
4000b20c:	90 07 bf c0 	add  %fp, -64, %o0
4000b210:	7f ff e2 ba 	call  40003cf8 <__unpack_d>
4000b214:	92 10 00 10 	mov  %l0, %o1
4000b218:	b6 07 bf c8 	add  %fp, -56, %i3
4000b21c:	90 07 bf b8 	add  %fp, -72, %o0
4000b220:	7f ff e2 b6 	call  40003cf8 <__unpack_d>
4000b224:	92 10 00 1b 	mov  %i3, %o1
4000b228:	c2 07 bf e0 	ld  [ %fp + -32 ], %g1
4000b22c:	80 a0 60 01 	cmp  %g1, 1
4000b230:	08 80 00 0a 	bleu  4000b258 <__eqdf2+0x5c>
4000b234:	b0 10 20 01 	mov  1, %i0
4000b238:	c2 07 bf c8 	ld  [ %fp + -56 ], %g1
4000b23c:	90 10 00 10 	mov  %l0, %o0
4000b240:	80 a0 60 01 	cmp  %g1, 1
4000b244:	08 80 00 05 	bleu  4000b258 <__eqdf2+0x5c>
4000b248:	92 10 00 1b 	mov  %i3, %o1
4000b24c:	40 00 00 90 	call  4000b48c <__fpcmp_parts_d>
4000b250:	01 00 00 00 	nop 
4000b254:	b0 10 00 08 	mov  %o0, %i0
4000b258:	81 c7 e0 08 	ret 
4000b25c:	81 e8 00 00 	restore 

4000b260 <__nedf2>:
4000b260:	9d e3 bf 58 	save  %sp, -168, %sp
4000b264:	a0 07 bf e0 	add  %fp, -32, %l0
4000b268:	f0 3f bf c0 	std  %i0, [ %fp + -64 ]
4000b26c:	f4 3f bf b8 	std  %i2, [ %fp + -72 ]
4000b270:	90 07 bf c0 	add  %fp, -64, %o0
4000b274:	7f ff e2 a1 	call  40003cf8 <__unpack_d>
4000b278:	92 10 00 10 	mov  %l0, %o1
4000b27c:	b6 07 bf c8 	add  %fp, -56, %i3
4000b280:	90 07 bf b8 	add  %fp, -72, %o0
4000b284:	7f ff e2 9d 	call  40003cf8 <__unpack_d>
4000b288:	92 10 00 1b 	mov  %i3, %o1
4000b28c:	c2 07 bf e0 	ld  [ %fp + -32 ], %g1
4000b290:	80 a0 60 01 	cmp  %g1, 1
4000b294:	08 80 00 0a 	bleu  4000b2bc <__nedf2+0x5c>
4000b298:	b0 10 20 01 	mov  1, %i0
4000b29c:	c2 07 bf c8 	ld  [ %fp + -56 ], %g1
4000b2a0:	90 10 00 10 	mov  %l0, %o0
4000b2a4:	80 a0 60 01 	cmp  %g1, 1
4000b2a8:	08 80 00 05 	bleu  4000b2bc <__nedf2+0x5c>
4000b2ac:	92 10 00 1b 	mov  %i3, %o1
4000b2b0:	40 00 00 77 	call  4000b48c <__fpcmp_parts_d>
4000b2b4:	01 00 00 00 	nop 
4000b2b8:	b0 10 00 08 	mov  %o0, %i0
4000b2bc:	81 c7 e0 08 	ret 
4000b2c0:	81 e8 00 00 	restore 

4000b2c4 <__gtdf2>:
4000b2c4:	9d e3 bf 58 	save  %sp, -168, %sp
4000b2c8:	a0 07 bf e0 	add  %fp, -32, %l0
4000b2cc:	f0 3f bf c0 	std  %i0, [ %fp + -64 ]
4000b2d0:	f4 3f bf b8 	std  %i2, [ %fp + -72 ]
4000b2d4:	90 07 bf c0 	add  %fp, -64, %o0
4000b2d8:	7f ff e2 88 	call  40003cf8 <__unpack_d>
4000b2dc:	92 10 00 10 	mov  %l0, %o1
4000b2e0:	b6 07 bf c8 	add  %fp, -56, %i3
4000b2e4:	90 07 bf b8 	add  %fp, -72, %o0
4000b2e8:	7f ff e2 84 	call  40003cf8 <__unpack_d>
4000b2ec:	92 10 00 1b 	mov  %i3, %o1
4000b2f0:	c2 07 bf e0 	ld  [ %fp + -32 ], %g1
4000b2f4:	80 a0 60 01 	cmp  %g1, 1
4000b2f8:	08 80 00 0a 	bleu  4000b320 <__gtdf2+0x5c>
4000b2fc:	b0 10 3f ff 	mov  -1, %i0
4000b300:	c2 07 bf c8 	ld  [ %fp + -56 ], %g1
4000b304:	90 10 00 10 	mov  %l0, %o0
4000b308:	80 a0 60 01 	cmp  %g1, 1
4000b30c:	08 80 00 05 	bleu  4000b320 <__gtdf2+0x5c>
4000b310:	92 10 00 1b 	mov  %i3, %o1
4000b314:	40 00 00 5e 	call  4000b48c <__fpcmp_parts_d>
4000b318:	01 00 00 00 	nop 
4000b31c:	b0 10 00 08 	mov  %o0, %i0
4000b320:	81 c7 e0 08 	ret 
4000b324:	81 e8 00 00 	restore 

4000b328 <__gedf2>:
4000b328:	9d e3 bf 58 	save  %sp, -168, %sp
4000b32c:	a0 07 bf e0 	add  %fp, -32, %l0
4000b330:	f0 3f bf c0 	std  %i0, [ %fp + -64 ]
4000b334:	f4 3f bf b8 	std  %i2, [ %fp + -72 ]
4000b338:	90 07 bf c0 	add  %fp, -64, %o0
4000b33c:	7f ff e2 6f 	call  40003cf8 <__unpack_d>
4000b340:	92 10 00 10 	mov  %l0, %o1
4000b344:	b6 07 bf c8 	add  %fp, -56, %i3
4000b348:	90 07 bf b8 	add  %fp, -72, %o0
4000b34c:	7f ff e2 6b 	call  40003cf8 <__unpack_d>
4000b350:	92 10 00 1b 	mov  %i3, %o1
4000b354:	c2 07 bf e0 	ld  [ %fp + -32 ], %g1
4000b358:	80 a0 60 01 	cmp  %g1, 1
4000b35c:	08 80 00 0a 	bleu  4000b384 <__gedf2+0x5c>
4000b360:	b0 10 3f ff 	mov  -1, %i0
4000b364:	c2 07 bf c8 	ld  [ %fp + -56 ], %g1
4000b368:	90 10 00 10 	mov  %l0, %o0
4000b36c:	80 a0 60 01 	cmp  %g1, 1
4000b370:	08 80 00 05 	bleu  4000b384 <__gedf2+0x5c>
4000b374:	92 10 00 1b 	mov  %i3, %o1
4000b378:	40 00 00 45 	call  4000b48c <__fpcmp_parts_d>
4000b37c:	01 00 00 00 	nop 
4000b380:	b0 10 00 08 	mov  %o0, %i0
4000b384:	81 c7 e0 08 	ret 
4000b388:	81 e8 00 00 	restore 

4000b38c <__ltdf2>:
4000b38c:	9d e3 bf 58 	save  %sp, -168, %sp
4000b390:	a0 07 bf e0 	add  %fp, -32, %l0
4000b394:	f0 3f bf c0 	std  %i0, [ %fp + -64 ]
4000b398:	f4 3f bf b8 	std  %i2, [ %fp + -72 ]
4000b39c:	90 07 bf c0 	add  %fp, -64, %o0
4000b3a0:	7f ff e2 56 	call  40003cf8 <__unpack_d>
4000b3a4:	92 10 00 10 	mov  %l0, %o1
4000b3a8:	b6 07 bf c8 	add  %fp, -56, %i3
4000b3ac:	90 07 bf b8 	add  %fp, -72, %o0
4000b3b0:	7f ff e2 52 	call  40003cf8 <__unpack_d>
4000b3b4:	92 10 00 1b 	mov  %i3, %o1
4000b3b8:	c2 07 bf e0 	ld  [ %fp + -32 ], %g1
4000b3bc:	80 a0 60 01 	cmp  %g1, 1
4000b3c0:	08 80 00 0a 	bleu  4000b3e8 <__ltdf2+0x5c>
4000b3c4:	b0 10 20 01 	mov  1, %i0
4000b3c8:	c2 07 bf c8 	ld  [ %fp + -56 ], %g1
4000b3cc:	90 10 00 10 	mov  %l0, %o0
4000b3d0:	80 a0 60 01 	cmp  %g1, 1
4000b3d4:	08 80 00 05 	bleu  4000b3e8 <__ltdf2+0x5c>
4000b3d8:	92 10 00 1b 	mov  %i3, %o1
4000b3dc:	40 00 00 2c 	call  4000b48c <__fpcmp_parts_d>
4000b3e0:	01 00 00 00 	nop 
4000b3e4:	b0 10 00 08 	mov  %o0, %i0
4000b3e8:	81 c7 e0 08 	ret 
4000b3ec:	81 e8 00 00 	restore 

4000b3f0 <__fixdfsi>:
4000b3f0:	9d e3 bf 78 	save  %sp, -136, %sp
4000b3f4:	92 07 bf e0 	add  %fp, -32, %o1
4000b3f8:	f0 3f bf d8 	std  %i0, [ %fp + -40 ]
4000b3fc:	7f ff e2 3f 	call  40003cf8 <__unpack_d>
4000b400:	90 07 bf d8 	add  %fp, -40, %o0
4000b404:	da 07 bf e0 	ld  [ %fp + -32 ], %o5
4000b408:	80 a3 60 02 	cmp  %o5, 2
4000b40c:	02 80 00 1e 	be  4000b484 <__fixdfsi+0x94>
4000b410:	92 10 20 00 	clr  %o1
4000b414:	80 a3 60 01 	cmp  %o5, 1
4000b418:	08 80 00 1b 	bleu  4000b484 <__fixdfsi+0x94>
4000b41c:	80 a3 60 04 	cmp  %o5, 4
4000b420:	12 80 00 0a 	bne  4000b448 <__fixdfsi+0x58>
4000b424:	c2 07 bf e8 	ld  [ %fp + -24 ], %g1
4000b428:	c2 07 bf e4 	ld  [ %fp + -28 ], %g1
4000b42c:	80 a0 60 00 	cmp  %g1, 0
4000b430:	12 80 00 04 	bne  4000b440 <__fixdfsi+0x50>
4000b434:	31 20 00 00 	sethi  %hi(0x80000000), %i0
4000b438:	03 1f ff ff 	sethi  %hi(0x7ffffc00), %g1
4000b43c:	b0 10 63 ff 	or  %g1, 0x3ff, %i0	! 7fffffff <__end+0x3ffdb0b7>
4000b440:	10 80 00 11 	b  4000b484 <__fixdfsi+0x94>
4000b444:	92 10 00 18 	mov  %i0, %o1
4000b448:	80 a0 60 00 	cmp  %g1, 0
4000b44c:	06 80 00 0e 	bl  4000b484 <__fixdfsi+0x94>
4000b450:	92 10 20 00 	clr  %o1
4000b454:	80 a0 60 1e 	cmp  %g1, 0x1e
4000b458:	34 bf ff f5 	bg,a   4000b42c <__fixdfsi+0x3c>
4000b45c:	c2 07 bf e4 	ld  [ %fp + -28 ], %g1
4000b460:	94 10 20 3c 	mov  0x3c, %o2
4000b464:	94 22 80 01 	sub  %o2, %g1, %o2
4000b468:	7f ff e2 71 	call  40003e2c <__lshrdi3>
4000b46c:	d0 1f bf f0 	ldd  [ %fp + -16 ], %o0
4000b470:	c2 07 bf e4 	ld  [ %fp + -28 ], %g1
4000b474:	80 a0 60 00 	cmp  %g1, 0
4000b478:	02 80 00 03 	be  4000b484 <__fixdfsi+0x94>
4000b47c:	01 00 00 00 	nop 
4000b480:	92 20 00 09 	neg  %o1
4000b484:	81 c7 e0 08 	ret 
4000b488:	91 e8 00 09 	restore  %g0, %o1, %o0

4000b48c <__fpcmp_parts_d>:
4000b48c:	d8 02 00 00 	ld  [ %o0 ], %o4
4000b490:	80 a3 20 01 	cmp  %o4, 1
4000b494:	08 80 00 06 	bleu  4000b4ac <__fpcmp_parts_d+0x20>
4000b498:	94 10 00 08 	mov  %o0, %o2
4000b49c:	d6 02 40 00 	ld  [ %o1 ], %o3
4000b4a0:	80 a2 e0 01 	cmp  %o3, 1
4000b4a4:	18 80 00 04 	bgu  4000b4b4 <__fpcmp_parts_d+0x28>
4000b4a8:	80 a3 20 04 	cmp  %o4, 4
4000b4ac:	10 80 00 53 	b  4000b5f8 <__fpcmp_parts_d+0x16c>
4000b4b0:	90 10 20 01 	mov  1, %o0
4000b4b4:	12 80 00 09 	bne  4000b4d8 <__fpcmp_parts_d+0x4c>
4000b4b8:	80 a3 20 04 	cmp  %o4, 4
4000b4bc:	80 a2 e0 04 	cmp  %o3, 4
4000b4c0:	12 80 00 06 	bne  4000b4d8 <__fpcmp_parts_d+0x4c>
4000b4c4:	80 a3 20 04 	cmp  %o4, 4
4000b4c8:	da 02 60 04 	ld  [ %o1 + 4 ], %o5
4000b4cc:	c2 02 20 04 	ld  [ %o0 + 4 ], %g1
4000b4d0:	10 80 00 4a 	b  4000b5f8 <__fpcmp_parts_d+0x16c>
4000b4d4:	90 23 40 01 	sub  %o5, %g1, %o0
4000b4d8:	22 80 00 1a 	be,a   4000b540 <__fpcmp_parts_d+0xb4>
4000b4dc:	c2 02 a0 04 	ld  [ %o2 + 4 ], %g1
4000b4e0:	80 a2 e0 04 	cmp  %o3, 4
4000b4e4:	22 80 00 1b 	be,a   4000b550 <__fpcmp_parts_d+0xc4>
4000b4e8:	c2 02 60 04 	ld  [ %o1 + 4 ], %g1
4000b4ec:	80 a3 20 02 	cmp  %o4, 2
4000b4f0:	12 80 00 06 	bne  4000b508 <__fpcmp_parts_d+0x7c>
4000b4f4:	01 00 00 00 	nop 
4000b4f8:	80 a2 e0 02 	cmp  %o3, 2
4000b4fc:	02 80 00 3f 	be  4000b5f8 <__fpcmp_parts_d+0x16c>
4000b500:	90 10 20 00 	clr  %o0
4000b504:	80 a3 20 02 	cmp  %o4, 2
4000b508:	22 80 00 12 	be,a   4000b550 <__fpcmp_parts_d+0xc4>
4000b50c:	c2 02 60 04 	ld  [ %o1 + 4 ], %g1
4000b510:	80 a2 e0 02 	cmp  %o3, 2
4000b514:	22 80 00 0b 	be,a   4000b540 <__fpcmp_parts_d+0xb4>
4000b518:	c2 02 a0 04 	ld  [ %o2 + 4 ], %g1
4000b51c:	d8 02 a0 04 	ld  [ %o2 + 4 ], %o4
4000b520:	c2 02 60 04 	ld  [ %o1 + 4 ], %g1
4000b524:	80 a3 00 01 	cmp  %o4, %g1
4000b528:	22 80 00 0e 	be,a   4000b560 <__fpcmp_parts_d+0xd4>
4000b52c:	da 02 a0 08 	ld  [ %o2 + 8 ], %o5
4000b530:	80 a0 00 0c 	cmp  %g0, %o4
4000b534:	82 60 20 00 	subx  %g0, 0, %g1
4000b538:	10 80 00 30 	b  4000b5f8 <__fpcmp_parts_d+0x16c>
4000b53c:	90 10 60 01 	or  %g1, 1, %o0
4000b540:	80 a0 00 01 	cmp  %g0, %g1
4000b544:	9a 60 20 00 	subx  %g0, 0, %o5
4000b548:	10 80 00 2c 	b  4000b5f8 <__fpcmp_parts_d+0x16c>
4000b54c:	90 13 60 01 	or  %o5, 1, %o0
4000b550:	80 a0 00 01 	cmp  %g0, %g1
4000b554:	9a 40 3f ff 	addx  %g0, -1, %o5
4000b558:	10 80 00 28 	b  4000b5f8 <__fpcmp_parts_d+0x16c>
4000b55c:	90 13 60 01 	or  %o5, 1, %o0
4000b560:	c2 02 60 08 	ld  [ %o1 + 8 ], %g1
4000b564:	80 a3 40 01 	cmp  %o5, %g1
4000b568:	14 bf ff f3 	bg  4000b534 <__fpcmp_parts_d+0xa8>
4000b56c:	80 a0 00 0c 	cmp  %g0, %o4
4000b570:	80 a3 40 01 	cmp  %o5, %g1
4000b574:	06 80 00 17 	bl  4000b5d0 <__fpcmp_parts_d+0x144>
4000b578:	80 a0 00 0c 	cmp  %g0, %o4
4000b57c:	d0 02 a0 10 	ld  [ %o2 + 0x10 ], %o0
4000b580:	d6 02 60 10 	ld  [ %o1 + 0x10 ], %o3
4000b584:	80 a2 00 0b 	cmp  %o0, %o3
4000b588:	18 bf ff eb 	bgu  4000b534 <__fpcmp_parts_d+0xa8>
4000b58c:	80 a0 00 0c 	cmp  %g0, %o4
4000b590:	80 a2 00 0b 	cmp  %o0, %o3
4000b594:	22 80 00 12 	be,a   4000b5dc <__fpcmp_parts_d+0x150>
4000b598:	da 02 a0 14 	ld  [ %o2 + 0x14 ], %o5
4000b59c:	80 a2 c0 08 	cmp  %o3, %o0
4000b5a0:	18 80 00 0c 	bgu  4000b5d0 <__fpcmp_parts_d+0x144>
4000b5a4:	80 a0 00 0c 	cmp  %g0, %o4
4000b5a8:	80 a2 c0 08 	cmp  %o3, %o0
4000b5ac:	22 80 00 04 	be,a   4000b5bc <__fpcmp_parts_d+0x130>
4000b5b0:	da 02 60 14 	ld  [ %o1 + 0x14 ], %o5
4000b5b4:	10 80 00 11 	b  4000b5f8 <__fpcmp_parts_d+0x16c>
4000b5b8:	90 10 20 00 	clr  %o0
4000b5bc:	c2 02 a0 14 	ld  [ %o2 + 0x14 ], %g1
4000b5c0:	80 a3 40 01 	cmp  %o5, %g1
4000b5c4:	28 80 00 0d 	bleu,a   4000b5f8 <__fpcmp_parts_d+0x16c>
4000b5c8:	90 10 20 00 	clr  %o0
4000b5cc:	80 a0 00 0c 	cmp  %g0, %o4
4000b5d0:	82 40 3f ff 	addx  %g0, -1, %g1
4000b5d4:	10 80 00 09 	b  4000b5f8 <__fpcmp_parts_d+0x16c>
4000b5d8:	90 10 60 01 	or  %g1, 1, %o0
4000b5dc:	c2 02 60 14 	ld  [ %o1 + 0x14 ], %g1
4000b5e0:	80 a3 40 01 	cmp  %o5, %g1
4000b5e4:	08 bf ff ef 	bleu  4000b5a0 <__fpcmp_parts_d+0x114>
4000b5e8:	80 a2 c0 08 	cmp  %o3, %o0
4000b5ec:	80 a0 00 0c 	cmp  %g0, %o4
4000b5f0:	10 bf ff d2 	b  4000b538 <__fpcmp_parts_d+0xac>
4000b5f4:	82 60 20 00 	subx  %g0, 0, %g1
4000b5f8:	81 c3 e0 08 	retl 
4000b5fc:	01 00 00 00 	nop 

4000b600 <close>:
4000b600:	81 c3 e0 08 	retl 
4000b604:	90 10 20 00 	clr  %o0	! 0 <_trap_table-0x40000000>

4000b608 <fstat>:
4000b608:	03 00 00 08 	sethi  %hi(0x2000), %g1
4000b60c:	c2 32 60 08 	sth  %g1, [ %o1 + 8 ]
4000b610:	c0 22 60 30 	clr  [ %o1 + 0x30 ]
4000b614:	81 c3 e0 08 	retl 
4000b618:	90 10 20 00 	clr  %o0

4000b61c <isatty>:
4000b61c:	81 c3 e0 08 	retl 
4000b620:	90 10 20 01 	mov  1, %o0

4000b624 <lseek>:
4000b624:	9d e3 bf 98 	save  %sp, -104, %sp
4000b628:	40 00 04 1c 	call  4000c698 <__errno>
4000b62c:	b0 10 3f ff 	mov  -1, %i0
4000b630:	82 10 20 1d 	mov  0x1d, %g1
4000b634:	c2 22 00 00 	st  %g1, [ %o0 ]
4000b638:	81 c7 e0 08 	ret 
4000b63c:	81 e8 00 00 	restore 

4000b640 <read>:
4000b640:	9d e3 bf 98 	save  %sp, -104, %sp
4000b644:	b0 10 20 00 	clr  %i0
4000b648:	80 a6 00 1a 	cmp  %i0, %i2
4000b64c:	16 80 00 15 	bge  4000b6a0 <read+0x60>
4000b650:	01 00 00 00 	nop 
4000b654:	30 80 00 05 	b,a   4000b668 <read+0x28>
4000b658:	b0 06 20 01 	inc  %i0
4000b65c:	80 a6 00 1a 	cmp  %i0, %i2
4000b660:	16 80 00 10 	bge  4000b6a0 <read+0x60>
4000b664:	01 00 00 00 	nop 
4000b668:	40 00 00 4c 	call  4000b798 <inbyte>
4000b66c:	01 00 00 00 	nop 
4000b670:	83 2a 20 18 	sll  %o0, 0x18, %g1
4000b674:	83 38 60 18 	sra  %g1, 0x18, %g1
4000b678:	9a 18 60 0a 	xor  %g1, 0xa, %o5
4000b67c:	80 a0 00 0d 	cmp  %g0, %o5
4000b680:	98 60 3f ff 	subx  %g0, -1, %o4
4000b684:	82 18 60 0d 	xor  %g1, 0xd, %g1
4000b688:	80 a0 00 01 	cmp  %g0, %g1
4000b68c:	9a 60 3f ff 	subx  %g0, -1, %o5
4000b690:	80 93 00 0d 	orcc  %o4, %o5, %g0
4000b694:	02 bf ff f1 	be  4000b658 <read+0x18>
4000b698:	d0 2e 40 18 	stb  %o0, [ %i1 + %i0 ]
4000b69c:	b0 06 20 01 	inc  %i0
4000b6a0:	81 c7 e0 08 	ret 
4000b6a4:	81 e8 00 00 	restore 

4000b6a8 <sbrk>:
4000b6a8:	19 10 00 93 	sethi  %hi(0x40024c00), %o4
4000b6ac:	da 03 23 34 	ld  [ %o4 + 0x334 ], %o5	! 40024f34 <heap_ptr>
4000b6b0:	80 a3 60 00 	cmp  %o5, 0
4000b6b4:	12 80 00 06 	bne  4000b6cc <sbrk+0x24>
4000b6b8:	82 03 40 08 	add  %o5, %o0, %g1
4000b6bc:	03 10 00 93 	sethi  %hi(0x40024c00), %g1
4000b6c0:	9a 10 63 48 	or  %g1, 0x348, %o5	! 40024f48 <__end>
4000b6c4:	da 23 23 34 	st  %o5, [ %o4 + 0x334 ]
4000b6c8:	82 03 40 08 	add  %o5, %o0, %g1
4000b6cc:	c2 23 23 34 	st  %g1, [ %o4 + 0x334 ]
4000b6d0:	81 c3 e0 08 	retl 
4000b6d4:	90 10 00 0d 	mov  %o5, %o0

4000b6d8 <write>:
4000b6d8:	9d e3 bf 98 	save  %sp, -104, %sp
4000b6dc:	a0 10 20 00 	clr  %l0
4000b6e0:	80 a4 00 1a 	cmp  %l0, %i2
4000b6e4:	06 80 00 0a 	bl  4000b70c <write+0x34>
4000b6e8:	b0 10 00 1a 	mov  %i2, %i0
4000b6ec:	30 80 00 17 	b,a   4000b748 <write+0x70>
4000b6f0:	91 28 60 18 	sll  %g1, 0x18, %o0
4000b6f4:	40 00 00 17 	call  4000b750 <outbyte>
4000b6f8:	91 3a 20 18 	sra  %o0, 0x18, %o0
4000b6fc:	a0 04 20 01 	inc  %l0
4000b700:	80 a4 00 18 	cmp  %l0, %i0
4000b704:	16 80 00 11 	bge  4000b748 <write+0x70>
4000b708:	01 00 00 00 	nop 
4000b70c:	c2 4e 40 10 	ldsb  [ %i1 + %l0 ], %g1
4000b710:	80 a0 60 0a 	cmp  %g1, 0xa
4000b714:	90 10 20 0d 	mov  0xd, %o0
4000b718:	12 bf ff f6 	bne  4000b6f0 <write+0x18>
4000b71c:	c2 0e 40 10 	ldub  [ %i1 + %l0 ], %g1
4000b720:	40 00 00 0c 	call  4000b750 <outbyte>
4000b724:	01 00 00 00 	nop 
4000b728:	c2 0e 40 10 	ldub  [ %i1 + %l0 ], %g1
4000b72c:	91 28 60 18 	sll  %g1, 0x18, %o0
4000b730:	40 00 00 08 	call  4000b750 <outbyte>
4000b734:	91 3a 20 18 	sra  %o0, 0x18, %o0
4000b738:	a0 04 20 01 	inc  %l0
4000b73c:	80 a4 00 18 	cmp  %l0, %i0
4000b740:	26 bf ff f4 	bl,a   4000b710 <write+0x38>
4000b744:	c2 4e 40 10 	ldsb  [ %i1 + %l0 ], %g1
4000b748:	81 c7 e0 08 	ret 
4000b74c:	81 e8 00 00 	restore 

4000b750 <outbyte>:
4000b750:	17 10 00 36 	sethi  %hi(0x4000d800), %o3
4000b754:	d8 02 e1 cc 	ld  [ %o3 + 0x1cc ], %o4	! 4000d9cc <console>
4000b758:	9a 10 00 0c 	mov  %o4, %o5
4000b75c:	c2 03 60 04 	ld  [ %o5 + 4 ], %g1
4000b760:	80 88 60 04 	btst  4, %g1
4000b764:	02 bf ff fe 	be  4000b75c <outbyte+0xc>
4000b768:	82 0a 20 ff 	and  %o0, 0xff, %g1
4000b76c:	c2 23 00 00 	st  %g1, [ %o4 ]
4000b770:	80 a2 20 0a 	cmp  %o0, 0xa
4000b774:	12 80 00 07 	bne  4000b790 <outbyte+0x40>
4000b778:	da 02 e1 cc 	ld  [ %o3 + 0x1cc ], %o5
4000b77c:	c2 03 60 04 	ld  [ %o5 + 4 ], %g1
4000b780:	80 88 60 04 	btst  4, %g1
4000b784:	02 bf ff fe 	be  4000b77c <outbyte+0x2c>
4000b788:	82 10 20 0d 	mov  0xd, %g1
4000b78c:	c2 23 40 00 	st  %g1, [ %o5 ]
4000b790:	81 c3 e0 08 	retl 
4000b794:	01 00 00 00 	nop 

4000b798 <inbyte>:
4000b798:	03 10 00 36 	sethi  %hi(0x4000d800), %g1
4000b79c:	c2 00 61 cc 	ld  [ %g1 + 0x1cc ], %g1	! 4000d9cc <console>
4000b7a0:	80 a0 60 00 	cmp  %g1, 0
4000b7a4:	02 80 00 08 	be  4000b7c4 <inbyte+0x2c>
4000b7a8:	90 10 20 00 	clr  %o0
4000b7ac:	90 10 00 01 	mov  %g1, %o0
4000b7b0:	c2 02 20 04 	ld  [ %o0 + 4 ], %g1
4000b7b4:	80 88 60 01 	btst  1, %g1
4000b7b8:	02 bf ff fe 	be  4000b7b0 <inbyte+0x18>
4000b7bc:	01 00 00 00 	nop 
4000b7c0:	d0 02 00 00 	ld  [ %o0 ], %o0
4000b7c4:	81 c3 e0 08 	retl 
4000b7c8:	01 00 00 00 	nop 

4000b7cc <bdinit1>:
4000b7cc:	81 c3 e0 08 	retl 
4000b7d0:	01 00 00 00 	nop 

4000b7d4 <bdinit2>:
4000b7d4:	81 c3 e0 08 	retl 
4000b7d8:	01 00 00 00 	nop 

4000b7dc <prelibchook>:
4000b7dc:	81 c3 e0 08 	retl 
4000b7e0:	01 00 00 00 	nop 

4000b7e4 <times>:
4000b7e4:	9d e3 bf 98 	save  %sp, -104, %sp
4000b7e8:	03 10 00 36 	sethi  %hi(0x4000d800), %g1
4000b7ec:	c2 00 62 f0 	ld  [ %g1 + 0x2f0 ], %g1	! 4000daf0 <clock_custom>
4000b7f0:	80 a0 60 00 	cmp  %g1, 0
4000b7f4:	12 80 00 07 	bne  4000b810 <times+0x2c>
4000b7f8:	a0 10 00 18 	mov  %i0, %l0
4000b7fc:	03 10 00 36 	sethi  %hi(0x4000d800), %g1
4000b800:	da 00 61 c8 	ld  [ %g1 + 0x1c8 ], %o5	! 4000d9c8 <rtc>
4000b804:	d8 03 40 00 	ld  [ %o5 ], %o4
4000b808:	10 80 00 04 	b  4000b818 <times+0x34>
4000b80c:	90 20 00 0c 	neg  %o4, %o0
4000b810:	9f c0 40 00 	call  %g1
4000b814:	01 00 00 00 	nop 
4000b818:	03 1f 74 e7 	sethi  %hi(0x7dd39c00), %g1
4000b81c:	82 10 60 49 	or  %g1, 0x49, %g1	! 7dd39c49 <__end+0x3dd14d01>
4000b820:	80 52 00 01 	umul  %o0, %g1, %g0
4000b824:	83 40 00 00 	rd  %y, %g1
4000b828:	83 30 60 0d 	srl  %g1, 0xd, %g1
4000b82c:	c2 24 00 00 	st  %g1, [ %l0 ]
4000b830:	c0 24 20 0c 	clr  [ %l0 + 0xc ]
4000b834:	c0 24 20 04 	clr  [ %l0 + 4 ]
4000b838:	c0 24 20 08 	clr  [ %l0 + 8 ]
4000b83c:	81 c7 e0 08 	ret 
4000b840:	81 e8 00 00 	restore 

4000b844 <clock>:
4000b844:	9d e3 bf 98 	save  %sp, -104, %sp
4000b848:	03 10 00 36 	sethi  %hi(0x4000d800), %g1
4000b84c:	c2 00 62 f0 	ld  [ %g1 + 0x2f0 ], %g1	! 4000daf0 <clock_custom>
4000b850:	80 a0 60 00 	cmp  %g1, 0
4000b854:	12 80 00 07 	bne  4000b870 <clock+0x2c>
4000b858:	01 00 00 00 	nop 
4000b85c:	03 10 00 36 	sethi  %hi(0x4000d800), %g1
4000b860:	da 00 61 c8 	ld  [ %g1 + 0x1c8 ], %o5	! 4000d9c8 <rtc>
4000b864:	d8 03 40 00 	ld  [ %o5 ], %o4
4000b868:	10 80 00 04 	b  4000b878 <clock+0x34>
4000b86c:	90 20 00 0c 	neg  %o4, %o0
4000b870:	9f c0 40 00 	call  %g1
4000b874:	01 00 00 00 	nop 
4000b878:	81 c7 e0 08 	ret 
4000b87c:	91 e8 00 08 	restore  %g0, %o0, %o0

4000b880 <_exit>:
4000b880:	82 10 20 01 	mov  1, %g1
4000b884:	91 d0 20 00 	ta  0
4000b888:	81 c3 e0 08 	retl 
4000b88c:	01 00 00 00 	nop 

4000b890 <___st_pthread_mutex_init>:
4000b890:	9d e3 bf 98 	save  %sp, -104, %sp
4000b894:	03 10 00 36 	sethi  %hi(0x4000d800), %g1
4000b898:	c2 00 63 10 	ld  [ %g1 + 0x310 ], %g1	! 4000db10 <__lbst_pthread_mutex_init>
4000b89c:	90 10 00 18 	mov  %i0, %o0
4000b8a0:	92 10 00 19 	mov  %i1, %o1
4000b8a4:	80 a0 60 00 	cmp  %g1, 0
4000b8a8:	02 80 00 05 	be  4000b8bc <___st_pthread_mutex_init+0x2c>
4000b8ac:	b0 10 20 00 	clr  %i0
4000b8b0:	9f c0 40 00 	call  %g1
4000b8b4:	01 00 00 00 	nop 
4000b8b8:	b0 10 00 08 	mov  %o0, %i0
4000b8bc:	81 c7 e0 08 	ret 
4000b8c0:	81 e8 00 00 	restore 

4000b8c4 <___st_pthread_mutex_destroy>:
4000b8c4:	9d e3 bf 98 	save  %sp, -104, %sp
4000b8c8:	03 10 00 36 	sethi  %hi(0x4000d800), %g1
4000b8cc:	c2 00 63 0c 	ld  [ %g1 + 0x30c ], %g1	! 4000db0c <__lbst_pthread_mutex_destroy>
4000b8d0:	90 10 00 18 	mov  %i0, %o0
4000b8d4:	80 a0 60 00 	cmp  %g1, 0
4000b8d8:	02 80 00 05 	be  4000b8ec <___st_pthread_mutex_destroy+0x28>
4000b8dc:	b0 10 20 00 	clr  %i0
4000b8e0:	9f c0 40 00 	call  %g1
4000b8e4:	01 00 00 00 	nop 
4000b8e8:	b0 10 00 08 	mov  %o0, %i0
4000b8ec:	81 c7 e0 08 	ret 
4000b8f0:	81 e8 00 00 	restore 

4000b8f4 <___st_pthread_mutex_lock>:
4000b8f4:	9d e3 bf 98 	save  %sp, -104, %sp
4000b8f8:	03 10 00 36 	sethi  %hi(0x4000d800), %g1
4000b8fc:	c2 00 63 04 	ld  [ %g1 + 0x304 ], %g1	! 4000db04 <__lbst_pthread_mutex_lock>
4000b900:	90 10 00 18 	mov  %i0, %o0
4000b904:	80 a0 60 00 	cmp  %g1, 0
4000b908:	02 80 00 05 	be  4000b91c <___st_pthread_mutex_lock+0x28>
4000b90c:	b0 10 20 00 	clr  %i0
4000b910:	9f c0 40 00 	call  %g1
4000b914:	01 00 00 00 	nop 
4000b918:	b0 10 00 08 	mov  %o0, %i0
4000b91c:	81 c7 e0 08 	ret 
4000b920:	81 e8 00 00 	restore 

4000b924 <___st_pthread_mutex_trylock>:
4000b924:	9d e3 bf 98 	save  %sp, -104, %sp
4000b928:	03 10 00 36 	sethi  %hi(0x4000d800), %g1
4000b92c:	c2 00 63 08 	ld  [ %g1 + 0x308 ], %g1	! 4000db08 <__lbst_pthread_mutex_trylock>
4000b930:	90 10 00 18 	mov  %i0, %o0
4000b934:	80 a0 60 00 	cmp  %g1, 0
4000b938:	02 80 00 05 	be  4000b94c <___st_pthread_mutex_trylock+0x28>
4000b93c:	b0 10 20 00 	clr  %i0
4000b940:	9f c0 40 00 	call  %g1
4000b944:	01 00 00 00 	nop 
4000b948:	b0 10 00 08 	mov  %o0, %i0
4000b94c:	81 c7 e0 08 	ret 
4000b950:	81 e8 00 00 	restore 

4000b954 <___st_pthread_mutex_unlock>:
4000b954:	9d e3 bf 98 	save  %sp, -104, %sp
4000b958:	03 10 00 36 	sethi  %hi(0x4000d800), %g1
4000b95c:	c2 00 63 00 	ld  [ %g1 + 0x300 ], %g1	! 4000db00 <__lbst_pthread_mutex_unlock>
4000b960:	90 10 00 18 	mov  %i0, %o0
4000b964:	80 a0 60 00 	cmp  %g1, 0
4000b968:	02 80 00 05 	be  4000b97c <___st_pthread_mutex_unlock+0x28>
4000b96c:	b0 10 20 00 	clr  %i0
4000b970:	9f c0 40 00 	call  %g1
4000b974:	01 00 00 00 	nop 
4000b978:	b0 10 00 08 	mov  %o0, %i0
4000b97c:	81 c7 e0 08 	ret 
4000b980:	81 e8 00 00 	restore 

4000b984 <___st_pthread_mutexattr_init>:
4000b984:	9d e3 bf 98 	save  %sp, -104, %sp
4000b988:	03 10 00 36 	sethi  %hi(0x4000d800), %g1
4000b98c:	c2 00 62 fc 	ld  [ %g1 + 0x2fc ], %g1	! 4000dafc <__lbst_pthread_mutexattr_init>
4000b990:	90 10 00 18 	mov  %i0, %o0
4000b994:	80 a0 60 00 	cmp  %g1, 0
4000b998:	02 80 00 05 	be  4000b9ac <___st_pthread_mutexattr_init+0x28>
4000b99c:	b0 10 20 00 	clr  %i0
4000b9a0:	9f c0 40 00 	call  %g1
4000b9a4:	01 00 00 00 	nop 
4000b9a8:	b0 10 00 08 	mov  %o0, %i0
4000b9ac:	81 c7 e0 08 	ret 
4000b9b0:	81 e8 00 00 	restore 

4000b9b4 <___st_pthread_mutexattr_destroy>:
4000b9b4:	9d e3 bf 98 	save  %sp, -104, %sp
4000b9b8:	03 10 00 36 	sethi  %hi(0x4000d800), %g1
4000b9bc:	c2 00 62 f8 	ld  [ %g1 + 0x2f8 ], %g1	! 4000daf8 <__lbst_pthread_mutexattr_destroy>
4000b9c0:	90 10 00 18 	mov  %i0, %o0
4000b9c4:	80 a0 60 00 	cmp  %g1, 0
4000b9c8:	02 80 00 05 	be  4000b9dc <___st_pthread_mutexattr_destroy+0x28>
4000b9cc:	b0 10 20 00 	clr  %i0
4000b9d0:	9f c0 40 00 	call  %g1
4000b9d4:	01 00 00 00 	nop 
4000b9d8:	b0 10 00 08 	mov  %o0, %i0
4000b9dc:	81 c7 e0 08 	ret 
4000b9e0:	81 e8 00 00 	restore 

4000b9e4 <___st_pthread_mutexattr_settype>:
4000b9e4:	9d e3 bf 98 	save  %sp, -104, %sp
4000b9e8:	03 10 00 36 	sethi  %hi(0x4000d800), %g1
4000b9ec:	c2 00 62 f4 	ld  [ %g1 + 0x2f4 ], %g1	! 4000daf4 <__lbst_pthread_mutexattr_settype>
4000b9f0:	90 10 00 18 	mov  %i0, %o0
4000b9f4:	92 10 00 19 	mov  %i1, %o1
4000b9f8:	80 a0 60 00 	cmp  %g1, 0
4000b9fc:	02 80 00 05 	be  4000ba10 <___st_pthread_mutexattr_settype+0x2c>
4000ba00:	b0 10 20 00 	clr  %i0
4000ba04:	9f c0 40 00 	call  %g1
4000ba08:	01 00 00 00 	nop 
4000ba0c:	b0 10 00 08 	mov  %o0, %i0
4000ba10:	81 c7 e0 08 	ret 
4000ba14:	81 e8 00 00 	restore 

4000ba18 <_start_svt_real>:
4000ba18:	01 00 00 00 	nop 

4000ba1c <_start_svt_weak>:
4000ba1c:	a7 58 00 00 	rd  %tbr, %l3
4000ba20:	a1 48 00 00 	rd  %psr, %l0
4000ba24:	a6 0c ef f0 	and  %l3, 0xff0, %l3
4000ba28:	a7 34 e0 04 	srl  %l3, 4, %l3
4000ba2c:	2b 10 00 33 	sethi  %hi(0x4000cc00), %l5
4000ba30:	aa 15 61 d0 	or  %l5, 0x1d0, %l5	! 4000cdd0 <trap_table>
4000ba34:	ac 10 00 13 	mov  %l3, %l6
4000ba38:	e8 05 40 00 	ld  [ %l5 ], %l4
4000ba3c:	80 a5 00 16 	cmp  %l4, %l6
4000ba40:	34 80 00 07 	bg,a   4000ba5c <_start_svt_weak+0x40>
4000ba44:	aa 05 60 0c 	add  %l5, 0xc, %l5
4000ba48:	e6 05 60 04 	ld  [ %l5 + 4 ], %l3
4000ba4c:	80 a4 c0 16 	cmp  %l3, %l6
4000ba50:	36 80 00 13 	bge,a   4000ba9c <_start_svt_weak+0x80>
4000ba54:	e6 05 60 08 	ld  [ %l5 + 8 ], %l3
4000ba58:	aa 05 60 0c 	add  %l5, 0xc, %l5
4000ba5c:	e6 05 40 00 	ld  [ %l5 ], %l3
4000ba60:	a8 94 e0 00 	orcc  %l3, 0, %l4
4000ba64:	12 bf ff f7 	bne  4000ba40 <_start_svt_weak+0x24>
4000ba68:	80 a5 00 16 	cmp  %l4, %l6
4000ba6c:	e6 05 60 04 	ld  [ %l5 + 4 ], %l3
4000ba70:	80 a4 e0 00 	cmp  %l3, 0
4000ba74:	12 bf ff f3 	bne  4000ba40 <_start_svt_weak+0x24>
4000ba78:	80 a5 00 16 	cmp  %l4, %l6
4000ba7c:	e6 05 60 08 	ld  [ %l5 + 8 ], %l3
4000ba80:	80 a4 e0 00 	cmp  %l3, 0
4000ba84:	12 bf ff ef 	bne  4000ba40 <_start_svt_weak+0x24>
4000ba88:	80 a5 00 16 	cmp  %l4, %l6
4000ba8c:	91 d0 20 00 	ta  0
4000ba90:	01 00 00 00 	nop 
4000ba94:	01 00 00 00 	nop 
4000ba98:	01 00 00 00 	nop 
4000ba9c:	81 c4 c0 00 	jmp  %l3
4000baa0:	01 00 00 00 	nop 

4000baa4 <_hardreset_svt_real>:
4000baa4:	01 00 00 00 	nop 

4000baa8 <_hardreset_svt>:
4000baa8:	a7 48 00 00 	rd  %psr, %l3
4000baac:	8b 34 e0 18 	srl  %l3, 0x18, %g5
4000bab0:	8a 09 60 03 	and  %g5, 3, %g5
4000bab4:	80 a1 60 03 	cmp  %g5, 3
4000bab8:	12 80 00 11 	bne  4000bafc <_hardreset_svt+0x54>
4000babc:	01 00 00 00 	nop 
4000bac0:	8b 44 40 00 	rd  %asr17, %g5
4000bac4:	03 00 00 08 	sethi  %hi(0x2000), %g1
4000bac8:	8a 11 40 01 	or  %g5, %g1, %g5
4000bacc:	a3 81 40 00 	mov  %g5, %asr17
4000bad0:	01 00 00 00 	nop 
4000bad4:	01 00 00 00 	nop 
4000bad8:	01 00 00 00 	nop 
4000badc:	8b 44 40 00 	rd  %asr17, %g5
4000bae0:	80 89 40 01 	btst  %g5, %g1
4000bae4:	02 80 00 06 	be  4000bafc <_hardreset_svt+0x54>
4000bae8:	01 00 00 00 	nop 
4000baec:	27 10 00 30 	sethi  %hi(0x4000c000), %l3
4000baf0:	a6 14 e1 50 	or  %l3, 0x150, %l3	! 4000c150 <_hardreset>
4000baf4:	81 c4 c0 00 	jmp  %l3
4000baf8:	01 00 00 00 	nop 
4000bafc:	91 d0 20 00 	ta  0
4000bb00:	01 00 00 00 	nop 

4000bb04 <_call_initcalls>:
4000bb04:	9d e3 bf 98 	save  %sp, -104, %sp
4000bb08:	03 10 00 31 	sethi  %hi(0x4000c400), %g1
4000bb0c:	1b 10 00 31 	sethi  %hi(0x4000c400), %o5
4000bb10:	a0 10 63 20 	or  %g1, 0x320, %l0
4000bb14:	9a 13 63 20 	or  %o5, 0x320, %o5
4000bb18:	80 a4 00 0d 	cmp  %l0, %o5
4000bb1c:	1a 80 00 10 	bcc  4000bb5c <_call_initcalls+0x58>
4000bb20:	a2 10 00 0d 	mov  %o5, %l1
4000bb24:	10 80 00 06 	b  4000bb3c <_call_initcalls+0x38>
4000bb28:	c2 04 00 00 	ld  [ %l0 ], %g1
4000bb2c:	80 a4 00 11 	cmp  %l0, %l1
4000bb30:	1a 80 00 0b 	bcc  4000bb5c <_call_initcalls+0x58>
4000bb34:	01 00 00 00 	nop 
4000bb38:	c2 04 00 00 	ld  [ %l0 ], %g1
4000bb3c:	80 a0 60 00 	cmp  %g1, 0
4000bb40:	02 bf ff fb 	be  4000bb2c <_call_initcalls+0x28>
4000bb44:	a0 04 20 04 	add  %l0, 4, %l0
4000bb48:	9f c0 40 00 	call  %g1
4000bb4c:	01 00 00 00 	nop 
4000bb50:	80 a4 00 11 	cmp  %l0, %l1
4000bb54:	2a bf ff fa 	bcs,a   4000bb3c <_call_initcalls+0x38>
4000bb58:	c2 04 00 00 	ld  [ %l0 ], %g1
4000bb5c:	81 c7 e0 08 	ret 
4000bb60:	81 e8 00 00 	restore 

4000bb64 <__window_overflow_rettseq>:
4000bb64:	a7 50 00 00 	rd  %wim, %l3
4000bb68:	ae 10 00 01 	mov  %g1, %l7
4000bb6c:	83 34 e0 01 	srl  %l3, 1, %g1

4000bb70 <__window_overflow_rettseq_ret>:
4000bb70:	29 10 00 36 	sethi  %hi(0x4000d800), %l4
4000bb74:	e8 05 22 04 	ld  [ %l4 + 0x204 ], %l4	! 4000da04 <_nwindows_min1>
4000bb78:	a9 2c c0 14 	sll  %l3, %l4, %l4
4000bb7c:	82 15 00 01 	or  %l4, %g1, %g1
4000bb80:	81 e0 00 00 	save 
4000bb84:	81 90 40 00 	mov  %g1, %wim
4000bb88:	01 00 00 00 	nop 
4000bb8c:	01 00 00 00 	nop 
4000bb90:	01 00 00 00 	nop 
4000bb94:	e0 3b a0 00 	std  %l0, [ %sp ]
4000bb98:	e4 3b a0 08 	std  %l2, [ %sp + 8 ]
4000bb9c:	e8 3b a0 10 	std  %l4, [ %sp + 0x10 ]
4000bba0:	ec 3b a0 18 	std  %l6, [ %sp + 0x18 ]
4000bba4:	f0 3b a0 20 	std  %i0, [ %sp + 0x20 ]
4000bba8:	f4 3b a0 28 	std  %i2, [ %sp + 0x28 ]
4000bbac:	f8 3b a0 30 	std  %i4, [ %sp + 0x30 ]
4000bbb0:	fc 3b a0 38 	std  %fp, [ %sp + 0x38 ]
4000bbb4:	81 e8 00 00 	restore 
4000bbb8:	82 10 00 17 	mov  %l7, %g1
4000bbbc:	81 c4 40 00 	jmp  %l1
4000bbc0:	81 cc 80 00 	rett  %l2
4000bbc4:	01 00 00 00 	nop 

4000bbc8 <__window_overflow_slow1>:
4000bbc8:	01 00 00 00 	nop 
4000bbcc:	01 00 00 00 	nop 

4000bbd0 <_window_underflow>:
4000bbd0:	a7 50 00 00 	rd  %wim, %l3
4000bbd4:	a9 2c e0 01 	sll  %l3, 1, %l4
4000bbd8:	2b 10 00 36 	sethi  %hi(0x4000d800), %l5
4000bbdc:	ea 05 62 04 	ld  [ %l5 + 0x204 ], %l5	! 4000da04 <_nwindows_min1>
4000bbe0:	ab 34 c0 15 	srl  %l3, %l5, %l5
4000bbe4:	aa 15 40 14 	or  %l5, %l4, %l5
4000bbe8:	81 95 40 00 	mov  %l5, %wim
4000bbec:	01 00 00 00 	nop 
4000bbf0:	01 00 00 00 	nop 
4000bbf4:	01 00 00 00 	nop 
4000bbf8:	81 e8 00 00 	restore 
4000bbfc:	81 e8 00 00 	restore 
4000bc00:	e0 1b a0 00 	ldd  [ %sp ], %l0
4000bc04:	e4 1b a0 08 	ldd  [ %sp + 8 ], %l2
4000bc08:	e8 1b a0 10 	ldd  [ %sp + 0x10 ], %l4
4000bc0c:	ec 1b a0 18 	ldd  [ %sp + 0x18 ], %l6
4000bc10:	f0 1b a0 20 	ldd  [ %sp + 0x20 ], %i0
4000bc14:	f4 1b a0 28 	ldd  [ %sp + 0x28 ], %i2
4000bc18:	f8 1b a0 30 	ldd  [ %sp + 0x30 ], %i4
4000bc1c:	fc 1b a0 38 	ldd  [ %sp + 0x38 ], %fp
4000bc20:	81 e0 00 00 	save 
4000bc24:	81 e0 00 00 	save 
4000bc28:	81 c4 40 00 	jmp  %l1
4000bc2c:	81 cc 80 00 	rett  %l2

4000bc30 <_flush_windows_svt>:
4000bc30:	a7 50 00 00 	rd  %wim, %l3

4000bc34 <_flush_windows>:
4000bc34:	29 10 00 30 	sethi  %hi(0x4000c000), %l4
4000bc38:	ad c5 22 b8 	jmpl  %l4 + 0x2b8, %l6	! 4000c2b8 <leonbare_trapsetup>
4000bc3c:	01 00 00 00 	nop 
4000bc40:	81 8c 20 20 	wr  %l0, 0x20, %psr
4000bc44:	01 00 00 00 	nop 
4000bc48:	01 00 00 00 	nop 
4000bc4c:	01 00 00 00 	nop 
4000bc50:	9d e3 bf a0 	save  %sp, -96, %sp
4000bc54:	9d e3 bf a0 	save  %sp, -96, %sp
4000bc58:	9d e3 bf a0 	save  %sp, -96, %sp
4000bc5c:	9d e3 bf a0 	save  %sp, -96, %sp
4000bc60:	9d e3 bf a0 	save  %sp, -96, %sp
4000bc64:	9d e3 bf a0 	save  %sp, -96, %sp
4000bc68:	9d e3 bf a0 	save  %sp, -96, %sp
4000bc6c:	81 e8 00 00 	restore 
4000bc70:	81 e8 00 00 	restore 
4000bc74:	81 e8 00 00 	restore 
4000bc78:	81 e8 00 00 	restore 
4000bc7c:	81 e8 00 00 	restore 
4000bc80:	81 e8 00 00 	restore 
4000bc84:	81 e8 00 00 	restore 
4000bc88:	e2 03 a0 68 	ld  [ %sp + 0x68 ], %l1
4000bc8c:	a4 04 60 04 	add  %l1, 4, %l2
4000bc90:	e2 23 a0 64 	st  %l1, [ %sp + 0x64 ]
4000bc94:	e4 23 a0 68 	st  %l2, [ %sp + 0x68 ]
4000bc98:	10 80 01 ae 	b  4000c350 <leonbare_trapreturn>
4000bc9c:	ac 10 00 00 	mov  %g0, %l6

4000bca0 <_irqcall_flush_windows>:
4000bca0:	29 10 00 36 	sethi  %hi(0x4000d800), %l4
4000bca4:	a8 15 21 d0 	or  %l4, 0x1d0, %l4	! 4000d9d0 <_lb_spillglobals>
4000bca8:	c2 25 20 00 	st  %g1, [ %l4 ]
4000bcac:	c8 25 20 04 	st  %g4, [ %l4 + 4 ]
4000bcb0:	e0 25 20 10 	st  %l0, [ %l4 + 0x10 ]
4000bcb4:	e2 25 20 14 	st  %l1, [ %l4 + 0x14 ]
4000bcb8:	e4 25 20 18 	st  %l2, [ %l4 + 0x18 ]
4000bcbc:	81 e8 00 00 	restore 
4000bcc0:	83 48 00 00 	rd  %psr, %g1
4000bcc4:	82 10 6f 00 	or  %g1, 0xf00, %g1
4000bcc8:	81 88 60 20 	wr  %g1, 0x20, %psr
4000bccc:	01 00 00 00 	nop 
4000bcd0:	01 00 00 00 	nop 
4000bcd4:	01 00 00 00 	nop 
4000bcd8:	09 10 00 36 	sethi  %hi(0x4000d800), %g4
4000bcdc:	c8 01 22 04 	ld  [ %g4 + 0x204 ], %g4	! 4000da04 <_nwindows_min1>
4000bce0:	81 e0 00 00 	save 
4000bce4:	88 21 20 01 	dec  %g4
4000bce8:	80 a9 20 ff 	andncc  %g4, 0xff, %g0
4000bcec:	02 80 00 03 	be  4000bcf8 <.lab1>
4000bcf0:	01 00 00 00 	nop 
4000bcf4:	01 00 00 00 	nop 

4000bcf8 <.lab1>:
4000bcf8:	80 a1 00 00 	cmp  %g4, %g0
4000bcfc:	12 bf ff f9 	bne  4000bce0 <_irqcall_flush_windows+0x40>
4000bd00:	01 00 00 00 	nop 
4000bd04:	09 10 00 36 	sethi  %hi(0x4000d800), %g4
4000bd08:	c8 01 22 04 	ld  [ %g4 + 0x204 ], %g4	! 4000da04 <_nwindows_min1>
4000bd0c:	81 e8 00 00 	restore 
4000bd10:	80 a9 20 ff 	andncc  %g4, 0xff, %g0
4000bd14:	02 80 00 03 	be  4000bd20 <.lab2>
4000bd18:	01 00 00 00 	nop 
4000bd1c:	01 00 00 00 	nop 

4000bd20 <.lab2>:
4000bd20:	88 21 20 01 	dec  %g4
4000bd24:	80 a1 00 00 	cmp  %g4, %g0
4000bd28:	12 bf ff f9 	bne  4000bd0c <.lab1+0x14>
4000bd2c:	01 00 00 00 	nop 
4000bd30:	81 e0 00 00 	save 
4000bd34:	29 10 00 36 	sethi  %hi(0x4000d800), %l4
4000bd38:	a8 15 21 d0 	or  %l4, 0x1d0, %l4	! 4000d9d0 <_lb_spillglobals>
4000bd3c:	c8 05 20 04 	ld  [ %l4 + 4 ], %g4
4000bd40:	c2 05 20 00 	ld  [ %l4 ], %g1
4000bd44:	e0 05 20 10 	ld  [ %l4 + 0x10 ], %l0
4000bd48:	e2 05 20 14 	ld  [ %l4 + 0x14 ], %l1
4000bd4c:	e4 05 20 18 	ld  [ %l4 + 0x18 ], %l2
4000bd50:	81 8c 20 00 	mov  %l0, %psr
4000bd54:	01 00 00 00 	nop 
4000bd58:	01 00 00 00 	nop 
4000bd5c:	01 00 00 00 	nop 
4000bd60:	81 c4 80 00 	jmp  %l2
4000bd64:	81 cc a0 04 	rett  %l2 + 4

4000bd68 <_irqcall_disableirq>:
4000bd68:	a0 14 2f 00 	or  %l0, 0xf00, %l0
4000bd6c:	81 8c 00 00 	mov  %l0, %psr
4000bd70:	01 00 00 00 	nop 
4000bd74:	01 00 00 00 	nop 
4000bd78:	01 00 00 00 	nop 
4000bd7c:	81 c4 80 00 	jmp  %l2
4000bd80:	81 cc a0 04 	rett  %l2 + 4

4000bd84 <_irqcall>:
4000bd84:	80 a6 60 02 	cmp  %i1, 2
4000bd88:	12 80 00 05 	bne  4000bd9c <_irqcall+0x18>
4000bd8c:	a8 14 2f 00 	or  %l0, 0xf00, %l4
4000bd90:	81 8d 00 00 	mov  %l4, %psr
4000bd94:	b0 14 20 20 	or  %l0, 0x20, %i0
4000bd98:	30 80 00 1f 	b,a   4000be14 <_irqcall+0x90>
4000bd9c:	80 a6 60 03 	cmp  %i1, 3
4000bda0:	12 80 00 06 	bne  4000bdb8 <_irqcall+0x34>
4000bda4:	a8 0e 2f 00 	and  %i0, 0xf00, %l4
4000bda8:	aa 2c 2f 00 	andn  %l0, 0xf00, %l5
4000bdac:	a8 15 40 14 	or  %l5, %l4, %l4
4000bdb0:	81 8d 00 00 	mov  %l4, %psr
4000bdb4:	30 80 00 18 	b,a   4000be14 <_irqcall+0x90>
4000bdb8:	80 a6 60 04 	cmp  %i1, 4
4000bdbc:	12 80 00 08 	bne  4000bddc <_irqcall+0x58>
4000bdc0:	a9 48 00 00 	rd  %psr, %l4
4000bdc4:	a8 15 20 40 	or  %l4, 0x40, %l4
4000bdc8:	81 8d 00 00 	mov  %l4, %psr
4000bdcc:	01 00 00 00 	nop 
4000bdd0:	01 00 00 00 	nop 
4000bdd4:	01 00 00 00 	nop 
4000bdd8:	30 80 00 0f 	b,a   4000be14 <_irqcall+0x90>
4000bddc:	80 a6 60 05 	cmp  %i1, 5
4000bde0:	12 80 00 08 	bne  4000be00 <_irqcall+0x7c>
4000bde4:	a9 48 00 00 	rd  %psr, %l4
4000bde8:	a8 2d 20 40 	andn  %l4, 0x40, %l4
4000bdec:	81 8d 00 00 	mov  %l4, %psr
4000bdf0:	01 00 00 00 	nop 
4000bdf4:	01 00 00 00 	nop 
4000bdf8:	01 00 00 00 	nop 
4000bdfc:	30 80 00 06 	b,a   4000be14 <_irqcall+0x90>
4000be00:	80 a6 60 06 	cmp  %i1, 6
4000be04:	12 80 00 03 	bne  4000be10 <_irqcall+0x8c>
4000be08:	01 00 00 00 	nop 
4000be0c:	30 bf ff a5 	b,a   4000bca0 <_irqcall_flush_windows>
4000be10:	91 d0 20 00 	ta  0
4000be14:	81 c4 80 00 	jmp  %l2
4000be18:	81 cc a0 04 	rett  %l2 + 4

4000be1c <leonbare_enable_traps>:
4000be1c:	92 10 20 03 	mov  3, %o1
4000be20:	81 c3 e0 08 	retl 
4000be24:	91 d0 20 02 	ta  2

4000be28 <leonbare_disable_traps>:
4000be28:	92 10 20 02 	mov  2, %o1
4000be2c:	81 c3 e0 08 	retl 
4000be30:	91 d0 20 02 	ta  2

4000be34 <leonbare_flush_windows>:
4000be34:	92 10 20 06 	mov  6, %o1
4000be38:	81 c3 e0 08 	retl 
4000be3c:	91 d0 20 02 	ta  2

4000be40 <_leonbare_irq_entry_svt>:
4000be40:	ae 25 a0 10 	sub  %l6, 0x10, %l7
4000be44:	a7 50 00 00 	rd  %wim, %l3

4000be48 <leonbare_irq_entry>:
4000be48:	2d 00 00 04 	sethi  %hi(0x1000), %l6
4000be4c:	a0 2c 00 16 	andn  %l0, %l6, %l0
4000be50:	2d 10 00 2f 	sethi  %hi(0x4000bc00), %l6
4000be54:	ac 15 a2 5c 	or  %l6, 0x25c, %l6	! 4000be5c <leonbare_irq_entry+0x14>
4000be58:	29 10 00 31 	sethi  %hi(0x4000c400), %l4
4000be5c:	81 c5 20 60 	jmp  %l4 + 0x60	! 4000c460 <leonbare_trapsetup_fast>
4000be60:	01 00 00 00 	nop 
4000be64:	11 10 00 36 	sethi  %hi(0x4000d800), %o0
4000be68:	90 12 21 f4 	or  %o0, 0x1f4, %o0	! 4000d9f4 <nestcount>
4000be6c:	d2 02 00 00 	ld  [ %o0 ], %o1
4000be70:	92 02 60 01 	inc  %o1
4000be74:	d2 22 00 00 	st  %o1, [ %o0 ]
4000be78:	93 2d e0 08 	sll  %l7, 8, %o1
4000be7c:	92 14 00 09 	or  %l0, %o1, %o1
4000be80:	11 10 00 36 	sethi  %hi(0x4000d800), %o0
4000be84:	90 12 21 ec 	or  %o0, 0x1ec, %o0	! 4000d9ec <nestedirq>
4000be88:	d0 02 00 00 	ld  [ %o0 ], %o0
4000be8c:	80 a0 00 08 	cmp  %g0, %o0
4000be90:	22 80 00 02 	be,a   4000be98 <leonbare_irq_entry+0x50>
4000be94:	92 12 6f 00 	or  %o1, 0xf00, %o1
4000be98:	81 8a 60 20 	wr  %o1, 0x20, %psr
4000be9c:	01 00 00 00 	nop 
4000bea0:	01 00 00 00 	nop 
4000bea4:	01 00 00 00 	nop 
4000bea8:	90 10 00 17 	mov  %l7, %o0
4000beac:	40 00 00 2d 	call  4000bf60 <handler_irq>
4000beb0:	92 03 a0 60 	add  %sp, 0x60, %o1
4000beb4:	92 14 2f 00 	or  %l0, 0xf00, %o1
4000beb8:	81 8a 60 20 	wr  %o1, 0x20, %psr
4000bebc:	01 00 00 00 	nop 
4000bec0:	01 00 00 00 	nop 
4000bec4:	01 00 00 00 	nop 
4000bec8:	11 10 00 36 	sethi  %hi(0x4000d800), %o0
4000becc:	90 12 21 f4 	or  %o0, 0x1f4, %o0	! 4000d9f4 <nestcount>
4000bed0:	d2 02 00 00 	ld  [ %o0 ], %o1
4000bed4:	92 22 60 01 	dec  %o1
4000bed8:	d2 22 00 00 	st  %o1, [ %o0 ]
4000bedc:	10 80 01 80 	b  4000c4dc <leonbare_trapreturn_fast>
4000bee0:	ac 10 00 00 	mov  %g0, %l6

4000bee4 <chained_catch_interrupt>:
4000bee4:	1b 10 00 37 	sethi  %hi(0x4000dc00), %o5
4000bee8:	9a 13 61 1c 	or  %o5, 0x11c, %o5	! 4000dd1c <_irqtbl>
4000beec:	91 2a 20 02 	sll  %o0, 2, %o0
4000bef0:	c2 03 40 08 	ld  [ %o5 + %o0 ], %g1
4000bef4:	c2 22 60 0c 	st  %g1, [ %o1 + 0xc ]
4000bef8:	81 c3 e0 08 	retl 
4000befc:	d2 23 40 08 	st  %o1, [ %o5 + %o0 ]

4000bf00 <catch_interrupt>:
4000bf00:	9d e3 bf 98 	save  %sp, -104, %sp
4000bf04:	03 10 00 37 	sethi  %hi(0x4000dc00), %g1
4000bf08:	82 10 61 1c 	or  %g1, 0x11c, %g1	! 4000dd1c <_irqtbl>
4000bf0c:	9b 2e 60 02 	sll  %i1, 2, %o5
4000bf10:	da 00 40 0d 	ld  [ %g1 + %o5 ], %o5
4000bf14:	03 10 00 36 	sethi  %hi(0x4000d800), %g1
4000bf18:	99 2e 60 04 	sll  %i1, 4, %o4
4000bf1c:	82 10 63 1c 	or  %g1, 0x31c, %g1
4000bf20:	90 10 00 19 	mov  %i1, %o0
4000bf24:	10 80 00 05 	b  4000bf38 <catch_interrupt+0x38>
4000bf28:	92 03 00 01 	add  %o4, %g1, %o1
4000bf2c:	22 80 00 0a 	be,a   4000bf54 <catch_interrupt+0x54>
4000bf30:	c2 02 40 00 	ld  [ %o1 ], %g1
4000bf34:	da 03 60 0c 	ld  [ %o5 + 0xc ], %o5
4000bf38:	80 a3 60 00 	cmp  %o5, 0
4000bf3c:	12 bf ff fc 	bne  4000bf2c <catch_interrupt+0x2c>
4000bf40:	80 a3 40 09 	cmp  %o5, %o1
4000bf44:	7f ff ff e8 	call  4000bee4 <chained_catch_interrupt>
4000bf48:	f0 22 40 00 	st  %i0, [ %o1 ]
4000bf4c:	10 80 00 03 	b  4000bf58 <catch_interrupt+0x58>
4000bf50:	82 10 20 00 	clr  %g1
4000bf54:	f0 22 40 00 	st  %i0, [ %o1 ]
4000bf58:	81 c7 e0 08 	ret 
4000bf5c:	91 e8 00 01 	restore  %g0, %g1, %o0

4000bf60 <handler_irq>:
4000bf60:	9d e3 bf 98 	save  %sp, -104, %sp
4000bf64:	1b 10 00 36 	sethi  %hi(0x4000d800), %o5
4000bf68:	82 13 61 f8 	or  %o5, 0x1f8, %g1	! 4000d9f8 <irqmp>
4000bf6c:	d8 00 60 04 	ld  [ %g1 + 4 ], %o4
4000bf70:	80 a3 00 18 	cmp  %o4, %i0
4000bf74:	02 80 00 23 	be  4000c000 <handler_irq+0xa0>
4000bf78:	c2 03 61 f8 	ld  [ %o5 + 0x1f8 ], %g1
4000bf7c:	80 a6 20 00 	cmp  %i0, 0
4000bf80:	22 80 00 02 	be,a   4000bf88 <handler_irq+0x28>
4000bf84:	b0 10 00 0c 	mov  %o4, %i0
4000bf88:	03 10 00 37 	sethi  %hi(0x4000dc00), %g1
4000bf8c:	9b 2e 20 02 	sll  %i0, 2, %o5
4000bf90:	82 10 61 1c 	or  %g1, 0x11c, %g1
4000bf94:	e0 00 40 0d 	ld  [ %g1 + %o5 ], %l0
4000bf98:	80 a4 20 00 	cmp  %l0, 0
4000bf9c:	02 80 00 1c 	be  4000c00c <handler_irq+0xac>
4000bfa0:	a4 10 20 01 	mov  1, %l2
4000bfa4:	10 80 00 07 	b  4000bfc0 <handler_irq+0x60>
4000bfa8:	da 04 00 00 	ld  [ %l0 ], %o5
4000bfac:	e0 04 20 0c 	ld  [ %l0 + 0xc ], %l0
4000bfb0:	80 a4 20 00 	cmp  %l0, 0
4000bfb4:	02 80 00 16 	be  4000c00c <handler_irq+0xac>
4000bfb8:	01 00 00 00 	nop 
4000bfbc:	da 04 00 00 	ld  [ %l0 ], %o5
4000bfc0:	80 a3 60 00 	cmp  %o5, 0
4000bfc4:	02 bf ff fa 	be  4000bfac <handler_irq+0x4c>
4000bfc8:	23 10 00 36 	sethi  %hi(0x4000d800), %l1
4000bfcc:	c2 04 63 18 	ld  [ %l1 + 0x318 ], %g1	! 4000db18 <inirq>
4000bfd0:	90 10 00 18 	mov  %i0, %o0
4000bfd4:	80 a0 60 00 	cmp  %g1, 0
4000bfd8:	12 bf ff f5 	bne  4000bfac <handler_irq+0x4c>
4000bfdc:	94 10 00 19 	mov  %i1, %o2
4000bfe0:	d2 04 20 08 	ld  [ %l0 + 8 ], %o1
4000bfe4:	9f c3 40 00 	call  %o5
4000bfe8:	e4 24 63 18 	st  %l2, [ %l1 + 0x318 ]
4000bfec:	e0 04 20 0c 	ld  [ %l0 + 0xc ], %l0
4000bff0:	80 a4 20 00 	cmp  %l0, 0
4000bff4:	12 bf ff f2 	bne  4000bfbc <handler_irq+0x5c>
4000bff8:	c0 24 63 18 	clr  [ %l1 + 0x318 ]
4000bffc:	30 80 00 04 	b,a   4000c00c <handler_irq+0xac>
4000c000:	da 00 60 c0 	ld  [ %g1 + 0xc0 ], %o5
4000c004:	10 bf ff de 	b  4000bf7c <handler_irq+0x1c>
4000c008:	b0 0b 60 1f 	and  %o5, 0x1f, %i0
4000c00c:	81 c7 e0 08 	ret 
4000c010:	81 e8 00 00 	restore 

4000c014 <cpuinit>:
4000c014:	8c 10 00 0f 	mov  %o7, %g6
4000c018:	a7 48 00 00 	rd  %psr, %l3
4000c01c:	8b 34 e0 18 	srl  %l3, 0x18, %g5
4000c020:	8a 09 60 0f 	and  %g5, 0xf, %g5
4000c024:	80 a1 60 03 	cmp  %g5, 3
4000c028:	02 80 00 0c 	be  4000c058 <cpuinit+0x44>
4000c02c:	0b 10 00 36 	sethi  %hi(0x4000d800), %g5
4000c030:	8a 11 61 cc 	or  %g5, 0x1cc, %g5	! 4000d9cc <console>
4000c034:	09 20 00 00 	sethi  %hi(0x80000000), %g4
4000c038:	88 11 20 70 	or  %g4, 0x70, %g4	! 80000070 <LEON_REG+0x70>
4000c03c:	c8 21 40 00 	st  %g4, [ %g5 ]
4000c040:	0b 10 00 36 	sethi  %hi(0x4000d800), %g5
4000c044:	8a 11 61 c8 	or  %g5, 0x1c8, %g5	! 4000d9c8 <rtc>
4000c048:	09 20 00 00 	sethi  %hi(0x80000000), %g4
4000c04c:	88 11 20 40 	or  %g4, 0x40, %g4	! 80000040 <LEON_REG+0x40>
4000c050:	c8 21 40 00 	st  %g4, [ %g5 ]
4000c054:	10 80 00 39 	b  4000c138 <cpuinit+0x124>
4000c058:	90 10 20 01 	mov  1, %o0
4000c05c:	92 10 20 06 	mov  6, %o1
4000c060:	40 00 01 55 	call  4000c5b4 <ahbslv_scan>
4000c064:	01 00 00 00 	nop 
4000c068:	80 a0 00 08 	cmp  %g0, %o0
4000c06c:	02 80 00 33 	be  4000c138 <cpuinit+0x124>
4000c070:	01 00 00 00 	nop 
4000c074:	c2 02 20 10 	ld  [ %o0 + 0x10 ], %g1
4000c078:	11 3f fc 00 	sethi  %hi(0xfff00000), %o0
4000c07c:	82 08 40 08 	and  %g1, %o0, %g1
4000c080:	11 00 03 fc 	sethi  %hi(0xff000), %o0
4000c084:	84 10 40 08 	or  %g1, %o0, %g2
4000c088:	90 10 00 02 	mov  %g2, %o0
4000c08c:	92 10 20 01 	mov  1, %o1
4000c090:	94 10 20 0c 	mov  0xc, %o2
4000c094:	40 00 01 5e 	call  4000c60c <apbslv_scan>
4000c098:	01 00 00 00 	nop 
4000c09c:	80 a0 00 08 	cmp  %g0, %o0
4000c0a0:	02 80 00 26 	be  4000c138 <cpuinit+0x124>
4000c0a4:	01 00 00 00 	nop 
4000c0a8:	40 00 01 6e 	call  4000c660 <iobar_getbase>
4000c0ac:	92 10 00 01 	mov  %g1, %o1
4000c0b0:	0b 10 00 36 	sethi  %hi(0x4000d800), %g5
4000c0b4:	8a 11 61 cc 	or  %g5, 0x1cc, %g5	! 4000d9cc <console>
4000c0b8:	d2 21 40 00 	st  %o1, [ %g5 ]
4000c0bc:	90 10 00 02 	mov  %g2, %o0
4000c0c0:	92 10 20 01 	mov  1, %o1
4000c0c4:	94 10 20 11 	mov  0x11, %o2
4000c0c8:	40 00 01 51 	call  4000c60c <apbslv_scan>
4000c0cc:	01 00 00 00 	nop 
4000c0d0:	80 a0 00 08 	cmp  %g0, %o0
4000c0d4:	02 80 00 19 	be  4000c138 <cpuinit+0x124>
4000c0d8:	01 00 00 00 	nop 
4000c0dc:	40 00 01 61 	call  4000c660 <iobar_getbase>
4000c0e0:	92 10 00 01 	mov  %g1, %o1
4000c0e4:	92 02 60 10 	add  %o1, 0x10, %o1
4000c0e8:	0b 10 00 36 	sethi  %hi(0x4000d800), %g5
4000c0ec:	8a 11 61 c8 	or  %g5, 0x1c8, %g5	! 4000d9c8 <rtc>
4000c0f0:	d2 21 40 00 	st  %o1, [ %g5 ]
4000c0f4:	90 10 00 02 	mov  %g2, %o0
4000c0f8:	92 10 20 01 	mov  1, %o1
4000c0fc:	94 10 20 0d 	mov  0xd, %o2
4000c100:	40 00 01 43 	call  4000c60c <apbslv_scan>
4000c104:	01 00 00 00 	nop 
4000c108:	80 a0 00 08 	cmp  %g0, %o0
4000c10c:	02 80 00 0b 	be  4000c138 <cpuinit+0x124>
4000c110:	01 00 00 00 	nop 
4000c114:	40 00 01 53 	call  4000c660 <iobar_getbase>
4000c118:	92 10 00 01 	mov  %g1, %o1
4000c11c:	0b 10 00 36 	sethi  %hi(0x4000d800), %g5
4000c120:	8a 11 61 f8 	or  %g5, 0x1f8, %g5	! 4000d9f8 <irqmp>
4000c124:	d2 21 40 00 	st  %o1, [ %g5 ]
4000c128:	d4 02 60 10 	ld  [ %o1 + 0x10 ], %o2
4000c12c:	95 32 a0 10 	srl  %o2, 0x10, %o2
4000c130:	94 0a a0 0f 	and  %o2, 0xf, %o2
4000c134:	d4 21 60 04 	st  %o2, [ %g5 + 4 ]
4000c138:	9e 10 00 06 	mov  %g6, %o7
4000c13c:	81 c3 e0 08 	retl 
4000c140:	01 00 00 00 	nop 
4000c144:	03 10 00 36 	sethi  %hi(0x4000d800), %g1
4000c148:	82 10 62 10 	or  %g1, 0x210, %g1	! 4000da10 <jiffies_64>

4000c14c <_hardreset_real>:
4000c14c:	01 00 00 00 	nop 

4000c150 <_hardreset>:
4000c150:	03 10 00 30 	sethi  %hi(0x4000c000), %g1
4000c154:	82 10 62 14 	or  %g1, 0x214, %g1	! 4000c214 <_hardreset_custom_weak>
4000c158:	9f c0 40 00 	call  %g1
4000c15c:	01 00 00 00 	nop 
4000c160:	03 10 00 00 	sethi  %hi(0x40000000), %g1
4000c164:	82 10 60 00 	mov  %g1, %g1	! 40000000 <_trap_table>
4000c168:	81 98 40 00 	mov  %g1, %tbr
4000c16c:	03 10 00 30 	sethi  %hi(0x4000c000), %g1
4000c170:	82 10 62 98 	or  %g1, 0x298, %g1	! 4000c298 <_hardreset_custom_svt_weak>
4000c174:	9f c0 40 00 	call  %g1
4000c178:	01 00 00 00 	nop 
4000c17c:	03 10 00 30 	sethi  %hi(0x4000c000), %g1
4000c180:	82 10 62 04 	or  %g1, 0x204, %g1	! 4000c204 <_cleanregs_libgloss>
4000c184:	9f c0 40 00 	call  %g1
4000c188:	01 00 00 00 	nop 
4000c18c:	8b 48 00 00 	rd  %psr, %g5
4000c190:	8b 31 60 18 	srl  %g5, 0x18, %g5
4000c194:	8a 09 60 03 	and  %g5, 3, %g5
4000c198:	80 a1 60 03 	cmp  %g5, 3
4000c19c:	12 80 00 07 	bne  4000c1b8 <callcpuinit>
4000c1a0:	01 00 00 00 	nop 
4000c1a4:	8b 44 40 00 	rd  %asr17, %g5
4000c1a8:	8b 31 60 1c 	srl  %g5, 0x1c, %g5
4000c1ac:	80 a1 40 00 	cmp  %g5, %g0
4000c1b0:	12 80 00 04 	bne  4000c1c0 <slavego>
4000c1b4:	01 00 00 00 	nop 

4000c1b8 <callcpuinit>:
4000c1b8:	7f ff ff 97 	call  4000c014 <cpuinit>
4000c1bc:	01 00 00 00 	nop 

4000c1c0 <slavego>:
4000c1c0:	9c 23 a0 40 	sub  %sp, 0x40, %sp
4000c1c4:	7f ff cf 92 	call  4000000c <_start>
4000c1c8:	01 00 00 00 	nop 
4000c1cc:	82 10 20 01 	mov  1, %g1	! 1 <_trap_table-0x3fffffff>
4000c1d0:	91 d0 20 00 	ta  0
4000c1d4:	01 00 00 00 	nop 

4000c1d8 <_fpdis>:
4000c1d8:	29 00 00 04 	sethi  %hi(0x1000), %l4
4000c1dc:	a6 8c 00 14 	andcc  %l0, %l4, %l3
4000c1e0:	32 80 00 03 	bne,a   4000c1ec <_fpdis+0x14>
4000c1e4:	a0 2c 00 14 	andn  %l0, %l4, %l0
4000c1e8:	91 d0 20 00 	ta  0
4000c1ec:	81 8c 00 00 	mov  %l0, %psr
4000c1f0:	01 00 00 00 	nop 
4000c1f4:	01 00 00 00 	nop 
4000c1f8:	01 00 00 00 	nop 
4000c1fc:	81 c4 80 00 	jmp  %l2
4000c200:	81 cc a0 04 	rett  %l2 + 4

4000c204 <_cleanregs_libgloss>:
4000c204:	81 c3 e0 08 	retl 
4000c208:	01 00 00 00 	nop 
4000c20c:	81 c1 e0 08 	jmp  %g7 + 8
4000c210:	01 00 00 00 	nop 

4000c214 <_hardreset_custom_weak>:
4000c214:	a7 48 00 00 	rd  %psr, %l3
4000c218:	8b 34 e0 18 	srl  %l3, 0x18, %g5
4000c21c:	8a 09 60 03 	and  %g5, 3, %g5
4000c220:	80 a1 60 03 	cmp  %g5, 3
4000c224:	12 80 00 08 	bne  4000c244 <_hardreset_custom_weak+0x30>
4000c228:	01 00 00 00 	nop 
4000c22c:	21 10 00 36 	sethi  %hi(0x4000d800), %l0
4000c230:	a0 14 22 0c 	or  %l0, 0x20c, %l0	! 4000da0c <_leon_version>
4000c234:	a2 10 20 03 	mov  3, %l1
4000c238:	e2 24 00 00 	st  %l1, [ %l0 ]
4000c23c:	8b 44 40 00 	rd  %asr17, %g5
4000c240:	10 80 00 08 	b  4000c260 <_hardreset_custom_weak+0x4c>
4000c244:	21 10 00 36 	sethi  %hi(0x4000d800), %l0
4000c248:	a0 14 22 0c 	or  %l0, 0x20c, %l0	! 4000da0c <_leon_version>
4000c24c:	a2 10 20 02 	mov  2, %l1
4000c250:	e2 24 00 00 	st  %l1, [ %l0 ]
4000c254:	21 20 00 00 	sethi  %hi(0x80000000), %l0
4000c258:	e6 04 20 24 	ld  [ %l0 + 0x24 ], %l3	! 80000024 <LEON_REG+0x24>
4000c25c:	8b 34 e0 14 	srl  %l3, 0x14, %g5
4000c260:	8a 09 60 1f 	and  %g5, 0x1f, %g5
4000c264:	27 10 00 36 	sethi  %hi(0x4000d800), %l3
4000c268:	a6 14 e2 04 	or  %l3, 0x204, %l3	! 4000da04 <_nwindows_min1>
4000c26c:	ca 24 c0 00 	st  %g5, [ %l3 ]
4000c270:	8a 01 60 01 	inc  %g5
4000c274:	27 10 00 36 	sethi  %hi(0x4000d800), %l3
4000c278:	a6 14 e2 00 	or  %l3, 0x200, %l3	! 4000da00 <_nwindows>
4000c27c:	ca 24 c0 00 	st  %g5, [ %l3 ]
4000c280:	27 10 00 36 	sethi  %hi(0x4000d800), %l3
4000c284:	a6 14 e2 08 	or  %l3, 0x208, %l3	! 4000da08 <_nwindows_min2>
4000c288:	8a 21 60 02 	sub  %g5, 2, %g5
4000c28c:	ca 24 c0 00 	st  %g5, [ %l3 ]
4000c290:	81 c3 e0 08 	retl 
4000c294:	01 00 00 00 	nop 

4000c298 <_hardreset_custom_svt_weak>:
4000c298:	81 c3 e0 08 	retl 
4000c29c:	01 00 00 00 	nop 

4000c2a0 <_srmmu_fault>:
4000c2a0:	91 d0 20 00 	ta  0
4000c2a4:	01 00 00 00 	nop 
4000c2a8:	01 00 00 00 	nop 
4000c2ac:	01 00 00 00 	nop 
4000c2b0:	81 c4 40 00 	jmp  %l1
4000c2b4:	81 cc 80 00 	rett  %l2

4000c2b8 <leonbare_trapsetup>:
4000c2b8:	aa 27 a0 b0 	sub  %fp, 0xb0, %l5
4000c2bc:	e0 25 60 60 	st  %l0, [ %l5 + 0x60 ]
4000c2c0:	e2 25 60 64 	st  %l1, [ %l5 + 0x64 ]
4000c2c4:	e4 25 60 68 	st  %l2, [ %l5 + 0x68 ]
4000c2c8:	c2 25 60 74 	st  %g1, [ %l5 + 0x74 ]
4000c2cc:	c4 3d 60 78 	std  %g2, [ %l5 + 0x78 ]
4000c2d0:	c8 3d 60 80 	std  %g4, [ %l5 + 0x80 ]
4000c2d4:	cc 3d 60 88 	std  %g6, [ %l5 + 0x88 ]
4000c2d8:	85 40 00 00 	rd  %y, %g2
4000c2dc:	c4 25 60 6c 	st  %g2, [ %l5 + 0x6c ]
4000c2e0:	f0 3d 60 90 	std  %i0, [ %l5 + 0x90 ]
4000c2e4:	f4 3d 60 98 	std  %i2, [ %l5 + 0x98 ]
4000c2e8:	f8 3d 60 a0 	std  %i4, [ %l5 + 0xa0 ]
4000c2ec:	fc 3d 60 a8 	std  %fp, [ %l5 + 0xa8 ]
4000c2f0:	a8 10 20 01 	mov  1, %l4
4000c2f4:	a9 2d 00 10 	sll  %l4, %l0, %l4
4000c2f8:	80 8d 00 13 	btst  %l4, %l3
4000c2fc:	02 80 00 13 	be  4000c348 <leonbare_trapsetup+0x90>
4000c300:	01 00 00 00 	nop 
4000c304:	85 34 e0 01 	srl  %l3, 1, %g2
4000c308:	07 10 00 36 	sethi  %hi(0x4000d800), %g3
4000c30c:	c6 00 e2 04 	ld  [ %g3 + 0x204 ], %g3	! 4000da04 <_nwindows_min1>
4000c310:	a7 2c c0 03 	sll  %l3, %g3, %l3
4000c314:	84 14 c0 02 	or  %l3, %g2, %g2
4000c318:	84 08 a0 ff 	and  %g2, 0xff, %g2
4000c31c:	81 e0 00 00 	save 
4000c320:	81 90 a0 00 	mov  %g2, %wim
4000c324:	e0 3b a0 00 	std  %l0, [ %sp ]
4000c328:	e4 3b a0 08 	std  %l2, [ %sp + 8 ]
4000c32c:	e8 3b a0 10 	std  %l4, [ %sp + 0x10 ]
4000c330:	ec 3b a0 18 	std  %l6, [ %sp + 0x18 ]
4000c334:	f0 3b a0 20 	std  %i0, [ %sp + 0x20 ]
4000c338:	f4 3b a0 28 	std  %i2, [ %sp + 0x28 ]
4000c33c:	f8 3b a0 30 	std  %i4, [ %sp + 0x30 ]
4000c340:	fc 3b a0 38 	std  %fp, [ %sp + 0x38 ]
4000c344:	81 e8 00 00 	restore 
4000c348:	81 c5 a0 08 	jmp  %l6 + 8
4000c34c:	9c 10 00 15 	mov  %l5, %sp

4000c350 <leonbare_trapreturn>:
4000c350:	05 10 00 36 	sethi  %hi(0x4000d800), %g2
4000c354:	84 10 a3 14 	or  %g2, 0x314, %g2	! 4000db14 <schedule_callback>
4000c358:	c4 00 80 00 	ld  [ %g2 ], %g2
4000c35c:	80 a0 80 00 	cmp  %g2, %g0
4000c360:	02 80 00 04 	be  4000c370 <leonbare_trapreturn+0x20>
4000c364:	01 00 00 00 	nop 
4000c368:	9f c0 80 00 	call  %g2
4000c36c:	92 03 a0 60 	add  %sp, 0x60, %o1
4000c370:	81 8c 20 00 	mov  %l0, %psr
4000c374:	82 10 20 02 	mov  2, %g1
4000c378:	83 28 40 10 	sll  %g1, %l0, %g1
4000c37c:	05 10 00 36 	sethi  %hi(0x4000d800), %g2
4000c380:	c4 00 a2 00 	ld  [ %g2 + 0x200 ], %g2	! 4000da00 <_nwindows>
4000c384:	85 30 40 02 	srl  %g1, %g2, %g2
4000c388:	82 10 40 02 	or  %g1, %g2, %g1
4000c38c:	85 50 00 00 	rd  %wim, %g2
4000c390:	80 88 80 01 	btst  %g2, %g1
4000c394:	02 80 00 20 	be  4000c414 <leonbare_trapreturn+0xc4>
4000c398:	83 28 a0 01 	sll  %g2, 1, %g1
4000c39c:	07 10 00 36 	sethi  %hi(0x4000d800), %g3
4000c3a0:	c6 00 e2 04 	ld  [ %g3 + 0x204 ], %g3	! 4000da04 <_nwindows_min1>
4000c3a4:	85 30 80 03 	srl  %g2, %g3, %g2
4000c3a8:	82 10 40 02 	or  %g1, %g2, %g1
4000c3ac:	82 08 60 ff 	and  %g1, 0xff, %g1
4000c3b0:	81 90 60 00 	mov  %g1, %wim
4000c3b4:	c2 03 a0 6c 	ld  [ %sp + 0x6c ], %g1
4000c3b8:	81 80 60 00 	mov  %g1, %y
4000c3bc:	f0 1b a0 90 	ldd  [ %sp + 0x90 ], %i0
4000c3c0:	f4 1b a0 98 	ldd  [ %sp + 0x98 ], %i2
4000c3c4:	f8 1b a0 a0 	ldd  [ %sp + 0xa0 ], %i4
4000c3c8:	fc 1b a0 a8 	ldd  [ %sp + 0xa8 ], %fp
4000c3cc:	c2 03 a0 74 	ld  [ %sp + 0x74 ], %g1
4000c3d0:	c4 1b a0 78 	ldd  [ %sp + 0x78 ], %g2
4000c3d4:	c8 1b a0 80 	ldd  [ %sp + 0x80 ], %g4
4000c3d8:	cc 1b a0 88 	ldd  [ %sp + 0x88 ], %g6
4000c3dc:	e0 03 a0 60 	ld  [ %sp + 0x60 ], %l0
4000c3e0:	e2 03 a0 64 	ld  [ %sp + 0x64 ], %l1
4000c3e4:	e4 03 a0 68 	ld  [ %sp + 0x68 ], %l2
4000c3e8:	81 e8 00 00 	restore 
4000c3ec:	e0 1b a0 00 	ldd  [ %sp ], %l0
4000c3f0:	e4 1b a0 08 	ldd  [ %sp + 8 ], %l2
4000c3f4:	e8 1b a0 10 	ldd  [ %sp + 0x10 ], %l4
4000c3f8:	ec 1b a0 18 	ldd  [ %sp + 0x18 ], %l6
4000c3fc:	f0 1b a0 20 	ldd  [ %sp + 0x20 ], %i0
4000c400:	f4 1b a0 28 	ldd  [ %sp + 0x28 ], %i2
4000c404:	f8 1b a0 30 	ldd  [ %sp + 0x30 ], %i4
4000c408:	fc 1b a0 38 	ldd  [ %sp + 0x38 ], %fp
4000c40c:	10 80 00 0f 	b  4000c448 <leonbare_trapreturn+0xf8>
4000c410:	81 e0 00 00 	save 
4000c414:	c2 03 a0 6c 	ld  [ %sp + 0x6c ], %g1
4000c418:	81 80 60 00 	mov  %g1, %y
4000c41c:	f0 1b a0 90 	ldd  [ %sp + 0x90 ], %i0
4000c420:	f4 1b a0 98 	ldd  [ %sp + 0x98 ], %i2
4000c424:	f8 1b a0 a0 	ldd  [ %sp + 0xa0 ], %i4
4000c428:	fc 1b a0 a8 	ldd  [ %sp + 0xa8 ], %fp
4000c42c:	c2 03 a0 74 	ld  [ %sp + 0x74 ], %g1
4000c430:	c4 1b a0 78 	ldd  [ %sp + 0x78 ], %g2
4000c434:	c8 1b a0 80 	ldd  [ %sp + 0x80 ], %g4
4000c438:	cc 1b a0 88 	ldd  [ %sp + 0x88 ], %g6
4000c43c:	e0 03 a0 60 	ld  [ %sp + 0x60 ], %l0
4000c440:	e2 03 a0 64 	ld  [ %sp + 0x64 ], %l1
4000c444:	e4 03 a0 68 	ld  [ %sp + 0x68 ], %l2
4000c448:	81 8c 20 00 	mov  %l0, %psr
4000c44c:	01 00 00 00 	nop 
4000c450:	01 00 00 00 	nop 
4000c454:	01 00 00 00 	nop 
4000c458:	81 c4 40 00 	jmp  %l1
4000c45c:	81 cc 80 00 	rett  %l2

4000c460 <leonbare_trapsetup_fast>:
4000c460:	aa 27 a0 b0 	sub  %fp, 0xb0, %l5
4000c464:	c2 25 60 74 	st  %g1, [ %l5 + 0x74 ]
4000c468:	c4 3d 60 78 	std  %g2, [ %l5 + 0x78 ]
4000c46c:	c8 3d 60 80 	std  %g4, [ %l5 + 0x80 ]
4000c470:	cc 3d 60 88 	std  %g6, [ %l5 + 0x88 ]
4000c474:	85 40 00 00 	rd  %y, %g2
4000c478:	c4 25 60 6c 	st  %g2, [ %l5 + 0x6c ]
4000c47c:	a8 10 20 01 	mov  1, %l4
4000c480:	a9 2d 00 10 	sll  %l4, %l0, %l4
4000c484:	80 8d 00 13 	btst  %l4, %l3
4000c488:	02 80 00 13 	be  4000c4d4 <leonbare_trapsetup_fast+0x74>
4000c48c:	01 00 00 00 	nop 
4000c490:	85 34 e0 01 	srl  %l3, 1, %g2
4000c494:	07 10 00 36 	sethi  %hi(0x4000d800), %g3
4000c498:	c6 00 e2 04 	ld  [ %g3 + 0x204 ], %g3	! 4000da04 <_nwindows_min1>
4000c49c:	a7 2c c0 03 	sll  %l3, %g3, %l3
4000c4a0:	84 14 c0 02 	or  %l3, %g2, %g2
4000c4a4:	84 08 a0 ff 	and  %g2, 0xff, %g2
4000c4a8:	81 e0 00 00 	save 
4000c4ac:	81 90 a0 00 	mov  %g2, %wim
4000c4b0:	e0 3b a0 00 	std  %l0, [ %sp ]
4000c4b4:	e4 3b a0 08 	std  %l2, [ %sp + 8 ]
4000c4b8:	e8 3b a0 10 	std  %l4, [ %sp + 0x10 ]
4000c4bc:	ec 3b a0 18 	std  %l6, [ %sp + 0x18 ]
4000c4c0:	f0 3b a0 20 	std  %i0, [ %sp + 0x20 ]
4000c4c4:	f4 3b a0 28 	std  %i2, [ %sp + 0x28 ]
4000c4c8:	f8 3b a0 30 	std  %i4, [ %sp + 0x30 ]
4000c4cc:	fc 3b a0 38 	std  %fp, [ %sp + 0x38 ]
4000c4d0:	81 e8 00 00 	restore 
4000c4d4:	81 c5 a0 08 	jmp  %l6 + 8
4000c4d8:	9c 10 00 15 	mov  %l5, %sp

4000c4dc <leonbare_trapreturn_fast>:
4000c4dc:	05 10 00 36 	sethi  %hi(0x4000d800), %g2
4000c4e0:	84 10 a3 14 	or  %g2, 0x314, %g2	! 4000db14 <schedule_callback>
4000c4e4:	c4 00 80 00 	ld  [ %g2 ], %g2
4000c4e8:	80 a0 80 00 	cmp  %g2, %g0
4000c4ec:	02 80 00 04 	be  4000c4fc <leonbare_trapreturn_fast+0x20>
4000c4f0:	01 00 00 00 	nop 
4000c4f4:	9f c0 80 00 	call  %g2
4000c4f8:	92 03 a0 60 	add  %sp, 0x60, %o1
4000c4fc:	81 8c 20 00 	mov  %l0, %psr
4000c500:	82 10 20 02 	mov  2, %g1
4000c504:	83 28 40 10 	sll  %g1, %l0, %g1
4000c508:	05 10 00 36 	sethi  %hi(0x4000d800), %g2
4000c50c:	c4 00 a2 00 	ld  [ %g2 + 0x200 ], %g2	! 4000da00 <_nwindows>
4000c510:	85 30 40 02 	srl  %g1, %g2, %g2
4000c514:	82 10 40 02 	or  %g1, %g2, %g1
4000c518:	85 50 00 00 	rd  %wim, %g2
4000c51c:	80 88 80 01 	btst  %g2, %g1
4000c520:	02 80 00 19 	be  4000c584 <leonbare_trapreturn_fast+0xa8>
4000c524:	83 28 a0 01 	sll  %g2, 1, %g1
4000c528:	07 10 00 36 	sethi  %hi(0x4000d800), %g3
4000c52c:	c6 00 e2 04 	ld  [ %g3 + 0x204 ], %g3	! 4000da04 <_nwindows_min1>
4000c530:	85 30 80 03 	srl  %g2, %g3, %g2
4000c534:	82 10 40 02 	or  %g1, %g2, %g1
4000c538:	82 08 60 ff 	and  %g1, 0xff, %g1
4000c53c:	81 90 60 00 	mov  %g1, %wim
4000c540:	c2 03 a0 6c 	ld  [ %sp + 0x6c ], %g1
4000c544:	81 80 60 00 	mov  %g1, %y
4000c548:	c2 03 a0 74 	ld  [ %sp + 0x74 ], %g1
4000c54c:	c4 1b a0 78 	ldd  [ %sp + 0x78 ], %g2
4000c550:	c8 1b a0 80 	ldd  [ %sp + 0x80 ], %g4
4000c554:	cc 1b a0 88 	ldd  [ %sp + 0x88 ], %g6
4000c558:	81 e8 00 00 	restore 
4000c55c:	e0 1b a0 00 	ldd  [ %sp ], %l0
4000c560:	e4 1b a0 08 	ldd  [ %sp + 8 ], %l2
4000c564:	e8 1b a0 10 	ldd  [ %sp + 0x10 ], %l4
4000c568:	ec 1b a0 18 	ldd  [ %sp + 0x18 ], %l6
4000c56c:	f0 1b a0 20 	ldd  [ %sp + 0x20 ], %i0
4000c570:	f4 1b a0 28 	ldd  [ %sp + 0x28 ], %i2
4000c574:	f8 1b a0 30 	ldd  [ %sp + 0x30 ], %i4
4000c578:	fc 1b a0 38 	ldd  [ %sp + 0x38 ], %fp
4000c57c:	10 80 00 08 	b  4000c59c <leonbare_trapreturn_fast+0xc0>
4000c580:	81 e0 00 00 	save 
4000c584:	c2 03 a0 6c 	ld  [ %sp + 0x6c ], %g1
4000c588:	81 80 60 00 	mov  %g1, %y
4000c58c:	c2 03 a0 74 	ld  [ %sp + 0x74 ], %g1
4000c590:	c4 1b a0 78 	ldd  [ %sp + 0x78 ], %g2
4000c594:	c8 1b a0 80 	ldd  [ %sp + 0x80 ], %g4
4000c598:	cc 1b a0 88 	ldd  [ %sp + 0x88 ], %g6
4000c59c:	81 8c 20 00 	mov  %l0, %psr
4000c5a0:	01 00 00 00 	nop 
4000c5a4:	01 00 00 00 	nop 
4000c5a8:	01 00 00 00 	nop 
4000c5ac:	81 c4 40 00 	jmp  %l1
4000c5b0:	81 cc 80 00 	rett  %l2

4000c5b4 <ahbslv_scan>:
4000c5b4:	82 10 00 08 	mov  %o0, %g1
4000c5b8:	9a 10 38 00 	mov  -2048, %o5
4000c5bc:	96 10 20 00 	clr  %o3
4000c5c0:	91 2a e0 05 	sll  %o3, 5, %o0
4000c5c4:	98 03 40 08 	add  %o5, %o0, %o4
4000c5c8:	d4 03 40 08 	ld  [ %o5 + %o0 ], %o2
4000c5cc:	91 32 a0 18 	srl  %o2, 0x18, %o0
4000c5d0:	80 a2 00 01 	cmp  %o0, %g1
4000c5d4:	32 80 00 08 	bne,a   4000c5f4 <ahbslv_scan+0x40>
4000c5d8:	96 02 e0 01 	inc  %o3
4000c5dc:	91 32 a0 0c 	srl  %o2, 0xc, %o0
4000c5e0:	90 0a 2f ff 	and  %o0, 0xfff, %o0
4000c5e4:	80 a2 00 09 	cmp  %o0, %o1
4000c5e8:	02 80 00 07 	be  4000c604 <ahbslv_scan+0x50>
4000c5ec:	94 10 00 0c 	mov  %o4, %o2
4000c5f0:	96 02 e0 01 	inc  %o3
4000c5f4:	80 a2 e0 07 	cmp  %o3, 7
4000c5f8:	28 bf ff f3 	bleu,a   4000c5c4 <ahbslv_scan+0x10>
4000c5fc:	91 2a e0 05 	sll  %o3, 5, %o0
4000c600:	94 10 20 00 	clr  %o2
4000c604:	81 c3 e0 08 	retl 
4000c608:	90 10 00 0a 	mov  %o2, %o0

4000c60c <apbslv_scan>:
4000c60c:	82 10 00 08 	mov  %o0, %g1
4000c610:	98 10 20 00 	clr  %o4
4000c614:	91 2b 20 03 	sll  %o4, 3, %o0
4000c618:	9a 00 40 08 	add  %g1, %o0, %o5
4000c61c:	d6 00 40 08 	ld  [ %g1 + %o0 ], %o3
4000c620:	91 32 e0 18 	srl  %o3, 0x18, %o0
4000c624:	80 a2 00 09 	cmp  %o0, %o1
4000c628:	32 80 00 08 	bne,a   4000c648 <apbslv_scan+0x3c>
4000c62c:	98 03 20 01 	inc  %o4
4000c630:	91 32 e0 0c 	srl  %o3, 0xc, %o0
4000c634:	90 0a 2f ff 	and  %o0, 0xfff, %o0
4000c638:	80 a2 00 0a 	cmp  %o0, %o2
4000c63c:	02 80 00 07 	be  4000c658 <apbslv_scan+0x4c>
4000c640:	96 10 00 0d 	mov  %o5, %o3
4000c644:	98 03 20 01 	inc  %o4
4000c648:	80 a3 20 0f 	cmp  %o4, 0xf
4000c64c:	28 bf ff f3 	bleu,a   4000c618 <apbslv_scan+0xc>
4000c650:	91 2b 20 03 	sll  %o4, 3, %o0
4000c654:	96 10 20 00 	clr  %o3
4000c658:	81 c3 e0 08 	retl 
4000c65c:	90 10 00 0b 	mov  %o3, %o0

4000c660 <iobar_getbase>:
4000c660:	d4 02 20 04 	ld  [ %o0 + 4 ], %o2
4000c664:	17 3f fc 00 	sethi  %hi(0xfff00000), %o3
4000c668:	92 0a 40 0b 	and  %o1, %o3, %o1
4000c66c:	90 0a 80 0b 	and  %o2, %o3, %o0
4000c670:	91 32 20 0c 	srl  %o0, 0xc, %o0
4000c674:	92 12 40 08 	or  %o1, %o0, %o1
4000c678:	11 00 00 3f 	sethi  %hi(0xfc00), %o0
4000c67c:	90 12 23 f0 	or  %o0, 0x3f0, %o0	! fff0 <_trap_table-0x3fff0010>
4000c680:	94 0a 80 08 	and  %o2, %o0, %o2
4000c684:	95 2a a0 04 	sll  %o2, 4, %o2
4000c688:	94 12 80 0b 	or  %o2, %o3, %o2
4000c68c:	92 0a 40 0a 	and  %o1, %o2, %o1
4000c690:	81 c3 e0 08 	retl 
4000c694:	90 10 00 09 	mov  %o1, %o0

4000c698 <__errno>:
4000c698:	03 10 00 36 	sethi  %hi(0x4000d800), %g1
4000c69c:	81 c3 e0 08 	retl 
4000c6a0:	d0 00 61 a8 	ld  [ %g1 + 0x1a8 ], %o0	! 4000d9a8 <_impure_ptr>

4000c6a4 <__do_global_ctors_aux>:
4000c6a4:	9d e3 bf 98 	save  %sp, -104, %sp
4000c6a8:	03 10 00 31 	sethi  %hi(0x4000c400), %g1
4000c6ac:	82 10 63 08 	or  %g1, 0x308, %g1	! 4000c708 <__CTOR_END__>
4000c6b0:	da 00 7f fc 	ld  [ %g1 + -4 ], %o5
4000c6b4:	80 a3 7f ff 	cmp  %o5, -1
4000c6b8:	02 80 00 09 	be  4000c6dc <__do_global_ctors_aux+0x38>
4000c6bc:	a0 00 7f fc 	add  %g1, -4, %l0
4000c6c0:	82 10 00 0d 	mov  %o5, %g1
4000c6c4:	9f c0 40 00 	call  %g1
4000c6c8:	a0 04 3f fc 	add  %l0, -4, %l0
4000c6cc:	c2 04 00 00 	ld  [ %l0 ], %g1
4000c6d0:	80 a0 7f ff 	cmp  %g1, -1
4000c6d4:	12 bf ff fc 	bne  4000c6c4 <__do_global_ctors_aux+0x20>
4000c6d8:	01 00 00 00 	nop 
4000c6dc:	81 c7 e0 08 	ret 
4000c6e0:	81 e8 00 00 	restore 

4000c6e4 <call___do_global_ctors_aux>:
4000c6e4:	9d e3 bf 98 	save  %sp, -104, %sp
4000c6e8:	81 c7 e0 08 	ret 
4000c6ec:	81 e8 00 00 	restore 

4000c6f0 <__EH_FRAME_BEGIN__>:
	...

4000c700 <___CTOR_LIST__>:
4000c700:	00 00 00 02 	unimp  0x2

4000c704 <__CTOR_LIST__>:
4000c704:	ff ff ff ff                                         ....

4000c708 <__CTOR_END__>:
	...

4000c710 <___CTOR_END__>:
4000c710:	00 00 00 02 	unimp  0x2

4000c714 <__DTOR_LIST__>:
4000c714:	ff ff ff ff                                         ....

4000c718 <__DTOR_END__>:
	...

4000c720 <___DTOR_END__>:
4000c720:	20 45 72 72 	unknown
4000c724:	6f 72 20 69 	call  fdc948c8 <LEON_REG+0x7dc948c8>
4000c728:	6e 20 50 65 	call  f88208bc <LEON_REG+0x788208bc>
4000c72c:	72 6d 2e 00 	call  9b57f2c <_trap_table-0x364a80d4>
4000c730:	20 45 72 72 	unknown
4000c734:	6f 72 20 69 	call  fdc948d8 <LEON_REG+0x7dc948d8>
4000c738:	6e 20 54 6f 	call  f88218f4 <LEON_REG+0x788218f4>
4000c73c:	77 65 72 73 	call  1d969108 <_trap_table-0x22696ef8>
4000c740:	3a 20 25 73 	unknown
4000c744:	0a 00 00 00 	unknown
4000c748:	6f 75 74 20 	call  fdd697c8 <LEON_REG+0x7dd697c8>
4000c74c:	6f 66 20 73 	call  fd994918 <LEON_REG+0x7d994918>
4000c750:	70 61 63 65 	call  18654e4 <_trap_table-0x3e79ab1c>
4000c754:	20 20 20 00 	unknown
4000c758:	64 69 73 63 	call  d1a694e4 <LEON_REG+0x51a694e4>
4000c75c:	20 73 69 7a 	unknown
4000c760:	65 20 65 72 	call  d4825d28 <LEON_REG+0x54825d28>
4000c764:	72 6f 72 00 	call  9be8f64 <_trap_table-0x3641709c>
4000c768:	6e 6f 74 68 	call  f9be9908 <LEON_REG+0x79be9908>
4000c76c:	69 6e 67 20 	call  e5ba63ec <LEON_REG+0x65ba63ec>
4000c770:	74 6f 20 70 	call  11bd4930 <_trap_table-0x2e42b6d0>
4000c774:	6f 70 20 00 	call  fdc14774 <LEON_REG+0x7dc14774>
4000c778:	20 45 72 72 	unknown
4000c77c:	6f 72 20 69 	call  fdc94920 <LEON_REG+0x7dc94920>
4000c780:	6e 20 54 6f 	call  f882193c <LEON_REG+0x7882193c>
4000c784:	77 65 72 73 	call  1d969150 <_trap_table-0x22696eb0>
4000c788:	2e 00 00 00 	unknown
4000c78c:	00 00 00 00 	unimp  0
4000c790:	20 45 72 72 	unknown
4000c794:	6f 72 20 69 	call  fdc94938 <LEON_REG+0x7dc94938>
4000c798:	6e 20 51 75 	call  f8820d6c <LEON_REG+0x78820d6c>
4000c79c:	65 65 6e 73 	call  d5968168 <LEON_REG+0x55968168>
4000c7a0:	2e 00 00 00 	unknown
4000c7a4:	00 00 00 00 	unimp  0
4000c7a8:	45 72 72 6f 	call  55ca9164 <__end+0x15c8421c>
4000c7ac:	72 31 20 69 	call  8c54950 <_trap_table-0x373ab6b0>
4000c7b0:	6e 20 50 75 	call  f8820984 <LEON_REG+0x78820984>
4000c7b4:	7a 7a 6c 65 	call  29ea7948 <_trap_table-0x161586b8>
4000c7b8:	00 00 00 00 	unimp  0
4000c7bc:	00 00 00 00 	unimp  0
4000c7c0:	45 72 72 6f 	call  55ca917c <__end+0x15c84234>
4000c7c4:	72 33 20 69 	call  8cd4968 <_trap_table-0x3732b698>
4000c7c8:	6e 20 50 75 	call  f882099c <LEON_REG+0x7882099c>
4000c7cc:	7a 7a 6c 65 	call  29ea7960 <_trap_table-0x161586a0>
4000c7d0:	2e 00 00 00 	unknown
4000c7d4:	00 00 00 00 	unimp  0
4000c7d8:	45 72 72 6f 	call  55ca9194 <__end+0x15c8424c>
4000c7dc:	72 32 20 69 	call  8c94980 <_trap_table-0x3736b680>
4000c7e0:	6e 20 50 75 	call  f88209b4 <LEON_REG+0x788209b4>
4000c7e4:	7a 7a 6c 65 	call  29ea7978 <_trap_table-0x16158688>
4000c7e8:	2e 00 00 00 	unknown
4000c7ec:	00 00 00 00 	unimp  0
4000c7f0:	20 45 72 72 	unknown
4000c7f4:	6f 72 20 69 	call  fdc94998 <LEON_REG+0x7dc94998>
4000c7f8:	6e 20 51 75 	call  f8820dcc <LEON_REG+0x78820dcc>
4000c7fc:	69 63 6b 2e 	call  e58e74b4 <LEON_REG+0x658e74b4>
4000c800:	00 00 00 00 	unimp  0
4000c804:	00 00 00 00 	unimp  0
4000c808:	20 45 72 72 	unknown
4000c80c:	6f 72 20 69 	call  fdc949b0 <LEON_REG+0x7dc949b0>
4000c810:	6e 20 54 72 	call  f88219d8 <LEON_REG+0x788219d8>
4000c814:	65 65 2e 00 	call  d5958014 <LEON_REG+0x55958014>
4000c818:	45 72 72 6f 	call  55ca91d4 <__end+0x15c8428c>
4000c81c:	72 33 20 69 	call  8cd49c0 <_trap_table-0x3732b640>
4000c820:	6e 20 42 75 	call  f881d1f4 <LEON_REG+0x7881d1f4>
4000c824:	62 62 6c 65 	call  c98a79b8 <LEON_REG+0x498a79b8>
4000c828:	2e 00 00 00 	unknown
4000c82c:	00 00 00 00 	unimp  0
4000c830:	20 20 25 31 	unknown
4000c834:	35 2e 33 65 	sethi  %hi(0xb8cd9400), %i2
4000c838:	25 31 35 2e 	sethi  %hi(0xc4d4b800), %l2
4000c83c:	33 65 00 00 	unknown
4000c840:	48 61 63 6b 	call  618655ec <__end+0x218406a4>
4000c844:	69 6e 67 20 	call  e5ba64c4 <LEON_REG+0x65ba64c4>
4000c848:	74 68 65 20 	call  11a25cc8 <_trap_table-0x2e5da338>
4000c84c:	6d 65 6d 6f 	call  f5967e08 <LEON_REG+0x75967e08>
4000c850:	72 79 20 63 	call  9e549dc <_trap_table-0x361ab624>
4000c854:	6f 6e 74 72 	call  fdba9a1c <LEON_REG+0x7dba9a1c>
4000c858:	6f 6c 6c 65 	call  fdb279ec <LEON_REG+0x7db279ec>
4000c85c:	72 21 0a 49 	call  884f180 <_trap_table-0x377b0e80>
4000c860:	6e 69 74 69 	call  f9a69a04 <LEON_REG+0x79a69a04>
4000c864:	61 6c 20 76 	call  c5b14a3c <LEON_REG+0x45b14a3c>
4000c868:	61 6c 75 65 	call  c5b29dfc <LEON_REG+0x45b29dfc>
4000c86c:	73 3a 00 00 	call  ce8c86c <_trap_table-0x33173794>
4000c870:	30 78 25 38 	unknown
4000c874:	78 20 28 6d 	call  20816a28 <_trap_table-0x1f7e95d8>
4000c878:	61 70 70 69 	call  c5c28a1c <LEON_REG+0x45c28a1c>
4000c87c:	6e 67 29 3a 	call  f99d6d64 <LEON_REG+0x799d6d64>
4000c880:	09 25 64 0a 	sethi  %hi(0x95902800), %g4
4000c884:	00 00 00 00 	unimp  0
4000c888:	30 78 25 38 	unknown
4000c88c:	78 20 28 68 	call  20816a2c <_trap_table-0x1f7e95d4>
4000c890:	69 64 64 65 	call  e5925a24 <LEON_REG+0x65925a24>
4000c894:	6e 29 3a 09 	call  f8a5b0b8 <LEON_REG+0x78a5b0b8>
4000c898:	25 64 0a 00 	unknown
4000c89c:	00 00 00 00 	unimp  0
4000c8a0:	43 61 6c 6c 	call  4d867a50 <__end+0xd842b08>
4000c8a4:	69 6e 67 20 	call  e5ba6524 <LEON_REG+0x65ba6524>
4000c8a8:	6d 65 6d 6f 	call  f5967e64 <LEON_REG+0x75967e64>
4000c8ac:	72 79 20 68 	call  9e54a4c <_trap_table-0x361ab5b4>
4000c8b0:	61 63 6b 20 	call  c58e7530 <LEON_REG+0x458e7530>
4000c8b4:	74 72 69 67 	call  11ca6e50 <_trap_table-0x2e3591b0>
4000c8b8:	67 65 72 00 	call  dd9690b8 <LEON_REG+0x5d9690b8>
4000c8bc:	00 00 00 00 	unimp  0
4000c8c0:	50 72 65 20 	call  81ca5d40 <LEON_REG+0x1ca5d40>
4000c8c4:	63 61 63 68 	call  cd865664 <LEON_REG+0x4d865664>
4000c8c8:	65 20 66 6c 	call  d4826278 <LEON_REG+0x54826278>
4000c8cc:	75 73 68 20 	call  15ce694c <_trap_table-0x2a3196b4>
4000c8d0:	76 61 6c 75 	call  19867aa4 <_trap_table-0x2679855c>
4000c8d4:	65 73 20 6f 	call  d5cd4a90 <LEON_REG+0x55cd4a90>
4000c8d8:	66 20 6d 61 	call  d8827e5c <LEON_REG+0x58827e5c>
4000c8dc:	70 70 69 6e 	call  1c26e94 <_trap_table-0x3e3d916c>
4000c8e0:	67 20 61 6e 	call  dc824e98 <LEON_REG+0x5c824e98>
4000c8e4:	64 20 68 69 	call  d0826a88 <LEON_REG+0x50826a88>
4000c8e8:	64 64 65 6e 	call  d1925ea0 <LEON_REG+0x51925ea0>
4000c8ec:	3a 00 00 00 	unknown
4000c8f0:	46 6c 75 73 	call  59b29ebc <__end+0x19b04f74>
4000c8f4:	68 69 6e 67 	call  e1a68290 <LEON_REG+0x61a68290>
4000c8f8:	20 74 68 65 	unknown
4000c8fc:	20 63 61 63 	unknown
4000c900:	68 65 00 00 	call  e194c900 <LEON_REG+0x6194c900>
4000c904:	00 00 00 00 	unimp  0
4000c908:	55 73 69 6e 	call  95ce6ec0 <LEON_REG+0x15ce6ec0>
4000c90c:	67 20 74 68 	call  dc829aac <LEON_REG+0x5c829aac>
4000c910:	65 20 6d 61 	call  d4827e94 <LEON_REG+0x54827e94>
4000c914:	70 70 69 6e 	call  1c26ecc <_trap_table-0x3e3d9134>
4000c918:	67 20 74 6f 	call  dc829ad4 <LEON_REG+0x5c829ad4>
4000c91c:	20 66 69 6e 	unknown
4000c920:	64 20 74 68 	call  d0829ac0 <LEON_REG+0x50829ac0>
4000c924:	65 20 68 69 	call  d4826ac8 <LEON_REG+0x54826ac8>
4000c928:	64 64 65 6e 	call  d1925ee0 <LEON_REG+0x51925ee0>
4000c92c:	20 76 61 6c 	unknown
4000c930:	75 65 00 00 	call  1594c930 <_trap_table-0x2a6b36d0>
4000c934:	00 00 00 00 	unimp  0
4000c938:	54 72 79 69 	call  91caaedc <LEON_REG+0x11caaedc>
4000c93c:	6e 67 20 74 	call  f99d4b0c <LEON_REG+0x799d4b0c>
4000c940:	6f 20 77 72 	call  fc82a708 <LEON_REG+0x7c82a708>
4000c944:	69 74 65 20 	call  e5d25dc4 <LEON_REG+0x65d25dc4>
4000c948:	37 37 20 74 	sethi  %hi(0xdc81d000), %i3
4000c94c:	6f 20 74 68 	call  fc829aec <LEON_REG+0x7c829aec>
4000c950:	65 20 68 69 	call  d4826af4 <LEON_REG+0x54826af4>
4000c954:	64 64 65 6e 	call  d1925f0c <LEON_REG+0x51925f0c>
4000c958:	20 61 64 64 	unknown
4000c95c:	72 65 73 73 	call  9969728 <_trap_table-0x366968d8>
4000c960:	20 75 73 69 	unknown
4000c964:	6e 67 20 74 	call  f99d4b34 <LEON_REG+0x799d4b34>
4000c968:	68 65 20 6d 	call  e1954b1c <LEON_REG+0x61954b1c>
4000c96c:	61 70 70 69 	call  c5c28b10 <LEON_REG+0x45c28b10>
4000c970:	6e 67 00 00 	call  f99cc970 <LEON_REG+0x799cc970>
4000c974:	00 00 00 00 	unimp  0
4000c978:	55 6e 64 6f 	call  95ba5b34 <LEON_REG+0x15ba5b34>
4000c97c:	69 6e 67 20 	call  e5ba65fc <LEON_REG+0x65ba65fc>
4000c980:	74 68 65 20 	call  11a25e00 <_trap_table-0x2e5da200>
4000c984:	6d 61 70 70 	call  f5868b44 <LEON_REG+0x75868b44>
4000c988:	69 6e 67 00 	call  e5ba6588 <LEON_REG+0x65ba6588>
4000c98c:	00 00 00 00 	unimp  0
4000c990:	53 74 61 72 	call  8dd24f58 <LEON_REG+0xdd24f58>
4000c994:	74 69 6e 67 	call  11a68330 <_trap_table-0x2e597cd0>
4000c998:	20 00 00 00 	unknown
4000c99c:	00 00 00 00 	unimp  0
4000c9a0:	20 20 20 20 	unknown
4000c9a4:	50 65 72 6d 	call  81969358 <LEON_REG+0x1969358>
4000c9a8:	00 00 00 00 	unimp  0
4000c9ac:	00 00 00 00 	unimp  0
4000c9b0:	20 20 54 6f 	unknown
4000c9b4:	77 65 72 73 	call  1d969380 <_trap_table-0x22696c80>
4000c9b8:	00 00 00 00 	unimp  0
4000c9bc:	00 00 00 00 	unimp  0
4000c9c0:	20 20 51 75 	unknown
4000c9c4:	65 65 6e 73 	call  d5968390 <LEON_REG+0x55968390>
4000c9c8:	00 00 00 00 	unimp  0
4000c9cc:	00 00 00 00 	unimp  0
4000c9d0:	20 20 20 49 	unknown
4000c9d4:	6e 74 6d 6d 	call  f9d27f88 <LEON_REG+0x79d27f88>
4000c9d8:	00 00 00 00 	unimp  0
4000c9dc:	00 00 00 00 	unimp  0
4000c9e0:	20 20 20 20 	unknown
4000c9e4:	20 20 4d 6d 	unknown
	...
4000c9f0:	20 20 50 75 	unknown
4000c9f4:	7a 7a 6c 65 	call  29ea7b88 <_trap_table-0x16158478>
4000c9f8:	00 00 00 00 	unimp  0
4000c9fc:	00 00 00 00 	unimp  0
4000ca00:	20 20 20 51 	unknown
4000ca04:	75 69 63 6b 	call  15a657b0 <_trap_table-0x2a59a850>
4000ca08:	00 00 00 00 	unimp  0
4000ca0c:	00 00 00 00 	unimp  0
4000ca10:	20 20 42 75 	unknown
4000ca14:	62 62 6c 65 	call  c98a7ba8 <LEON_REG+0x498a7ba8>
4000ca18:	00 00 00 00 	unimp  0
4000ca1c:	00 00 00 00 	unimp  0
4000ca20:	20 20 20 20 	unknown
4000ca24:	54 72 65 65 	call  91ca5fb8 <LEON_REG+0x11ca5fb8>
4000ca28:	00 00 00 00 	unimp  0
4000ca2c:	00 00 00 00 	unimp  0
4000ca30:	20 20 20 20 	unknown
4000ca34:	20 46 46 54 	unknown
	...
4000ca40:	25 38 64 00 	sethi  %hi(0xe1900000), %l2
4000ca44:	00 00 00 00 	unimp  0
4000ca48:	4e 6f 6e 66 	call  79be83e0 <__end+0x39bc3498>
4000ca4c:	6c 6f 61 74 	call  f1be501c <LEON_REG+0x71be501c>
4000ca50:	69 6e 67 20 	call  e5ba66d0 <LEON_REG+0x65ba66d0>
4000ca54:	70 6f 69 6e 	call  1be700c <_trap_table-0x3e418ff4>
4000ca58:	74 20 63 6f 	call  10825814 <_trap_table-0x2f7da7ec>
4000ca5c:	6d 70 6f 73 	call  f5c28828 <LEON_REG+0x75c28828>
4000ca60:	69 74 65 20 	call  e5d25ee0 <LEON_REG+0x65d25ee0>
4000ca64:	69 73 20 25 	call  e5cd4af8 <LEON_REG+0x65cd4af8>
4000ca68:	31 30 2e 30 	sethi  %hi(0xc0b8c000), %i0
4000ca6c:	66 0a 00 00 	call  d828ca6c <LEON_REG+0x5828ca6c>
4000ca70:	46 6c 6f 61 	call  59b287f4 <__end+0x19b038ac>
4000ca74:	74 69 6e 67 	call  11a68410 <_trap_table-0x2e597bf0>
4000ca78:	20 70 6f 69 	unknown
4000ca7c:	6e 74 20 63 	call  f9d14c08 <LEON_REG+0x79d14c08>
4000ca80:	6f 6d 70 6f 	call  fdb68c3c <LEON_REG+0x7db68c3c>
4000ca84:	73 69 74 65 	call  da69c18 <_trap_table-0x325963e8>
4000ca88:	20 69 73 20 	unknown
4000ca8c:	25 31 30 2e 	sethi  %hi(0xc4c0b800), %l2
4000ca90:	30 66 0a 00 	unknown
4000ca94:	00 00 00 00 	unimp  0
4000ca98:	3f 80 00 00 	fbo,a   4000ca98 <___DTOR_END__+0x378>
4000ca9c:	40 80 00 00 	call  4200ca9c <__end+0x1fe7b54>
4000caa0:	bf 80 00 00 	mov  %g0, %asr31
4000caa4:	00 00 00 00 	unimp  0
4000caa8:	40 34 00 00 	call  40d0caa8 <__end+0xce7b60>
4000caac:	00 00 00 00 	unimp  0
4000cab0:	40 24 00 00 	call  4090cab0 <__end+0x8e7b68>
4000cab4:	00 00 00 00 	unimp  0
4000cab8:	3f b0 00 00 	fbo,a   3fc0cab8 <_trap_table-0x3f3548>
4000cabc:	00 00 00 00 	unimp  0
4000cac0:	3f fc 00 00 	cb012,a   3ff0cac0 <_trap_table-0xf3540>
4000cac4:	00 00 00 00 	unimp  0
4000cac8:	40 03 1e b8 	call  400d45a8 <__end+0xaf660>
4000cacc:	51 eb 85 1f 	call  87aedf48 <LEON_REG+0x7aedf48>
4000cad0:	3f fd 47 ae 	cb012,a   3ff5e988 <_trap_table-0xa1678>
4000cad4:	14 7a e1 48 	unknown
4000cad8:	3f f7 5c 28 	cb012,a   3fde3b78 <_trap_table-0x21c488>
4000cadc:	f5 c2 8f 5c 	unknown
	...
4000cae8:	40 07 5c 28 	call  401e3b88 <__end+0x1bec40>
4000caec:	f5 c2 8f 5c 	unknown
4000caf0:	3f e0 00 00 	cb012,a   3f80caf0 <_trap_table-0x7f3510>
4000caf4:	00 00 00 00 	unimp  0
4000caf8:	3f fe b8 51 	cb012,a   3ffbac3c <_trap_table-0x453c4>
4000cafc:	eb 85 1e b8 	ld  [ %l4 + %i0 ], %c21
4000cb00:	3f f9 c2 8f 	cb012,a   3fe7d53c <_trap_table-0x182ac4>
4000cb04:	5c 28 f5 c3 	call  b0a4a210 <LEON_REG+0x30a4a210>
4000cb08:	40 04 00 00 	call  4010cb08 <__end+0xe7bc0>
4000cb0c:	00 00 00 00 	unimp  0
4000cb10:	40 11 c2 8f 	call  4047d54c <__end+0x458604>
4000cb14:	5c 28 f5 c3 	call  b0a4a220 <LEON_REG+0x30a4a220>
4000cb18:	cf 00 00 00 	ld  [ %g0 ], %f7

4000cb1c <__thenan_sf>:
	...
4000cb30:	c1 e0 00 00 00 00 00 00                             ........

4000cb38 <__thenan_df>:
	...
4000cb50:	0a 00 00 00 00 00 00 00                             ........

4000cb58 <blanks.0>:
4000cb58:	20 20 20 20 20 20 20 20 20 20 20 20 20 20 20 20                     

4000cb68 <zeroes.1>:
4000cb68:	30 30 30 30 30 30 30 30 30 30 30 30 30 30 30 30     0000000000000000
4000cb78:	62 75 67 20 69 6e 20 76 66 70 72 69 6e 74 66 3a     bug in vfprintf:
4000cb88:	20 62 61 64 20 62 61 73 65 00 00 00 00 00 00 00      bad base.......
4000cb98:	30 31 32 33 34 35 36 37 38 39 61 62 63 64 65 66     0123456789abcdef
	...
4000cbb0:	49 6e 66 00 00 00 00 00 30 31 32 33 34 35 36 37     Inf.....01234567
4000cbc0:	38 39 41 42 43 44 45 46 00 00 00 00 00 00 00 00     89ABCDEF........
4000cbd0:	30 00 00 00 00 00 00 00 4e 61 4e 00 00 00 00 00     0.......NaN.....
4000cbe0:	28 6e 75 6c 6c 29 00 00 43 2d 55 54 46 2d 38 00     (null)..C-UTF-8.
4000cbf0:	43 2d 53 4a 49 53 00 00 43 2d 45 55 43 4a 50 00     C-SJIS..C-EUCJP.
4000cc00:	43 2d 4a 49 53 00 00 00 49 6e 66 69 6e 69 74 79     C-JIS...Infinity
	...
4000cc18:	41 f0 00 00 00 00 00 00 3f f8 00 00 00 00 00 00     A.......?.......
4000cc28:	3f d2 87 a7 63 6f 43 61 3f c6 8a 28 8b 60 c8 b3     ?...coCa?..(.`..
4000cc38:	3f d3 44 13 50 9f 79 fb 3f f0 00 00 00 00 00 00     ?.D.P.y.?.......
4000cc48:	40 1c 00 00 00 00 00 00 40 14 00 00 00 00 00 00     @.......@.......

4000cc58 <_global_impure_ptr>:
4000cc58:	40 00 d4 58 00 00 00 00 43 00 00 00 00 00 00 00     @..X....C.......
4000cc68:	49 53 4f 2d 38 38 35 39 2d 31 00 00                 ISO-8859-1..

4000cc74 <lconv>:
4000cc74:	40 00 c8 28 40 00 c8 00 40 00 c8 00 40 00 c8 00     @..(@...@...@...
4000cc84:	40 00 c8 00 40 00 c8 00 40 00 c8 00 40 00 c8 00     @...@...@...@...
4000cc94:	40 00 c8 00 40 00 c8 00 7f 7f 7f 7f 7f 7f 7f 7f     @...@...........
4000cca4:	00 00 00 00                                         ....

4000cca8 <__mprec_tinytens>:
4000cca8:	3c 9c d2 b2 97 d8 89 bc 39 49 f6 23 d5 a8 a7 33     <.......9I.#...3
4000ccb8:	32 a5 0f fd 44 f4 a7 3d 25 5b ba 08 cf 8c 97 9d     2...D..=%[......
4000ccc8:	0a c8 06 28 64 ac 6f 43                             ...(d.oC

4000ccd0 <__mprec_bigtens>:
4000ccd0:	43 41 c3 79 37 e0 80 00 46 93 b8 b5 b5 05 6e 17     CA.y7...F.....n.
4000cce0:	4d 38 4f 03 e9 3f f9 f5 5a 82 77 48 f9 30 1d 32     M8O..?..Z.wH.0.2
4000ccf0:	75 15 4f dd 7f 73 bf 3c                             u.O..s.<

4000ccf8 <__mprec_tens>:
4000ccf8:	3f f0 00 00 00 00 00 00 40 24 00 00 00 00 00 00     ?.......@$......
4000cd08:	40 59 00 00 00 00 00 00 40 8f 40 00 00 00 00 00     @Y......@.@.....
4000cd18:	40 c3 88 00 00 00 00 00 40 f8 6a 00 00 00 00 00     @.......@.j.....
4000cd28:	41 2e 84 80 00 00 00 00 41 63 12 d0 00 00 00 00     A.......Ac......
4000cd38:	41 97 d7 84 00 00 00 00 41 cd cd 65 00 00 00 00     A.......A..e....
4000cd48:	42 02 a0 5f 20 00 00 00 42 37 48 76 e8 00 00 00     B.._ ...B7Hv....
4000cd58:	42 6d 1a 94 a2 00 00 00 42 a2 30 9c e5 40 00 00     Bm......B.0..@..
4000cd68:	42 d6 bc c4 1e 90 00 00 43 0c 6b f5 26 34 00 00     B.......C.k.&4..
4000cd78:	43 41 c3 79 37 e0 80 00 43 76 34 57 85 d8 a0 00     CA.y7...Cv4W....
4000cd88:	43 ab c1 6d 67 4e c8 00 43 e1 58 e4 60 91 3d 00     C..mgN..C.X.`.=.
4000cd98:	44 15 af 1d 78 b5 8c 40 44 4b 1a e4 d6 e2 ef 50     D...x..@DK.....P
4000cda8:	44 80 f0 cf 06 4d d5 92 44 b5 2d 02 c7 e1 4a f6     D....M..D.-...J.
4000cdb8:	44 ea 78 43 79 d9 9d b4                             D.xCy...

4000cdc0 <p05.0>:
4000cdc0:	00 00 00 05 00 00 00 19 00 00 00 7d 00 00 00 00     ...........}....

4000cdd0 <trap_table>:
	...
4000cdd8:	40 00 ba a8 	call  4003b878 <__end+0x16930>
4000cddc:	00 00 00 01 	unimp  0x1
4000cde0:	00 00 00 01 	unimp  0x1
4000cde4:	40 00 c2 a0 	call  4003d864 <__end+0x1891c>
4000cde8:	00 00 00 04 	unimp  0x4
4000cdec:	00 00 00 04 	unimp  0x4
4000cdf0:	40 00 c1 d8 	call  4003d550 <__end+0x18608>
4000cdf4:	00 00 00 05 	unimp  0x5
4000cdf8:	00 00 00 05 	unimp  0x5
4000cdfc:	40 00 bb 64 	call  4003bb8c <__end+0x16c44>
4000ce00:	00 00 00 06 	unimp  0x6
4000ce04:	00 00 00 06 	unimp  0x6
4000ce08:	40 00 bb d0 	call  4003bd48 <__end+0x16e00>
4000ce0c:	00 00 00 09 	unimp  0x9
4000ce10:	00 00 00 09 	unimp  0x9
4000ce14:	40 00 c2 a0 	call  4003d894 <__end+0x1894c>
4000ce18:	00 00 00 11 	unimp  0x11
4000ce1c:	00 00 00 1f 	unimp  0x1f
4000ce20:	40 00 be 40 	call  4003c720 <__end+0x177d8>
4000ce24:	00 00 00 82 	unimp  0x82
4000ce28:	00 00 00 82 	unimp  0x82
4000ce2c:	40 00 bd 84 	call  4003c43c <__end+0x174f4>
4000ce30:	00 00 00 83 	unimp  0x83
4000ce34:	00 00 00 83 	unimp  0x83
4000ce38:	40 00 bc 30 	call  4003bef8 <__end+0x16fb0>
4000ce3c:	00 00 00 85 	unimp  0x85
4000ce40:	00 00 00 85 	unimp  0x85
4000ce44:	40 00 bd 68 	call  4003c3e4 <__end+0x1749c>

4000ce48 <svt_trap_table_ext>:
	...

4000cf14 <svt_trap_table_ext_end>:
	...

4000cf20 <_init>:
4000cf20:	9d e3 bf a0 	save  %sp, -96, %sp
4000cf24:	7f ff cc 77 	call  40000100 <frame_dummy>
4000cf28:	01 00 00 00 	nop 
4000cf2c:	7f ff fd de 	call  4000c6a4 <__do_global_ctors_aux>
4000cf30:	01 00 00 00 	nop 
4000cf34:	81 c7 e0 08 	ret 
4000cf38:	81 e8 00 00 	restore 

4000cf3c <_fini>:
4000cf3c:	9d e3 bf a0 	save  %sp, -96, %sp
4000cf40:	7f ff cc 52 	call  40000088 <__do_global_dtors_aux>
4000cf44:	01 00 00 00 	nop 
4000cf48:	81 c7 e0 08 	ret 
4000cf4c:	81 e8 00 00 	restore 
